(dp0
S'cookies'
p1
(dp2
S'wxloadtime'
p3
S'1503559601'
p4
sS'webwx_data_ticket'
p5
S'gSfVPAMbUR7nfANTqryQaN/D'
p6
sS'wxuin'
p7
S'1835068021'
p8
sS'login_frequency'
p9
S'2'
p10
sS'MM_WX_NOTIFY_STATE'
p11
S'1'
p12
sS'MM_WX_SOUND_STATE'
p13
g12
sS'webwx_auth_ticket'
p14
S'CIsBEPfY6PYBGoABwGoQpwEGrICzxjJPoPgFsMw1lKUkMS+b7sI57t/UJjRxgTygCvlbpbKq8fsYzZLsV2NpSUPEvOm/i85lFOo7M67AqkrPi7d6MB/sc9F0szfyAJw9678SeykWqyddGJxi5ILRC02X0S2jwrFIoWmBdxmmLsveZN/FaFqebHK83pQ='
p15
sS'last_wxuin'
p16
S'1835068021'
p17
sS'webwxuvid'
p18
S'84aefa150219fdf348f06cdd4ff77e95301dc013c09fc14bd8aef514faf3f60f6e4b83959df63b3c3fa4b9581f930500'
p19
sS'wxpluginkey'
p20
S'1503558680'
p21
sS'wxsid'
p22
S'vOfn28WcQ2dd4kj6'
p23
sS'mm_lang'
p24
S'zh_CN'
p25
ssS'version'
p26
S'1.2.32'
p27
sS'storage'
p28
(dp29
S'userName'
p30
V@68dbdfe1718b154e88ce0219bca9a04ff848c644220426a378b1efd66cc431ed
p31
sS'lastInputUserName'
p32
NsS'memberList'
p33
(lp34
(dp35
S'UserName'
p36
V@68dbdfe1718b154e88ce0219bca9a04ff848c644220426a378b1efd66cc431ed
p37
sS'City'
p38
V\u5927\u8fde
p39
sS'DisplayName'
p40
S''
p41
sS'UniFriend'
p42
I0
sS'MemberList'
p43
(lp44
sS'PYQuanPin'
p45
VDAREDEVIL
p46
sS'RemarkPYInitial'
p47
V
p48
sS'Sex'
p49
I1
sS'AppAccountFlag'
p50
I0
sS'VerifyFlag'
p51
I0
sS'Province'
p52
V\u8fbd\u5b81
p53
sS'KeyWord'
p54
g41
sS'RemarkName'
p55
g48
sS'PYInitial'
p56
VDAREDEVIL
p57
sVIsOwner
p58
I0
sS'ChatRoomId'
p59
I0
sS'HideInputBarFlag'
p60
I0
sVHeadImgFlag
p61
I1
sS'EncryChatRoomId'
p62
g41
sS'AttrStatus'
p63
I33691647
sVWebWxPluginSwitch
p64
I1
sS'SnsFlag'
p65
I17
sS'MemberCount'
p66
I0
sS'OwnerUin'
p67
I0
sS'Alias'
p68
g41
sS'Signature'
p69
V\u5982\u679c\u4e0d\u80fd\u5403\u5b83\u3001\u4e0d\u80fd\u559d\u5b83\u3001\u4e0d\u80fd\u62bd\u5b83\u3001\u4e0d\u80fd\u5438\u5b83\uff0c\u90a3\u5c31\u5e72\u6b7b\u5b83\uff01
p70
sS'ContactFlag'
p71
I5
sS'NickName'
p72
VDAREDEVIL
p73
sS'RemarkPYQuanPin'
p74
g48
sS'HeadImgUrl'
p75
V/cgi-bin/mmwebwx-bin/webwxgeticon?seq=660412909&username=@68dbdfe1718b154e88ce0219bca9a04ff848c644220426a378b1efd66cc431ed&skey=@crypt_870a16cf_456d32d449b4c837b4f12f1e0fbe5017
p76
sS'Uin'
p77
I1835068021
sS'StarFriend'
p78
I0
sS'Statues'
p79
I0
sa(dp80
VUserName
p81
V@81354e7d479ab94679b394e67f1f12d3aa1eb2f6b2a7a84af941e0ee5840da9e
p82
sVCity
p83
V\u6d77\u6dc0
p84
sVDisplayName
p85
g48
sVUniFriend
p86
I0
sVMemberList
p87
(lp88
sVPYQuanPin
p89
VmoMo
p90
sVRemarkPYInitial
p91
VMMO
p92
sVUin
p93
I0
sVAppAccountFlag
p94
I0
sVVerifyFlag
p95
I0
sVProvince
p96
V\u5317\u4eac
p97
sVKeyWord
p98
g48
sVRemarkName
p99
V\u58a8Mo
p100
sVPYInitial
p101
VMMO
p102
sVChatRoomId
p103
I0
sVIsOwner
p104
I0
sVHideInputBarFlag
p105
I0
sVEncryChatRoomId
p106
g48
sVAttrStatus
p107
I16878527
sVSnsFlag
p108
I17
sVMemberCount
p109
I0
sVOwnerUin
p110
I0
sVAlias
p111
g48
sVSignature
p112
V\u77e5\u6b62\u800c\u5f8c\u6709\u5b9a\uff0c\u5b9a\u800c\u5f8c\u80fd\u975c\uff0c\u975c\u800c\u5f8c\u80fd\u5b89\uff0c\u5b89\u800c\u5f8c\u80fd\u8003\u616e\uff0c\u616e\u800c\u5f8c\u5f97
p113
sVContactFlag
p114
I3
sVNickName
p115
V\u58a8Mo
p116
sVRemarkPYQuanPin
p117
VmoMo
p118
sVHeadImgUrl
p119
V/cgi-bin/mmwebwx-bin/webwxgeticon?seq=660462163&username=@81354e7d479ab94679b394e67f1f12d3aa1eb2f6b2a7a84af941e0ee5840da9e&skey=@crypt_870a16cf_456d32d449b4c837b4f12f1e0fbe5017
p120
sVSex
p121
I1
sVStarFriend
p122
I0
sVStatues
p123
I0
sa(dp124
VUserName
p125
V@c47b191ce879ddde77228dfff5f772ac
p126
sVCity
p127
g48
sVDisplayName
p128
g48
sVUniFriend
p129
I0
sVMemberList
p130
(lp131
sVPYQuanPin
p132
Vniyoumeiyoumengxiang
p133
sVRemarkPYInitial
p134
VWCH
p135
sVUin
p136
I0
sVAppAccountFlag
p137
I0
sVVerifyFlag
p138
I0
sVProvince
p139
g48
sVKeyWord
p140
Vhua
p141
sVRemarkName
p142
V\u738b\u660c\u534e
p143
sVPYInitial
p144
VNYMYMX
p145
sVChatRoomId
p146
I0
sVIsOwner
p147
I0
sVHideInputBarFlag
p148
I0
sVEncryChatRoomId
p149
g48
sVAttrStatus
p150
I107622
sVSnsFlag
p151
I49
sVMemberCount
p152
I0
sVOwnerUin
p153
I0
sVAlias
p154
g48
sVSignature
p155
V\u5bf9\u4e8e\u672a\u6765\u7684\u751f\u6d3b\uff0c\u53ea\u60f3\u6709\u6240\u68a6\uff0c\u6709\u6240\u60f3\uff01\u6709\u6240\u5e0c\u671b\uff01
p156
sVContactFlag
p157
I5
sVNickName
p158
V\u4f60\u6709\u6ca1\u6709\u68a6\u60f3
p159
sVRemarkPYQuanPin
p160
Vwangchanghua
p161
sVHeadImgUrl
p162
V/cgi-bin/mmwebwx-bin/webwxgeticon?seq=647451210&username=@c47b191ce879ddde77228dfff5f772ac&skey=@crypt_870a16cf_456d32d449b4c837b4f12f1e0fbe5017
p163
sVSex
p164
I1
sVStarFriend
p165
I0
sVStatues
p166
I0
sa(dp167
VUserName
p168
V@2bd29923a1c1d8c4701f7586418a1256
p169
sVCity
p170
V\u5927\u8fde
p171
sVDisplayName
p172
g48
sVUniFriend
p173
I0
sVMemberList
p174
(lp175
sVPYQuanPin
p176
Vguyu
p177
sVRemarkPYInitial
p178
VGFR
p179
sVUin
p180
I0
sVAppAccountFlag
p181
I0
sVVerifyFlag
p182
I0
sVProvince
p183
V\u8fbd\u5b81
p184
sVKeyWord
p185
Vguf
p186
sVRemarkName
p187
V\u8c37\u5bcc\u5112
p188
sVPYInitial
p189
VGY
p190
sVChatRoomId
p191
I0
sVIsOwner
p192
I0
sVHideInputBarFlag
p193
I0
sVEncryChatRoomId
p194
g48
sVAttrStatus
p195
I110695
sVSnsFlag
p196
I49
sVMemberCount
p197
I0
sVOwnerUin
p198
I0
sVAlias
p199
g48
sVSignature
p200
V\u2605\u4eba\u4e0d\u53ef\u6709\u50b2\u6c14 \u4e0d\u53ef\u65e0\u50b2\u9aa8\u2606
p201
sVContactFlag
p202
I1
sVNickName
p203
V\u8c37\u96e8
p204
sVRemarkPYQuanPin
p205
Vgufuru
p206
sVHeadImgUrl
p207
V/cgi-bin/mmwebwx-bin/webwxgeticon?seq=626960328&username=@2bd29923a1c1d8c4701f7586418a1256&skey=@crypt_870a16cf_456d32d449b4c837b4f12f1e0fbe5017
p208
sVSex
p209
I1
sVStarFriend
p210
I0
sVStatues
p211
I0
sa(dp212
VUserName
p213
V@d243d00f1cf28fe07bd295fb30db96d3c293b2db2d91357cce257adb06998658
p214
sVCity
p215
V\u5927\u8fde
p216
sVDisplayName
p217
g48
sVUniFriend
p218
I0
sVMemberList
p219
(lp220
sVPYQuanPin
p221
Vdanxiaohongchen
p222
sVRemarkPYInitial
p223
VSDX
p224
sVUin
p225
I0
sVAppAccountFlag
p226
I0
sVVerifyFlag
p227
I0
sVProvince
p228
V\u8fbd\u5b81
p229
sVKeyWord
p230
g48
sVRemarkName
p231
V\u5c1a\u51ac\u96ea
p232
sVPYInitial
p233
VDXHC
p234
sVChatRoomId
p235
I0
sVIsOwner
p236
I0
sVHideInputBarFlag
p237
I0
sVEncryChatRoomId
p238
g48
sVAttrStatus
p239
I135205
sVSnsFlag
p240
I17
sVMemberCount
p241
I0
sVOwnerUin
p242
I0
sVAlias
p243
g48
sVSignature
p244
V\u968f\u5fc3\u6240\u6b32\uff0c\u968f\u9047\u800c\u5b89\u3002\u000a\u4e5d\u5929\u4e4b\u4e0a\uff0c\u6211\u8ba9\u4f60\uff1b\u000a\u4e5d\u6cc9\u4e4b\u4e0b\uff0c\u6211\u7b49\u4f60\u3002
p245
sVContactFlag
p246
I1
sVNickName
p247
V\u6de1\u7b11\u7ea2\u5c18
p248
sVRemarkPYQuanPin
p249
Vshangdongxue
p250
sVHeadImgUrl
p251
V/cgi-bin/mmwebwx-bin/webwxgeticon?seq=629040671&username=@d243d00f1cf28fe07bd295fb30db96d3c293b2db2d91357cce257adb06998658&skey=@crypt_870a16cf_456d32d449b4c837b4f12f1e0fbe5017
p252
sVSex
p253
I2
sVStarFriend
p254
I0
sVStatues
p255
I0
sa(dp256
VUserName
p257
V@504d7cd134fd74a81f0598bb7d8fca35da1eff41cc840407f47471a537996105
p258
sVCity
p259
V\u5927\u8fde
p260
sVDisplayName
p261
g48
sVUniFriend
p262
I0
sVMemberList
p263
(lp264
sVPYQuanPin
p265
Vxiaodong
p266
sVRemarkPYInitial
p267
VWXD
p268
sVUin
p269
I0
sVAppAccountFlag
p270
I0
sVVerifyFlag
p271
I0
sVProvince
p272
V\u8fbd\u5b81
p273
sVKeyWord
p274
g48
sVRemarkName
p275
V\u738b\u6653\u4e1c
p276
sVPYInitial
p277
VXD
p278
sVChatRoomId
p279
I0
sVIsOwner
p280
I0
sVHideInputBarFlag
p281
I0
sVEncryChatRoomId
p282
g48
sVAttrStatus
p283
I16888933
sVSnsFlag
p284
I49
sVMemberCount
p285
I0
sVOwnerUin
p286
I0
sVAlias
p287
g48
sVSignature
p288
V\u4e16\u4e0a\u6ca1\u6709\u51b7\u7537   \u000a   \u53ea\u662f\u4ed6\u6696\u7684\u4e0d\u662f\u4f60
p289
sVContactFlag
p290
I1
sVNickName
p291
V\u6653\u4e1c
p292
sVRemarkPYQuanPin
p293
Vwangxiaodong
p294
sVHeadImgUrl
p295
V/cgi-bin/mmwebwx-bin/webwxgeticon?seq=648792790&username=@504d7cd134fd74a81f0598bb7d8fca35da1eff41cc840407f47471a537996105&skey=@crypt_870a16cf_456d32d449b4c837b4f12f1e0fbe5017
p296
sVSex
p297
I2
sVStarFriend
p298
I0
sVStatues
p299
I0
sa(dp300
VUserName
p301
V@3d09c466b5ce80becf58c17aa3146e5a076884a0502d4a9524a9099de0f11d1d
p302
sVCity
p303
V\u5927\u8fde
p304
sVDisplayName
p305
g48
sVUniFriend
p306
I0
sVMemberList
p307
(lp308
sVPYQuanPin
p309
Vjianjiandandan
p310
sVRemarkPYInitial
p311
VLG
p312
sVUin
p313
I0
sVAppAccountFlag
p314
I0
sVVerifyFlag
p315
I0
sVProvince
p316
V\u8fbd\u5b81
p317
sVKeyWord
p318
g48
sVRemarkName
p319
V\u8001\u59d1
p320
sVPYInitial
p321
VJJDD
p322
sVChatRoomId
p323
I0
sVIsOwner
p324
I0
sVHideInputBarFlag
p325
I0
sVEncryChatRoomId
p326
g48
sVAttrStatus
p327
L2147487781L
sVSnsFlag
p328
I1
sVMemberCount
p329
I0
sVOwnerUin
p330
I0
sVAlias
p331
g48
sVSignature
p332
g48
sVContactFlag
p333
I1
sVNickName
p334
V\u7b80\u7b80\u4e39\u4e39
p335
sVRemarkPYQuanPin
p336
Vlaogu
p337
sVHeadImgUrl
p338
V/cgi-bin/mmwebwx-bin/webwxgeticon?seq=643035702&username=@3d09c466b5ce80becf58c17aa3146e5a076884a0502d4a9524a9099de0f11d1d&skey=@crypt_870a16cf_456d32d449b4c837b4f12f1e0fbe5017
p339
sVSex
p340
I2
sVStarFriend
p341
I0
sVStatues
p342
I0
sa(dp343
VUserName
p344
V@86118b93fd7661baf93600c5112cd9e8
p345
sVCity
p346
V\u6000\u67d4
p347
sVDisplayName
p348
g48
sVUniFriend
p349
I0
sVMemberList
p350
(lp351
sVPYQuanPin
p352
Vlaizai
p353
sVRemarkPYInitial
p354
VWL
p355
sVUin
p356
I0
sVAppAccountFlag
p357
I0
sVVerifyFlag
p358
I0
sVProvince
p359
V\u5317\u4eac
p360
sVKeyWord
p361
Vwl4
p362
sVRemarkName
p363
V\u9b4f\u6765
p364
sVPYInitial
p365
VLZ
p366
sVChatRoomId
p367
I0
sVIsOwner
p368
I0
sVHideInputBarFlag
p369
I0
sVEncryChatRoomId
p370
g48
sVAttrStatus
p371
I98407
sVSnsFlag
p372
I49
sVMemberCount
p373
I0
sVOwnerUin
p374
I0
sVAlias
p375
g48
sVSignature
p376
V\u4e0d\u662f\u4e0d\u80fd\uff0c\u53ea\u662f\u4e0d\u60f3\uff01
p377
sVContactFlag
p378
I1
sVNickName
p379
V\u6765\u4ed4
p380
sVRemarkPYQuanPin
p381
Vweilai
p382
sVHeadImgUrl
p383
V/cgi-bin/mmwebwx-bin/webwxgeticon?seq=660414552&username=@86118b93fd7661baf93600c5112cd9e8&skey=@crypt_870a16cf_456d32d449b4c837b4f12f1e0fbe5017
p384
sVSex
p385
I1
sVStarFriend
p386
I0
sVStatues
p387
I0
sa(dp388
VUserName
p389
V@b96c68b5466c777e179e477bab8c351c7733fcc582a7b1e54d946180d07d3134
p390
sVCity
p391
V\u671d\u9633
p392
sVDisplayName
p393
g48
sVUniFriend
p394
I0
sVMemberList
p395
(lp396
sVPYQuanPin
p397
Vchangfen
p398
sVRemarkPYInitial
p399
VSG
p400
sVUin
p401
I0
sVAppAccountFlag
p402
I0
sVVerifyFlag
p403
I0
sVProvince
p404
V\u5317\u4eac
p405
sVKeyWord
p406
g48
sVRemarkName
p407
V\u4e09\u59d1
p408
sVPYInitial
p409
VCF
p410
sVChatRoomId
p411
I0
sVIsOwner
p412
I0
sVHideInputBarFlag
p413
I0
sVEncryChatRoomId
p414
g48
sVAttrStatus
p415
I102469
sVSnsFlag
p416
I1
sVMemberCount
p417
I0
sVOwnerUin
p418
I0
sVAlias
p419
g48
sVSignature
p420
g48
sVContactFlag
p421
I1
sVNickName
p422
V\u957f\u82ac
p423
sVRemarkPYQuanPin
p424
Vsangu
p425
sVHeadImgUrl
p426
V/cgi-bin/mmwebwx-bin/webwxgeticon?seq=660409582&username=@b96c68b5466c777e179e477bab8c351c7733fcc582a7b1e54d946180d07d3134&skey=@crypt_870a16cf_456d32d449b4c837b4f12f1e0fbe5017
p427
sVSex
p428
I1
sVStarFriend
p429
I0
sVStatues
p430
I0
sa(dp431
VUserName
p432
V@c110bc7c3c4091f9f4e55a9d1afed147c4d869c28c4842482e3e940fdd90f99c
p433
sVCity
p434
g48
sVDisplayName
p435
g48
sVUniFriend
p436
I0
sVMemberList
p437
(lp438
sVPYQuanPin
p439
Vchunhuaqiushi
p440
sVRemarkPYInitial
p441
VLB
p442
sVUin
p443
I0
sVAppAccountFlag
p444
I0
sVVerifyFlag
p445
I0
sVProvince
p446
g48
sVKeyWord
p447
g48
sVRemarkName
p448
V\u8001\u6bd5
p449
sVPYInitial
p450
VCHQS
p451
sVChatRoomId
p452
I0
sVIsOwner
p453
I0
sVHideInputBarFlag
p454
I0
sVEncryChatRoomId
p455
g48
sVAttrStatus
p456
I110629
sVSnsFlag
p457
I17
sVMemberCount
p458
I0
sVOwnerUin
p459
I0
sVAlias
p460
g48
sVSignature
p461
V\u76f8\u89c1\u4ea6\u662f\u7f18\u5206\uff0c\u60dc\u7f18\uff0c\u968f\u7f18\uff01
p462
sVContactFlag
p463
I5
sVNickName
p464
V\u6625\u534e\u79cb\u5b9e
p465
sVRemarkPYQuanPin
p466
Vlaobi
p467
sVHeadImgUrl
p468
V/cgi-bin/mmwebwx-bin/webwxgeticon?seq=660417113&username=@c110bc7c3c4091f9f4e55a9d1afed147c4d869c28c4842482e3e940fdd90f99c&skey=@crypt_870a16cf_456d32d449b4c837b4f12f1e0fbe5017
p469
sVSex
p470
I1
sVStarFriend
p471
I0
sVStatues
p472
I0
sa(dp473
VUserName
p474
V@35d75937b37e696e9f2d8c678213da93859fd5a756686b0bde382f191720a259
p475
sVCity
p476
V\u5927\u8fde
p477
sVDisplayName
p478
g48
sVUniFriend
p479
I0
sVMemberList
p480
(lp481
sVPYQuanPin
p482
Vliuyunzhi
p483
sVRemarkPYInitial
p484
g48
sVUin
p485
I0
sVAppAccountFlag
p486
I0
sVVerifyFlag
p487
I0
sVProvince
p488
V\u8fbd\u5b81
p489
sVKeyWord
p490
g48
sVRemarkName
p491
g48
sVPYInitial
p492
VLYZ
p493
sVChatRoomId
p494
I0
sVIsOwner
p495
I0
sVHideInputBarFlag
p496
I0
sVEncryChatRoomId
p497
g48
sVAttrStatus
p498
I135207
sVSnsFlag
p499
I17
sVMemberCount
p500
I0
sVOwnerUin
p501
I0
sVAlias
p502
g48
sVSignature
p503
V\u6ca1\u6709\u52c7\u6c14\u7684\u4eba\uff0c\u53ea\u80fd\u662f\u4e00\u6b21\u53c8\u4e00\u6b21\u7684\u9519\u8fc7\u3002
p504
sVContactFlag
p505
I1
sVNickName
p506
V\u5218\u82b8\u5fd7
p507
sVRemarkPYQuanPin
p508
g48
sVHeadImgUrl
p509
V/cgi-bin/mmwebwx-bin/webwxgeticon?seq=648823860&username=@35d75937b37e696e9f2d8c678213da93859fd5a756686b0bde382f191720a259&skey=@crypt_870a16cf_456d32d449b4c837b4f12f1e0fbe5017
p510
sVSex
p511
I1
sVStarFriend
p512
I0
sVStatues
p513
I0
sa(dp514
VUserName
p515
V@182de6ee82331ed4451a8da63042ab21d3a860c62344c30c64306b3cb8924a97
p516
sVCity
p517
V\u5927\u8fde
p518
sVDisplayName
p519
g48
sVUniFriend
p520
I0
sVMemberList
p521
(lp522
sVPYQuanPin
p523
Vxiaobao
p524
sVRemarkPYInitial
p525
g48
sVUin
p526
I0
sVAppAccountFlag
p527
I0
sVVerifyFlag
p528
I0
sVProvince
p529
V\u8fbd\u5b81
p530
sVKeyWord
p531
g48
sVRemarkName
p532
g48
sVPYInitial
p533
VXB
p534
sVChatRoomId
p535
I0
sVIsOwner
p536
I0
sVHideInputBarFlag
p537
I0
sVEncryChatRoomId
p538
g48
sVAttrStatus
p539
I1211
sVSnsFlag
p540
I16
sVMemberCount
p541
I0
sVOwnerUin
p542
I0
sVAlias
p543
g48
sVSignature
p544
V\u4eba\u751f\u7684\u65c5\u9014\u6709\u592a\u591a\u7684\u76f8\u9047\uff0c\u4f46\u6211\u53ea\u7b49\u5019\u4f60\u2026\u2026
p545
sVContactFlag
p546
I1
sVNickName
p547
V\u2606\u5c0f\u5b9d\u2121
p548
sVRemarkPYQuanPin
p549
g48
sVHeadImgUrl
p550
V/cgi-bin/mmwebwx-bin/webwxgeticon?seq=1170465&username=@182de6ee82331ed4451a8da63042ab21d3a860c62344c30c64306b3cb8924a97&skey=@crypt_870a16cf_456d32d449b4c837b4f12f1e0fbe5017
p551
sVSex
p552
I1
sVStarFriend
p553
I0
sVStatues
p554
I0
sa(dp555
VUserName
p556
V@a6f521b515f249a252cd1ccf768cb6d5
p557
sVCity
p558
V\u4e30\u53f0
p559
sVDisplayName
p560
g48
sVUniFriend
p561
I0
sVMemberList
p562
(lp563
sVPYQuanPin
p564
Vsnow
p565
sVRemarkPYInitial
p566
VZX
p567
sVUin
p568
I0
sVAppAccountFlag
p569
I0
sVVerifyFlag
p570
I0
sVProvince
p571
V\u5317\u4eac
p572
sVKeyWord
p573
Vyux
p574
sVRemarkName
p575
V\u5f20\u96ea
p576
sVPYInitial
p577
VSNOW
p578
sVChatRoomId
p579
I0
sVIsOwner
p580
I0
sVHideInputBarFlag
p581
I0
sVEncryChatRoomId
p582
g48
sVAttrStatus
p583
I100775
sVSnsFlag
p584
I49
sVMemberCount
p585
I0
sVOwnerUin
p586
I0
sVAlias
p587
g48
sVSignature
p588
V\u7761\u89c9\u7761\u5230\u81ea\u7136\u9192\uff08\u5bb6\u6709\u5e05\u54e5\uff09
p589
sVContactFlag
p590
I1
sVNickName
p591
Vsnow
p592
sVRemarkPYQuanPin
p593
Vzhangxue
p594
sVHeadImgUrl
p595
V/cgi-bin/mmwebwx-bin/webwxgeticon?seq=660401662&username=@a6f521b515f249a252cd1ccf768cb6d5&skey=@crypt_870a16cf_456d32d449b4c837b4f12f1e0fbe5017
p596
sVSex
p597
I2
sVStarFriend
p598
I0
sVStatues
p599
I0
sa(dp600
VUserName
p601
V@a4589d79245c0889d90406982fd6725e
p602
sVCity
p603
V\u6d77\u6dc0
p604
sVDisplayName
p605
g48
sVUniFriend
p606
I0
sVMemberList
p607
(lp608
sVPYQuanPin
p609
Vpipi
p610
sVRemarkPYInitial
p611
g48
sVUin
p612
I0
sVAppAccountFlag
p613
I0
sVVerifyFlag
p614
I0
sVProvince
p615
V\u5317\u4eac
p616
sVKeyWord
p617
Vgao
p618
sVRemarkName
p619
g48
sVPYInitial
p620
VPP
p621
sVChatRoomId
p622
I0
sVIsOwner
p623
I0
sVHideInputBarFlag
p624
I0
sVEncryChatRoomId
p625
g48
sVAttrStatus
p626
I33789887
sVSnsFlag
p627
I17
sVMemberCount
p628
I0
sVOwnerUin
p629
I0
sVAlias
p630
g48
sVSignature
p631
g48
sVContactFlag
p632
I1
sVNickName
p633
V\u76ae\u76ae
p634
sVRemarkPYQuanPin
p635
g48
sVHeadImgUrl
p636
V/cgi-bin/mmwebwx-bin/webwxgeticon?seq=660417582&username=@a4589d79245c0889d90406982fd6725e&skey=@crypt_870a16cf_456d32d449b4c837b4f12f1e0fbe5017
p637
sVSex
p638
I1
sVStarFriend
p639
I0
sVStatues
p640
I0
sa(dp641
VUserName
p642
V@34cf0d3b2230e0ff29b64a3405acaeb2d894fb48818321dfedc7e5dcafbc5fd6
p643
sVCity
p644
g48
sVDisplayName
p645
g48
sVUniFriend
p646
I0
sVMemberList
p647
(lp648
sVPYQuanPin
p649
Vchangxiu
p650
sVRemarkPYInitial
p651
VEG
p652
sVUin
p653
I0
sVAppAccountFlag
p654
I0
sVVerifyFlag
p655
I0
sVProvince
p656
g48
sVKeyWord
p657
g48
sVRemarkName
p658
V\u4e8c\u59d1
p659
sVPYInitial
p660
VCX
p661
sVChatRoomId
p662
I0
sVIsOwner
p663
I0
sVHideInputBarFlag
p664
I0
sVEncryChatRoomId
p665
g48
sVAttrStatus
p666
I4133
sVSnsFlag
p667
I0
sVMemberCount
p668
I0
sVOwnerUin
p669
I0
sVAlias
p670
g48
sVSignature
p671
g48
sVContactFlag
p672
I1
sVNickName
p673
V\u957f\u79c0
p674
sVRemarkPYQuanPin
p675
Vergu
p676
sVHeadImgUrl
p677
V/cgi-bin/mmwebwx-bin/webwxgeticon?seq=648834811&username=@34cf0d3b2230e0ff29b64a3405acaeb2d894fb48818321dfedc7e5dcafbc5fd6&skey=@crypt_870a16cf_456d32d449b4c837b4f12f1e0fbe5017
p678
sVSex
p679
I1
sVStarFriend
p680
I0
sVStatues
p681
I0
sa(dp682
VUserName
p683
V@b418f2d77b34907df0e974ff2aa597a56a4310cc8ba95516bd18a60c19b064f7
p684
sVCity
p685
g48
sVDisplayName
p686
g48
sVUniFriend
p687
I0
sVMemberList
p688
(lp689
sVPYQuanPin
p690
Vmeihaoshenghuo
p691
sVRemarkPYInitial
p692
VLM
p693
sVUin
p694
I0
sVAppAccountFlag
p695
I0
sVVerifyFlag
p696
I0
sVProvince
p697
g48
sVKeyWord
p698
g48
sVRemarkName
p699
V\u8001\u5988
p700
sVPYInitial
p701
VMHSH
p702
sVChatRoomId
p703
I0
sVIsOwner
p704
I0
sVHideInputBarFlag
p705
I0
sVEncryChatRoomId
p706
g48
sVAttrStatus
p707
I6501
sVSnsFlag
p708
I1
sVMemberCount
p709
I0
sVOwnerUin
p710
I0
sVAlias
p711
g48
sVSignature
p712
g48
sVContactFlag
p713
I3
sVNickName
p714
V\u7f8e\u597d\u751f\u6d3b
p715
sVRemarkPYQuanPin
p716
Vlaoma
p717
sVHeadImgUrl
p718
V/cgi-bin/mmwebwx-bin/webwxgeticon?seq=648849129&username=@b418f2d77b34907df0e974ff2aa597a56a4310cc8ba95516bd18a60c19b064f7&skey=@crypt_870a16cf_456d32d449b4c837b4f12f1e0fbe5017
p719
sVSex
p720
I0
sVStarFriend
p721
I0
sVStatues
p722
I0
sa(dp723
VUserName
p724
V@aaec583e0d3f0606e08214cebcc47c76df43eb8bb1774c99e74a0bd62f7d7e4b
p725
sVCity
p726
V\u4fdd\u5b9a
p727
sVDisplayName
p728
g48
sVUniFriend
p729
I0
sVMemberList
p730
(lp731
sVPYQuanPin
p732
Vthewonder
p733
sVRemarkPYInitial
p734
VQJ
p735
sVUin
p736
I0
sVAppAccountFlag
p737
I0
sVVerifyFlag
p738
I0
sVProvince
p739
V\u6cb3\u5317
p740
sVKeyWord
p741
g48
sVRemarkName
p742
V\u9f50\u7eaa
p743
sVPYInitial
p744
VTHEWONDER
p745
sVChatRoomId
p746
I0
sVIsOwner
p747
I0
sVHideInputBarFlag
p748
I0
sVEncryChatRoomId
p749
g48
sVAttrStatus
p750
I4197
sVSnsFlag
p751
I1
sVMemberCount
p752
I0
sVOwnerUin
p753
I0
sVAlias
p754
g48
sVSignature
p755
V18531241146
p756
sVContactFlag
p757
I1
sVNickName
p758
Vthe wonder
p759
sVRemarkPYQuanPin
p760
Vqiji
p761
sVHeadImgUrl
p762
V/cgi-bin/mmwebwx-bin/webwxgeticon?seq=641995109&username=@aaec583e0d3f0606e08214cebcc47c76df43eb8bb1774c99e74a0bd62f7d7e4b&skey=@crypt_870a16cf_456d32d449b4c837b4f12f1e0fbe5017
p763
sVSex
p764
I1
sVStarFriend
p765
I0
sVStatues
p766
I0
sa(dp767
VUserName
p768
V@77a2709a380f461a18bc3da90e3024f1
p769
sVCity
p770
V\u5927\u8fde
p771
sVDisplayName
p772
g48
sVUniFriend
p773
I0
sVMemberList
p774
(lp775
sVPYQuanPin
p776
Vdapeng
p777
sVRemarkPYInitial
p778
VQSP
p779
sVUin
p780
I0
sVAppAccountFlag
p781
I0
sVVerifyFlag
p782
I0
sVProvince
p783
V\u8fbd\u5b81
p784
sVKeyWord
p785
Vqsp
p786
sVRemarkName
p787
V\u66f2\u4e66\u9e4f
p788
sVPYInitial
p789
VDP
p790
sVChatRoomId
p791
I0
sVIsOwner
p792
I0
sVHideInputBarFlag
p793
I0
sVEncryChatRoomId
p794
g48
sVAttrStatus
p795
I233975
sVSnsFlag
p796
I17
sVMemberCount
p797
I0
sVOwnerUin
p798
I0
sVAlias
p799
g48
sVSignature
p800
V\u670b\u53cb\u5708\uff0c\u518d\u89c1
p801
sVContactFlag
p802
I5
sVNickName
p803
V\u5927\u9e4f
p804
sVRemarkPYQuanPin
p805
Vqushupeng
p806
sVHeadImgUrl
p807
V/cgi-bin/mmwebwx-bin/webwxgeticon?seq=660425585&username=@77a2709a380f461a18bc3da90e3024f1&skey=@crypt_870a16cf_456d32d449b4c837b4f12f1e0fbe5017
p808
sVSex
p809
I1
sVStarFriend
p810
I0
sVStatues
p811
I0
sa(dp812
VUserName
p813
V@8f6508e9b6985fb8e96c8775468c2e70234526c7b5e9ef0619011e39c7035469
p814
sVCity
p815
V\u5927\u8fde
p816
sVDisplayName
p817
g48
sVUniFriend
p818
I0
sVMemberList
p819
(lp820
sVPYQuanPin
p821
Vsheng
p822
sVRemarkPYInitial
p823
VYYS
p824
sVUin
p825
I0
sVAppAccountFlag
p826
I0
sVVerifyFlag
p827
I0
sVProvince
p828
V\u8fbd\u5b81
p829
sVKeyWord
p830
g48
sVRemarkName
p831
V\u4e8e\u8dc3\u751f
p832
sVPYInitial
p833
VS
p834
sVChatRoomId
p835
I0
sVIsOwner
p836
I0
sVHideInputBarFlag
p837
I0
sVEncryChatRoomId
p838
g48
sVAttrStatus
p839
I137317
sVSnsFlag
p840
I17
sVMemberCount
p841
I0
sVOwnerUin
p842
I0
sVAlias
p843
g48
sVSignature
p844
V\u614e\u72ec
p845
sVContactFlag
p846
I1
sVNickName
p847
V\u5347
p848
sVRemarkPYQuanPin
p849
Vyuyuesheng
p850
sVHeadImgUrl
p851
V/cgi-bin/mmwebwx-bin/webwxgeticon?seq=660425030&username=@8f6508e9b6985fb8e96c8775468c2e70234526c7b5e9ef0619011e39c7035469&skey=@crypt_870a16cf_456d32d449b4c837b4f12f1e0fbe5017
p852
sVSex
p853
I1
sVStarFriend
p854
I0
sVStatues
p855
I0
sa(dp856
VUserName
p857
V@a15aecfbda40b46d2f93e171cf8747b55309850d4b854007622936da8dc6559d
p858
sVCity
p859
V\u671d\u9633
p860
sVDisplayName
p861
g48
sVUniFriend
p862
I0
sVMemberList
p863
(lp864
sVPYQuanPin
p865
Vjiayouernv
p866
sVRemarkPYInitial
p867
VLS
p868
sVUin
p869
I0
sVAppAccountFlag
p870
I0
sVVerifyFlag
p871
I0
sVProvince
p872
V\u5317\u4eac
p873
sVKeyWord
p874
g48
sVRemarkName
p875
V\u8001\u53d4
p876
sVPYInitial
p877
VJYEN
p878
sVChatRoomId
p879
I0
sVIsOwner
p880
I0
sVHideInputBarFlag
p881
I0
sVEncryChatRoomId
p882
g48
sVAttrStatus
p883
I102501
sVSnsFlag
p884
I17
sVMemberCount
p885
I0
sVOwnerUin
p886
I0
sVAlias
p887
g48
sVSignature
p888
V\u6212\u6307\u7ed9\u4f60\u6234\u5728\u4e86\u65e0\u540d\u6307\u5c31\u8981\u548c\u4f60\u76f8\u5b88\u4e00\u8f88\u5b50
p889
sVContactFlag
p890
I1
sVNickName
p891
V\u5bb6\u6709\u513f\u5973
p892
sVRemarkPYQuanPin
p893
Vlaoshu
p894
sVHeadImgUrl
p895
V/cgi-bin/mmwebwx-bin/webwxgeticon?seq=648843215&username=@a15aecfbda40b46d2f93e171cf8747b55309850d4b854007622936da8dc6559d&skey=@crypt_870a16cf_456d32d449b4c837b4f12f1e0fbe5017
p896
sVSex
p897
I1
sVStarFriend
p898
I0
sVStatues
p899
I0
sa(dp900
VUserName
p901
V@1cfdfe40966065a4ec7e23d75b632d78
p902
sVCity
p903
V\u6c88\u9633
p904
sVDisplayName
p905
g48
sVUniFriend
p906
I0
sVMemberList
p907
(lp908
sVPYQuanPin
p909
Vyuer
p910
sVRemarkPYInitial
p911
VYF
p912
sVUin
p913
I0
sVAppAccountFlag
p914
I0
sVVerifyFlag
p915
I0
sVProvince
p916
V\u8fbd\u5b81
p917
sVKeyWord
p918
Vyuy
p919
sVRemarkName
p920
V\u6c38\u798f
p921
sVPYInitial
p922
VYE
p923
sVChatRoomId
p924
I0
sVIsOwner
p925
I0
sVHideInputBarFlag
p926
I0
sVEncryChatRoomId
p927
g48
sVAttrStatus
p928
I33788005
sVSnsFlag
p929
I49
sVMemberCount
p930
I0
sVOwnerUin
p931
I0
sVAlias
p932
g48
sVSignature
p933
V\u4f60\u62e5\u6709\u4e00\u4e2a\u4ec0\u4e48\u6837\u7684\u5fc3\u6001\uff0c\u5c31\u4f1a\u770b\u5230\u4e00\u4e2a\u4ec0\u4e48\u6837\u7684\u4e16\u754c(\u2606_\u2606)
p934
sVContactFlag
p935
I1
sVNickName
p936
V\u9c7c\u513f
p937
sVRemarkPYQuanPin
p938
Vyongfu
p939
sVHeadImgUrl
p940
V/cgi-bin/mmwebwx-bin/webwxgeticon?seq=648850784&username=@1cfdfe40966065a4ec7e23d75b632d78&skey=@crypt_870a16cf_456d32d449b4c837b4f12f1e0fbe5017
p941
sVSex
p942
I1
sVStarFriend
p943
I0
sVStatues
p944
I0
sa(dp945
VUserName
p946
V@2562e19872242222dd71c1e8eb63d07927b47846cc51caf78fea31ed1cdc086b
p947
sVCity
p948
V\u6c88\u9633
p949
sVDisplayName
p950
g48
sVUniFriend
p951
I0
sVMemberList
p952
(lp953
sVPYQuanPin
p954
Vsowhat
p955
sVRemarkPYInitial
p956
VLFC
p957
sVUin
p958
I0
sVAppAccountFlag
p959
I0
sVVerifyFlag
p960
I0
sVProvince
p961
V\u8fbd\u5b81
p962
sVKeyWord
p963
g48
sVRemarkName
p964
V\u5218\u51e4\u5448
p965
sVPYInitial
p966
VSOWHAT
p967
sVChatRoomId
p968
I0
sVIsOwner
p969
I0
sVHideInputBarFlag
p970
I0
sVEncryChatRoomId
p971
g48
sVAttrStatus
p972
I104957
sVSnsFlag
p973
I1
sVMemberCount
p974
I0
sVOwnerUin
p975
I0
sVAlias
p976
g48
sVSignature
p977
V\u4e16\u754c\u90a3\u4e48\u810f\uff0c\u8c01\u6709\u8d44\u683c\u8bf4\u60b2\u4f24~
p978
sVContactFlag
p979
I1
sVNickName
p980
Vso what~
p981
sVRemarkPYQuanPin
p982
Vliufengcheng
p983
sVHeadImgUrl
p984
V/cgi-bin/mmwebwx-bin/webwxgeticon?seq=660433736&username=@2562e19872242222dd71c1e8eb63d07927b47846cc51caf78fea31ed1cdc086b&skey=@crypt_870a16cf_456d32d449b4c837b4f12f1e0fbe5017
p985
sVSex
p986
I2
sVStarFriend
p987
I0
sVStatues
p988
I0
sa(dp989
VUserName
p990
V@f6caa4abe156a555f234314a927f94c9
p991
sVCity
p992
V\u846b\u82a6\u5c9b
p993
sVDisplayName
p994
g48
sVUniFriend
p995
I0
sVMemberList
p996
(lp997
sVPYQuanPin
p998
Vzhuangshengmengdie
p999
sVRemarkPYInitial
p1000
VWJ
p1001
sVUin
p1002
I0
sVAppAccountFlag
p1003
I0
sVVerifyFlag
p1004
I0
sVProvince
p1005
V\u8fbd\u5b81
p1006
sVKeyWord
p1007
Vwj5
p1008
sVRemarkName
p1009
V\u738b\u575a
p1010
sVPYInitial
p1011
VZSMD
p1012
sVChatRoomId
p1013
I0
sVIsOwner
p1014
I0
sVHideInputBarFlag
p1015
I0
sVEncryChatRoomId
p1016
g48
sVAttrStatus
p1017
I135207
sVSnsFlag
p1018
I17
sVMemberCount
p1019
I0
sVOwnerUin
p1020
I0
sVAlias
p1021
g48
sVSignature
p1022
g48
sVContactFlag
p1023
I1
sVNickName
p1024
V\u5e84\u751f\u68a6\u8776
p1025
sVRemarkPYQuanPin
p1026
Vwangjian
p1027
sVHeadImgUrl
p1028
V/cgi-bin/mmwebwx-bin/webwxgeticon?seq=660443587&username=@f6caa4abe156a555f234314a927f94c9&skey=@crypt_870a16cf_456d32d449b4c837b4f12f1e0fbe5017
p1029
sVSex
p1030
I1
sVStarFriend
p1031
I0
sVStatues
p1032
I0
sa(dp1033
VUserName
p1034
V@754ea21cdc1e1e70892024e636ce9c1b
p1035
sVCity
p1036
V\u5927\u8fde
p1037
sVDisplayName
p1038
g48
sVUniFriend
p1039
I0
sVMemberList
p1040
(lp1041
sVPYQuanPin
p1042
Vqigehaomingzhennan
p1043
sVRemarkPYInitial
p1044
VLG
p1045
sVUin
p1046
I0
sVAppAccountFlag
p1047
I0
sVVerifyFlag
p1048
I0
sVProvince
p1049
V\u8fbd\u5b81
p1050
sVKeyWord
p1051
Vxia
p1052
sVRemarkName
p1053
V\u9f99\u54e5
p1054
sVPYInitial
p1055
VQGHMZN
p1056
sVChatRoomId
p1057
I0
sVIsOwner
p1058
I0
sVHideInputBarFlag
p1059
I0
sVEncryChatRoomId
p1060
g48
sVAttrStatus
p1061
L2147595767L
sVSnsFlag
p1062
I49
sVMemberCount
p1063
I0
sVOwnerUin
p1064
I0
sVAlias
p1065
g48
sVSignature
p1066
V\u4f60\u82e5\u5b89\u597d\uff0c\u4fbf\u662f\u6674\u5929\u3002\u60c5\u4e0d\u77e5\u6240\u8d77\uff0c\u4e00\u5f80\u800c\u6df1\u3002
p1067
sVContactFlag
p1068
I1
sVNickName
p1069
V\u8d77\u4e2a\u597d\u540d\u771f\u96be
p1070
sVRemarkPYQuanPin
p1071
Vlongge
p1072
sVHeadImgUrl
p1073
V/cgi-bin/mmwebwx-bin/webwxgeticon?seq=648784334&username=@754ea21cdc1e1e70892024e636ce9c1b&skey=@crypt_870a16cf_456d32d449b4c837b4f12f1e0fbe5017
p1074
sVSex
p1075
I1
sVStarFriend
p1076
I0
sVStatues
p1077
I0
sa(dp1078
VUserName
p1079
V@47c4d164d4ed8cecf0b6328ac0d12d83d5fd0382f7b3e005cacec18047b9aa26
p1080
sVCity
p1081
V\u79e6\u7687\u5c9b
p1082
sVDisplayName
p1083
g48
sVUniFriend
p1084
I0
sVMemberList
p1085
(lp1086
sVPYQuanPin
p1087
Vwangxiaoyu
p1088
sVRemarkPYInitial
p1089
VWXY
p1090
sVUin
p1091
I0
sVAppAccountFlag
p1092
I0
sVVerifyFlag
p1093
I0
sVProvince
p1094
V\u6cb3\u5317
p1095
sVKeyWord
p1096
g48
sVRemarkName
p1097
V\u738b\u6653\u96e8
p1098
sVPYInitial
p1099
VWXY
p1100
sVChatRoomId
p1101
I0
sVIsOwner
p1102
I0
sVHideInputBarFlag
p1103
I0
sVEncryChatRoomId
p1104
g48
sVAttrStatus
p1105
I135653
sVSnsFlag
p1106
I1
sVMemberCount
p1107
I0
sVOwnerUin
p1108
I0
sVAlias
p1109
g48
sVSignature
p1110
g48
sVContactFlag
p1111
I1
sVNickName
p1112
V\u738b\u6653\u96e8
p1113
sVRemarkPYQuanPin
p1114
Vwangxiaoyu
p1115
sVHeadImgUrl
p1116
V/cgi-bin/mmwebwx-bin/webwxgeticon?seq=660443249&username=@47c4d164d4ed8cecf0b6328ac0d12d83d5fd0382f7b3e005cacec18047b9aa26&skey=@crypt_870a16cf_456d32d449b4c837b4f12f1e0fbe5017
p1117
sVSex
p1118
I1
sVStarFriend
p1119
I0
sVStatues
p1120
I0
sa(dp1121
VUserName
p1122
V@f3767bcafb12fd1970c008d3518680d9
p1123
sVCity
p1124
V\u4e1c\u57ce
p1125
sVDisplayName
p1126
g48
sVUniFriend
p1127
I0
sVMemberList
p1128
(lp1129
sVPYQuanPin
p1130
Vlvyou
p1131
sVRemarkPYInitial
p1132
VLY
p1133
sVUin
p1134
I0
sVAppAccountFlag
p1135
I0
sVVerifyFlag
p1136
I0
sVProvince
p1137
V\u5317\u4eac
p1138
sVKeyWord
p1139
Vtou
p1140
sVRemarkName
p1141
V\u5415\u6e38
p1142
sVPYInitial
p1143
VLY
p1144
sVChatRoomId
p1145
I0
sVIsOwner
p1146
I0
sVHideInputBarFlag
p1147
I0
sVEncryChatRoomId
p1148
g48
sVAttrStatus
p1149
I233575
sVSnsFlag
p1150
I17
sVMemberCount
p1151
I0
sVOwnerUin
p1152
I0
sVAlias
p1153
g48
sVSignature
p1154
V\u505a\u6700\u597d\u7684\u81ea\u5df1
p1155
sVContactFlag
p1156
I1
sVNickName
p1157
V\u5415\u6e38
p1158
sVRemarkPYQuanPin
p1159
Vlvyou
p1160
sVHeadImgUrl
p1161
V/cgi-bin/mmwebwx-bin/webwxgeticon?seq=648840869&username=@f3767bcafb12fd1970c008d3518680d9&skey=@crypt_870a16cf_456d32d449b4c837b4f12f1e0fbe5017
p1162
sVSex
p1163
I1
sVStarFriend
p1164
I0
sVStatues
p1165
I0
sa(dp1166
VUserName
p1167
V@3b91d69f29772300a82bd5a3289a653114155afb38e41fc3315949803327eafa
p1168
sVCity
p1169
V\u5927\u8fde
p1170
sVDisplayName
p1171
g48
sVUniFriend
p1172
I0
sVMemberList
p1173
(lp1174
sVPYQuanPin
p1175
Vbinggunyigenliangmaowu
p1176
sVRemarkPYInitial
p1177
VZXS
p1178
sVUin
p1179
I0
sVAppAccountFlag
p1180
I0
sVVerifyFlag
p1181
I0
sVProvince
p1182
V\u8fbd\u5b81
p1183
sVKeyWord
p1184
g48
sVRemarkName
p1185
V\u5f20\u65b0\u6c34
p1186
sVPYInitial
p1187
VBGYGLMW
p1188
sVChatRoomId
p1189
I0
sVIsOwner
p1190
I0
sVHideInputBarFlag
p1191
I0
sVEncryChatRoomId
p1192
g48
sVAttrStatus
p1193
I33796197
sVSnsFlag
p1194
I145
sVMemberCount
p1195
I0
sVOwnerUin
p1196
I0
sVAlias
p1197
g48
sVSignature
p1198
V\u8eab\u5728\u4ed6\u4e61\uff0c\u5fc3\u5728\u8def\u4e0a\u3002\u3002\u3002
p1199
sVContactFlag
p1200
I5
sVNickName
p1201
V\u51b0\u68cd\u4e00\u6839\u4e24\u6bdb\u4e94\u3002
p1202
sVRemarkPYQuanPin
p1203
Vzhangxinshui
p1204
sVHeadImgUrl
p1205
V/cgi-bin/mmwebwx-bin/webwxgeticon?seq=660446033&username=@3b91d69f29772300a82bd5a3289a653114155afb38e41fc3315949803327eafa&skey=@crypt_870a16cf_456d32d449b4c837b4f12f1e0fbe5017
p1206
sVSex
p1207
I1
sVStarFriend
p1208
I0
sVStatues
p1209
I0
sa(dp1210
VUserName
p1211
V@944db4b003ac2968c073e178c9a5792a5f5e72f58506eff3ecbfc62e5368e479
p1212
sVCity
p1213
V\u5927\u8fde
p1214
sVDisplayName
p1215
g48
sVUniFriend
p1216
I0
sVMemberList
p1217
(lp1218
sVPYQuanPin
p1219
Vxiaojiujiu
p1220
sVRemarkPYInitial
p1221
VWS
p1222
sVUin
p1223
I0
sVAppAccountFlag
p1224
I0
sVVerifyFlag
p1225
I0
sVProvince
p1226
V\u8fbd\u5b81
p1227
sVKeyWord
p1228
g48
sVRemarkName
p1229
V\u738b\u677e
p1230
sVPYInitial
p1231
VXJJ
p1232
sVChatRoomId
p1233
I0
sVIsOwner
p1234
I0
sVHideInputBarFlag
p1235
I0
sVEncryChatRoomId
p1236
g48
sVAttrStatus
p1237
I99431
sVSnsFlag
p1238
I17
sVMemberCount
p1239
I0
sVOwnerUin
p1240
I0
sVAlias
p1241
g48
sVSignature
p1242
g48
sVContactFlag
p1243
I1
sVNickName
p1244
V\u25b2\u5c0f\u4e5d\u4e5d\u3001
p1245
sVRemarkPYQuanPin
p1246
Vwangsong
p1247
sVHeadImgUrl
p1248
V/cgi-bin/mmwebwx-bin/webwxgeticon?seq=660443273&username=@944db4b003ac2968c073e178c9a5792a5f5e72f58506eff3ecbfc62e5368e479&skey=@crypt_870a16cf_456d32d449b4c837b4f12f1e0fbe5017
p1249
sVSex
p1250
I2
sVStarFriend
p1251
I0
sVStatues
p1252
I0
sa(dp1253
VUserName
p1254
V@90d50f31ce025e6ceb137d0da8dcf4cbe740d706a902ae4c957418e2690cb047
p1255
sVCity
p1256
V\u5eca\u574a
p1257
sVDisplayName
p1258
g48
sVUniFriend
p1259
I0
sVMemberList
p1260
(lp1261
sVPYQuanPin
p1262
Vpandong
p1263
sVRemarkPYInitial
p1264
VGRX
p1265
sVUin
p1266
I0
sVAppAccountFlag
p1267
I0
sVVerifyFlag
p1268
I0
sVProvince
p1269
V\u6cb3\u5317
p1270
sVKeyWord
p1271
g48
sVRemarkName
p1272
V\u9ad8\u8363\u8f69
p1273
sVPYInitial
p1274
VPD
p1275
sVChatRoomId
p1276
I0
sVIsOwner
p1277
I0
sVHideInputBarFlag
p1278
I0
sVEncryChatRoomId
p1279
g48
sVAttrStatus
p1280
I33624103
sVSnsFlag
p1281
I17
sVMemberCount
p1282
I0
sVOwnerUin
p1283
I0
sVAlias
p1284
g48
sVSignature
p1285
V\u60f3\u8981\u638c\u63e1\u4e00\u95e8\u9762\u5411\u5de5\u8d44\u7684\u8bed\u8a00\u3002
p1286
sVContactFlag
p1287
I1
sVNickName
p1288
V\u76fc\u4e1c
p1289
sVRemarkPYQuanPin
p1290
Vgaorongxuan
p1291
sVHeadImgUrl
p1292
V/cgi-bin/mmwebwx-bin/webwxgeticon?seq=660446844&username=@90d50f31ce025e6ceb137d0da8dcf4cbe740d706a902ae4c957418e2690cb047&skey=@crypt_870a16cf_456d32d449b4c837b4f12f1e0fbe5017
p1293
sVSex
p1294
I1
sVStarFriend
p1295
I0
sVStatues
p1296
I0
sa(dp1297
VUserName
p1298
V@b7a5b4d0512ae7d963e53688be912c38cd6c3fa56bf7f0de220037f2decece68
p1299
sVCity
p1300
V\u9526\u5dde
p1301
sVDisplayName
p1302
g48
sVUniFriend
p1303
I0
sVMemberList
p1304
(lp1305
sVPYQuanPin
p1306
Vsongdawen
p1307
sVRemarkPYInitial
p1308
VSDW
p1309
sVUin
p1310
I0
sVAppAccountFlag
p1311
I0
sVVerifyFlag
p1312
I0
sVProvince
p1313
V\u8fbd\u5b81
p1314
sVKeyWord
p1315
g48
sVRemarkName
p1316
V\u5b8b\u5927\u6587
p1317
sVPYInitial
p1318
VSDW
p1319
sVChatRoomId
p1320
I0
sVIsOwner
p1321
I0
sVHideInputBarFlag
p1322
I0
sVEncryChatRoomId
p1323
g48
sVAttrStatus
p1324
I102501
sVSnsFlag
p1325
I17
sVMemberCount
p1326
I0
sVOwnerUin
p1327
I0
sVAlias
p1328
g48
sVSignature
p1329
V18841676930
p1330
sVContactFlag
p1331
I1
sVNickName
p1332
V\u5b8b\u5927\u6587
p1333
sVRemarkPYQuanPin
p1334
Vsongdawen
p1335
sVHeadImgUrl
p1336
V/cgi-bin/mmwebwx-bin/webwxgeticon?seq=660442335&username=@b7a5b4d0512ae7d963e53688be912c38cd6c3fa56bf7f0de220037f2decece68&skey=@crypt_870a16cf_456d32d449b4c837b4f12f1e0fbe5017
p1337
sVSex
p1338
I1
sVStarFriend
p1339
I0
sVStatues
p1340
I0
sa(dp1341
VUserName
p1342
V@0b9dd2961d91ff4e3a83d6de81109c9b0ea17bcabae5b5b7a61983364d902675
p1343
sVCity
p1344
V\u5927\u8fde
p1345
sVDisplayName
p1346
g48
sVUniFriend
p1347
I0
sVMemberList
p1348
(lp1349
sVPYQuanPin
p1350
VJason
p1351
sVRemarkPYInitial
p1352
g48
sVUin
p1353
I0
sVAppAccountFlag
p1354
I0
sVVerifyFlag
p1355
I0
sVProvince
p1356
V\u8fbd\u5b81
p1357
sVKeyWord
p1358
g48
sVRemarkName
p1359
g48
sVPYInitial
p1360
VJASON
p1361
sVChatRoomId
p1362
I0
sVIsOwner
p1363
I0
sVHideInputBarFlag
p1364
I0
sVEncryChatRoomId
p1365
g48
sVAttrStatus
p1366
I4283
sVSnsFlag
p1367
I16
sVMemberCount
p1368
I0
sVOwnerUin
p1369
I0
sVAlias
p1370
g48
sVSignature
p1371
g48
sVContactFlag
p1372
I1
sVNickName
p1373
VJason
p1374
sVRemarkPYQuanPin
p1375
g48
sVHeadImgUrl
p1376
V/cgi-bin/mmwebwx-bin/webwxgeticon?seq=620901478&username=@0b9dd2961d91ff4e3a83d6de81109c9b0ea17bcabae5b5b7a61983364d902675&skey=@crypt_870a16cf_456d32d449b4c837b4f12f1e0fbe5017
p1377
sVSex
p1378
I1
sVStarFriend
p1379
I0
sVStatues
p1380
I0
sa(dp1381
VUserName
p1382
V@15fe0fe05245ee65443ff9db1f6ffa4eed574c4bb7624b40181a4f6fe210c139
p1383
sVCity
p1384
V\u671d\u9633
p1385
sVDisplayName
p1386
g48
sVUniFriend
p1387
I0
sVMemberList
p1388
(lp1389
sVPYQuanPin
p1390
Vweilai
p1391
sVRemarkPYInitial
p1392
VES
p1393
sVUin
p1394
I0
sVAppAccountFlag
p1395
I0
sVVerifyFlag
p1396
I0
sVProvince
p1397
V\u5317\u4eac
p1398
sVKeyWord
p1399
g48
sVRemarkName
p1400
V\u4e8c\u53d4
p1401
sVPYInitial
p1402
VWL
p1403
sVChatRoomId
p1404
I0
sVIsOwner
p1405
I0
sVHideInputBarFlag
p1406
I0
sVEncryChatRoomId
p1407
g48
sVAttrStatus
p1408
I45157
sVSnsFlag
p1409
I17
sVMemberCount
p1410
I0
sVOwnerUin
p1411
I0
sVAlias
p1412
g48
sVSignature
p1413
V\u840c
p1414
sVContactFlag
p1415
I1
sVNickName
p1416
V\u672a\u6765
p1417
sVRemarkPYQuanPin
p1418
Vershu
p1419
sVHeadImgUrl
p1420
V/cgi-bin/mmwebwx-bin/webwxgeticon?seq=643030137&username=@15fe0fe05245ee65443ff9db1f6ffa4eed574c4bb7624b40181a4f6fe210c139&skey=@crypt_870a16cf_456d32d449b4c837b4f12f1e0fbe5017
p1421
sVSex
p1422
I1
sVStarFriend
p1423
I0
sVStatues
p1424
I0
sa(dp1425
VUserName
p1426
V@c6b61febe17b7f5708cc10f680d4fb1e
p1427
sVCity
p1428
V\u73e0\u6d77
p1429
sVDisplayName
p1430
g48
sVUniFriend
p1431
I0
sVMemberList
p1432
(lp1433
sVPYQuanPin
p1434
Vjuanzilanwenfushi
p1435
sVRemarkPYInitial
p1436
VLXJ
p1437
sVUin
p1438
I0
sVAppAccountFlag
p1439
I0
sVVerifyFlag
p1440
I0
sVProvince
p1441
V\u5e7f\u4e1c
p1442
sVKeyWord
p1443
Vjua
p1444
sVRemarkName
p1445
V\u5218\u6653\u5a1f
p1446
sVPYInitial
p1447
VJZLWFS
p1448
sVChatRoomId
p1449
I0
sVIsOwner
p1450
I0
sVHideInputBarFlag
p1451
I0
sVEncryChatRoomId
p1452
g48
sVAttrStatus
p1453
I12391
sVSnsFlag
p1454
I17
sVMemberCount
p1455
I0
sVOwnerUin
p1456
I0
sVAlias
p1457
g48
sVSignature
p1458
V\u5ba0\u8fb1\u4e0d\u60ca\uff0c\u53bb\u7559\u65e0\u610f
p1459
sVContactFlag
p1460
I1
sVNickName
p1461
V\u5a1f\u5b50\u5170\u7eb9\u670d\u9970
p1462
sVRemarkPYQuanPin
p1463
Vliuxiaojuan
p1464
sVHeadImgUrl
p1465
V/cgi-bin/mmwebwx-bin/webwxgeticon?seq=645194416&username=@c6b61febe17b7f5708cc10f680d4fb1e&skey=@crypt_870a16cf_456d32d449b4c837b4f12f1e0fbe5017
p1466
sVSex
p1467
I1
sVStarFriend
p1468
I0
sVStatues
p1469
I0
sa(dp1470
VUserName
p1471
V@55fd03139510266c91ab5522a0398e29858840a1c496c6e7f94d87e643274fa9
p1472
sVCity
p1473
V\u5927\u8fde
p1474
sVDisplayName
p1475
g48
sVUniFriend
p1476
I0
sVMemberList
p1477
(lp1478
sVPYQuanPin
p1479
Vzisu
p1480
sVRemarkPYInitial
p1481
VJJ
p1482
sVUin
p1483
I0
sVAppAccountFlag
p1484
I0
sVVerifyFlag
p1485
I0
sVProvince
p1486
V\u8fbd\u5b81
p1487
sVKeyWord
p1488
g48
sVRemarkName
p1489
V\u4fca\u59d0
p1490
sVPYInitial
p1491
VZS
p1492
sVChatRoomId
p1493
I0
sVIsOwner
p1494
I0
sVHideInputBarFlag
p1495
I0
sVEncryChatRoomId
p1496
g48
sVAttrStatus
p1497
I103205
sVSnsFlag
p1498
I1
sVMemberCount
p1499
I0
sVOwnerUin
p1500
I0
sVAlias
p1501
g48
sVSignature
p1502
g48
sVContactFlag
p1503
I1
sVNickName
p1504
V\u7d2b\u82cf
p1505
sVRemarkPYQuanPin
p1506
Vjunjie
p1507
sVHeadImgUrl
p1508
V/cgi-bin/mmwebwx-bin/webwxgeticon?seq=636998733&username=@55fd03139510266c91ab5522a0398e29858840a1c496c6e7f94d87e643274fa9&skey=@crypt_870a16cf_456d32d449b4c837b4f12f1e0fbe5017
p1509
sVSex
p1510
I2
sVStarFriend
p1511
I0
sVStatues
p1512
I0
sa(dp1513
VUserName
p1514
V@921c1bba8b8316c777f41001f2b8aeef478b19b2d46ba3bd1535be18de001476
p1515
sVCity
p1516
V\u5927\u8fde
p1517
sVDisplayName
p1518
g48
sVUniFriend
p1519
I0
sVMemberList
p1520
(lp1521
sVPYQuanPin
p1522
Vweixiaodanshang
p1523
sVRemarkPYInitial
p1524
VMFT
p1525
sVUin
p1526
I0
sVAppAccountFlag
p1527
I0
sVVerifyFlag
p1528
I0
sVProvince
p1529
V\u8fbd\u5b81
p1530
sVKeyWord
p1531
g48
sVRemarkName
p1532
V\u95e8\u798f\u6d9b
p1533
sVPYInitial
p1534
VWXDS
p1535
sVChatRoomId
p1536
I0
sVIsOwner
p1537
I0
sVHideInputBarFlag
p1538
I0
sVEncryChatRoomId
p1539
g48
sVAttrStatus
p1540
I4133
sVSnsFlag
p1541
I17
sVMemberCount
p1542
I0
sVOwnerUin
p1543
I0
sVAlias
p1544
g48
sVSignature
p1545
g48
sVContactFlag
p1546
I1
sVNickName
p1547
V\u5fae\u7b11  \u3001\u6de1\u4f24
p1548
sVRemarkPYQuanPin
p1549
Vmenfutao
p1550
sVHeadImgUrl
p1551
V/cgi-bin/mmwebwx-bin/webwxgeticon?seq=660449234&username=@921c1bba8b8316c777f41001f2b8aeef478b19b2d46ba3bd1535be18de001476&skey=@crypt_870a16cf_456d32d449b4c837b4f12f1e0fbe5017
p1552
sVSex
p1553
I1
sVStarFriend
p1554
I0
sVStatues
p1555
I0
sa(dp1556
VUserName
p1557
V@317b78141646dc6fd369ffa22660f748ca6980a7bfc0ad2cb2c02696c3271757
p1558
sVCity
p1559
V\u978d\u5c71
p1560
sVDisplayName
p1561
g48
sVUniFriend
p1562
I0
sVMemberList
p1563
(lp1564
sVPYQuanPin
p1565
Vyexuhuigenghao
p1566
sVRemarkPYInitial
p1567
VXH
p1568
sVUin
p1569
I0
sVAppAccountFlag
p1570
I0
sVVerifyFlag
p1571
I0
sVProvince
p1572
V\u8fbd\u5b81
p1573
sVKeyWord
p1574
g48
sVRemarkName
p1575
V\u5f90\u6167
p1576
sVPYInitial
p1577
VYXHGH
p1578
sVChatRoomId
p1579
I0
sVIsOwner
p1580
I0
sVHideInputBarFlag
p1581
I0
sVEncryChatRoomId
p1582
g48
sVAttrStatus
p1583
I235709
sVSnsFlag
p1584
I17
sVMemberCount
p1585
I0
sVOwnerUin
p1586
I0
sVAlias
p1587
g48
sVSignature
p1588
V\u739b\u838e\u59ae\u5a1c\u9762\u819c\u4ee3\u7406\uff0c\u6709\u9700\u8981\u7528\u9762\u819c\u7684\u53ef\u4ee5\u2795\u6211
p1589
sVContactFlag
p1590
I1
sVNickName
p1591
V\u4e5f\u5f90\u3001\u6167\u66f4\u597d
p1592
sVRemarkPYQuanPin
p1593
Vxuhui
p1594
sVHeadImgUrl
p1595
V/cgi-bin/mmwebwx-bin/webwxgeticon?seq=660446602&username=@317b78141646dc6fd369ffa22660f748ca6980a7bfc0ad2cb2c02696c3271757&skey=@crypt_870a16cf_456d32d449b4c837b4f12f1e0fbe5017
p1596
sVSex
p1597
I2
sVStarFriend
p1598
I0
sVStatues
p1599
I0
sa(dp1600
VUserName
p1601
V@c5e6cc756fbd0c295501efc42128f73848a52ecef2311bdf6baf3add14c1e7c7
p1602
sVCity
p1603
V\u5b81\u6ce2
p1604
sVDisplayName
p1605
g48
sVUniFriend
p1606
I0
sVMemberList
p1607
(lp1608
sVPYQuanPin
p1609
Vwuyou
p1610
sVRemarkPYInitial
p1611
VWY
p1612
sVUin
p1613
I0
sVAppAccountFlag
p1614
I0
sVVerifyFlag
p1615
I0
sVProvince
p1616
V\u6d59\u6c5f
p1617
sVKeyWord
p1618
g48
sVRemarkName
p1619
V\u5434\u4f18
p1620
sVPYInitial
p1621
VWY
p1622
sVChatRoomId
p1623
I0
sVIsOwner
p1624
I0
sVHideInputBarFlag
p1625
I0
sVEncryChatRoomId
p1626
g48
sVAttrStatus
p1627
I233829
sVSnsFlag
p1628
I17
sVMemberCount
p1629
I0
sVOwnerUin
p1630
I0
sVAlias
p1631
g48
sVSignature
p1632
V\u4ee5\u524d\u633a\u597d\u7684   \u60f3\u7684\u5c11  \u7761\u5f97\u65e9      \u4e5f\u559c\u6b22\u7b11
p1633
sVContactFlag
p1634
I5
sVNickName
p1635
V\u65e0\u5fe7
p1636
sVRemarkPYQuanPin
p1637
Vwuyou
p1638
sVHeadImgUrl
p1639
V/cgi-bin/mmwebwx-bin/webwxgeticon?seq=660441812&username=@c5e6cc756fbd0c295501efc42128f73848a52ecef2311bdf6baf3add14c1e7c7&skey=@crypt_870a16cf_456d32d449b4c837b4f12f1e0fbe5017
p1640
sVSex
p1641
I1
sVStarFriend
p1642
I0
sVStatues
p1643
I0
sa(dp1644
VUserName
p1645
V@2622105ca16f05fa98f53e1cc35baec7
p1646
sVCity
p1647
V\u5927\u8fde
p1648
sVDisplayName
p1649
g48
sVUniFriend
p1650
I0
sVMemberList
p1651
(lp1652
sVPYQuanPin
p1653
Vbenben
p1654
sVRemarkPYInitial
p1655
VKJ
p1656
sVUin
p1657
I0
sVAppAccountFlag
p1658
I0
sVVerifyFlag
p1659
I0
sVProvince
p1660
V\u8fbd\u5b81
p1661
sVKeyWord
p1662
Vben
p1663
sVRemarkName
p1664
V\u5764\u59d0
p1665
sVPYInitial
p1666
VBB
p1667
sVChatRoomId
p1668
I0
sVIsOwner
p1669
I0
sVHideInputBarFlag
p1670
I0
sVEncryChatRoomId
p1671
g48
sVAttrStatus
p1672
I233575
sVSnsFlag
p1673
I17
sVMemberCount
p1674
I0
sVOwnerUin
p1675
I0
sVAlias
p1676
g48
sVSignature
p1677
g48
sVContactFlag
p1678
I1
sVNickName
p1679
V\u7b28\u7b28
p1680
sVRemarkPYQuanPin
p1681
Vkunjie
p1682
sVHeadImgUrl
p1683
V/cgi-bin/mmwebwx-bin/webwxgeticon?seq=648781266&username=@2622105ca16f05fa98f53e1cc35baec7&skey=@crypt_870a16cf_456d32d449b4c837b4f12f1e0fbe5017
p1684
sVSex
p1685
I2
sVStarFriend
p1686
I0
sVStatues
p1687
I0
sa(dp1688
VUserName
p1689
V@fb700b04a56cccb7dabae0f0bb7c52e9496766d00238f593f429c59725a10c81
p1690
sVCity
p1691
V\u5927\u8fde
p1692
sVDisplayName
p1693
g48
sVUniFriend
p1694
I0
sVMemberList
p1695
(lp1696
sVPYQuanPin
p1697
Vchengcheng
p1698
sVRemarkPYInitial
p1699
VSCC
p1700
sVUin
p1701
I0
sVAppAccountFlag
p1702
I0
sVVerifyFlag
p1703
I0
sVProvince
p1704
V\u8fbd\u5b81
p1705
sVKeyWord
p1706
Vson
p1707
sVRemarkName
p1708
V\u5b8b\u7a0b\u7a0b
p1709
sVPYInitial
p1710
VCC
p1711
sVChatRoomId
p1712
I0
sVIsOwner
p1713
I0
sVHideInputBarFlag
p1714
I0
sVEncryChatRoomId
p1715
g48
sVAttrStatus
p1716
I98751
sVSnsFlag
p1717
I17
sVMemberCount
p1718
I0
sVOwnerUin
p1719
I0
sVAlias
p1720
g48
sVSignature
p1721
g48
sVContactFlag
p1722
I1
sVNickName
p1723
V\u7a0b\u7a0b
p1724
sVRemarkPYQuanPin
p1725
Vsongchengcheng
p1726
sVHeadImgUrl
p1727
V/cgi-bin/mmwebwx-bin/webwxgeticon?seq=660418521&username=@fb700b04a56cccb7dabae0f0bb7c52e9496766d00238f593f429c59725a10c81&skey=@crypt_870a16cf_456d32d449b4c837b4f12f1e0fbe5017
p1728
sVSex
p1729
I2
sVStarFriend
p1730
I0
sVStatues
p1731
I0
sa(dp1732
VUserName
p1733
V@4a95c72113f2a3b89c9c845b6d4ab5b17c53dd5e59ba05dfd3315b1f4dcd79d9
p1734
sVCity
p1735
V\u5927\u8fde
p1736
sVDisplayName
p1737
g48
sVUniFriend
p1738
I0
sVMemberList
p1739
(lp1740
sVPYQuanPin
p1741
Vyouzihenyouren
p1742
sVRemarkPYInitial
p1743
VXX
p1744
sVUin
p1745
I0
sVAppAccountFlag
p1746
I0
sVVerifyFlag
p1747
I0
sVProvince
p1748
V\u8fbd\u5b81
p1749
sVKeyWord
p1750
g48
sVRemarkName
p1751
V\u946b\u946b
p1752
sVPYInitial
p1753
VYZHYR
p1754
sVChatRoomId
p1755
I0
sVIsOwner
p1756
I0
sVHideInputBarFlag
p1757
I0
sVEncryChatRoomId
p1758
g48
sVAttrStatus
p1759
I4197
sVSnsFlag
p1760
I1
sVMemberCount
p1761
I0
sVOwnerUin
p1762
I0
sVAlias
p1763
g48
sVSignature
p1764
V\u6d6e\u751f\u957f\u6068\u6b22\u5a31\u5c11\uff0c\u80af\u7231\u5343\u91d1\u8f7b\u4e00\u7b11.
p1765
sVContactFlag
p1766
I1
sVNickName
p1767
V\u67da\u5b50\u5f88\u8bf1\u4eba.
p1768
sVRemarkPYQuanPin
p1769
Vxinxin
p1770
sVHeadImgUrl
p1771
V/cgi-bin/mmwebwx-bin/webwxgeticon?seq=660443551&username=@4a95c72113f2a3b89c9c845b6d4ab5b17c53dd5e59ba05dfd3315b1f4dcd79d9&skey=@crypt_870a16cf_456d32d449b4c837b4f12f1e0fbe5017
p1772
sVSex
p1773
I1
sVStarFriend
p1774
I0
sVStatues
p1775
I0
sa(dp1776
VUserName
p1777
V@f040edf218e875d7c46e6dc2ad6b24a8c07721c48c9bfae02fae290a93321dad
p1778
sVCity
p1779
V\u6c88\u9633
p1780
sVDisplayName
p1781
g48
sVUniFriend
p1782
I0
sVMemberList
p1783
(lp1784
sVPYQuanPin
p1785
Vsunmengzhongyangkongdiao
p1786
sVRemarkPYInitial
p1787
VSM
p1788
sVUin
p1789
I0
sVAppAccountFlag
p1790
I0
sVVerifyFlag
p1791
I0
sVProvince
p1792
V\u8fbd\u5b81
p1793
sVKeyWord
p1794
g48
sVRemarkName
p1795
V\u5b59\u8499
p1796
sVPYInitial
p1797
VSMZYKD
p1798
sVChatRoomId
p1799
I0
sVIsOwner
p1800
I0
sVHideInputBarFlag
p1801
I0
sVEncryChatRoomId
p1802
g48
sVAttrStatus
p1803
I102501
sVSnsFlag
p1804
I17
sVMemberCount
p1805
I0
sVOwnerUin
p1806
I0
sVAlias
p1807
g48
sVSignature
p1808
V\u5bb6\u7528 \u5546\u7528 \u4e2d\u592e\u7a7a\u8c03  \u65b0\u98ce  \u51c0\u6c34  Tel\uff1a13125432667
p1809
sVContactFlag
p1810
I1
sVNickName
p1811
V\u5b59\u8499-\u4e2d\u592e\u7a7a\u8c03
p1812
sVRemarkPYQuanPin
p1813
Vsunmeng
p1814
sVHeadImgUrl
p1815
V/cgi-bin/mmwebwx-bin/webwxgeticon?seq=648810299&username=@f040edf218e875d7c46e6dc2ad6b24a8c07721c48c9bfae02fae290a93321dad&skey=@crypt_870a16cf_456d32d449b4c837b4f12f1e0fbe5017
p1816
sVSex
p1817
I1
sVStarFriend
p1818
I0
sVStatues
p1819
I0
sa(dp1820
VUserName
p1821
V@63481b74688d767d0be5ed5fae5f7110c0c79cb3a318c0e0950b614b383446af
p1822
sVCity
p1823
V\u6c88\u9633
p1824
sVDisplayName
p1825
g48
sVUniFriend
p1826
I0
sVMemberList
p1827
(lp1828
sVPYQuanPin
p1829
Vshidizaixiaohandai
p1830
sVRemarkPYInitial
p1831
VWHN
p1832
sVUin
p1833
I0
sVAppAccountFlag
p1834
I0
sVVerifyFlag
p1835
I0
sVProvince
p1836
V\u8fbd\u5b81
p1837
sVKeyWord
p1838
g48
sVRemarkName
p1839
V\u738b\u660a\u6960
p1840
sVPYInitial
p1841
VSDZXHD
p1842
sVChatRoomId
p1843
I0
sVIsOwner
p1844
I0
sVHideInputBarFlag
p1845
I0
sVEncryChatRoomId
p1846
g48
sVAttrStatus
p1847
I233575
sVSnsFlag
p1848
I17
sVMemberCount
p1849
I0
sVOwnerUin
p1850
I0
sVAlias
p1851
g48
sVSignature
p1852
V\u4eca\u5929\u4ee5\u540e \u4eba\u751f\u65e0\u6570\u79cd\u53ef\u80fd\u2026\u2026
p1853
sVContactFlag
p1854
I1
sVNickName
p1855
V\u53f2\u8fea\u4ed4-\u5c0f\u97e9\u4ee3
p1856
sVRemarkPYQuanPin
p1857
Vwanghaonan
p1858
sVHeadImgUrl
p1859
V/cgi-bin/mmwebwx-bin/webwxgeticon?seq=660451251&username=@63481b74688d767d0be5ed5fae5f7110c0c79cb3a318c0e0950b614b383446af&skey=@crypt_870a16cf_456d32d449b4c837b4f12f1e0fbe5017
p1860
sVSex
p1861
I2
sVStarFriend
p1862
I0
sVStatues
p1863
I0
sa(dp1864
VUserName
p1865
V@9f0e5b793c53ca1277ad467eaa6f83e6e6b8b792b2cb456d7493c112aaab3063
p1866
sVCity
p1867
V\u6c88\u9633
p1868
sVDisplayName
p1869
g48
sVUniFriend
p1870
I0
sVMemberList
p1871
(lp1872
sVPYQuanPin
p1873
Vtao
p1874
sVRemarkPYInitial
p1875
VNCT
p1876
sVUin
p1877
I0
sVAppAccountFlag
p1878
I0
sVVerifyFlag
p1879
I0
sVProvince
p1880
V\u8fbd\u5b81
p1881
sVKeyWord
p1882
g48
sVRemarkName
p1883
V\u502a\u7a0b\u6d9b
p1884
sVPYInitial
p1885
VT
p1886
sVChatRoomId
p1887
I0
sVIsOwner
p1888
I0
sVHideInputBarFlag
p1889
I0
sVEncryChatRoomId
p1890
g48
sVAttrStatus
p1891
I102437
sVSnsFlag
p1892
I17
sVMemberCount
p1893
I0
sVOwnerUin
p1894
I0
sVAlias
p1895
g48
sVSignature
p1896
V\u6211\u7ed9\u4f60\u7684\u7231\uff0c\u4f60\u4e22\u5230\u4e86\u54ea\u91cc\u3002
p1897
sVContactFlag
p1898
I1
sVNickName
p1899
V\u6d9b
p1900
sVRemarkPYQuanPin
p1901
Vnichengtao
p1902
sVHeadImgUrl
p1903
V/cgi-bin/mmwebwx-bin/webwxgeticon?seq=660452557&username=@9f0e5b793c53ca1277ad467eaa6f83e6e6b8b792b2cb456d7493c112aaab3063&skey=@crypt_870a16cf_456d32d449b4c837b4f12f1e0fbe5017
p1904
sVSex
p1905
I1
sVStarFriend
p1906
I0
sVStatues
p1907
I0
sa(dp1908
VUserName
p1909
V@17c0755daf7e6bf07abe3721078785abc409f4c30c88021ff5ee0bb34f84206d
p1910
sVCity
p1911
V\u5546\u6d1b
p1912
sVDisplayName
p1913
g48
sVUniFriend
p1914
I0
sVMemberList
p1915
(lp1916
sVPYQuanPin
p1917
Vzhangjian
p1918
sVRemarkPYInitial
p1919
VZJ
p1920
sVUin
p1921
I0
sVAppAccountFlag
p1922
I0
sVVerifyFlag
p1923
I0
sVProvince
p1924
V\u9655\u897f
p1925
sVKeyWord
p1926
g48
sVRemarkName
p1927
V\u5f20\u5065
p1928
sVPYInitial
p1929
VZJ
p1930
sVChatRoomId
p1931
I0
sVIsOwner
p1932
I0
sVHideInputBarFlag
p1933
I0
sVEncryChatRoomId
p1934
g48
sVAttrStatus
p1935
I29799
sVSnsFlag
p1936
I17
sVMemberCount
p1937
I0
sVOwnerUin
p1938
I0
sVAlias
p1939
g48
sVSignature
p1940
V\u98ce\u96e8\u517c\u7a0b\uff0c\u4f55\u60e7\u8def\u8fdc\uff01
p1941
sVContactFlag
p1942
I1
sVNickName
p1943
V\u5f20\u5065
p1944
sVRemarkPYQuanPin
p1945
Vzhangjian
p1946
sVHeadImgUrl
p1947
V/cgi-bin/mmwebwx-bin/webwxgeticon?seq=660409928&username=@17c0755daf7e6bf07abe3721078785abc409f4c30c88021ff5ee0bb34f84206d&skey=@crypt_870a16cf_456d32d449b4c837b4f12f1e0fbe5017
p1948
sVSex
p1949
I1
sVStarFriend
p1950
I0
sVStatues
p1951
I0
sa(dp1952
VUserName
p1953
V@959e9e10ac866432bb48d00ccb7234d15d10da265adab2514545a057136de088
p1954
sVCity
p1955
VEdinburgh
p1956
sVDisplayName
p1957
g48
sVUniFriend
p1958
I0
sVMemberList
p1959
(lp1960
sVPYQuanPin
p1961
Vwumaer
p1962
sVRemarkPYInitial
p1963
VLGL
p1964
sVUin
p1965
I0
sVAppAccountFlag
p1966
I0
sVVerifyFlag
p1967
I0
sVProvince
p1968
VScotland
p1969
sVKeyWord
p1970
g48
sVRemarkName
p1971
V\u5218\u8d35\u6765
p1972
sVPYInitial
p1973
VWME
p1974
sVChatRoomId
p1975
I0
sVIsOwner
p1976
I0
sVHideInputBarFlag
p1977
I0
sVEncryChatRoomId
p1978
g48
sVAttrStatus
p1979
I16799741
sVSnsFlag
p1980
I17
sVMemberCount
p1981
I0
sVOwnerUin
p1982
I0
sVAlias
p1983
g48
sVSignature
p1984
V\u57cb\u9aa8\u5c82\u987b\u6851\u6893\u5730\uff0c\u4eba\u751f\u4f55\u5904\u4e0d\u9752\u5c71\u3002
p1985
sVContactFlag
p1986
I1
sVNickName
p1987
V\u4e94\u9ebb\u513f
p1988
sVRemarkPYQuanPin
p1989
Vliuguilai
p1990
sVHeadImgUrl
p1991
V/cgi-bin/mmwebwx-bin/webwxgeticon?seq=660452830&username=@959e9e10ac866432bb48d00ccb7234d15d10da265adab2514545a057136de088&skey=@crypt_870a16cf_456d32d449b4c837b4f12f1e0fbe5017
p1992
sVSex
p1993
I1
sVStarFriend
p1994
I0
sVStatues
p1995
I0
sa(dp1996
VUserName
p1997
V@0e7ba8bc75583eb01fad308da13a4748166d1d254d076188e0a23402c921053e
p1998
sVCity
p1999
g48
sVDisplayName
p2000
g48
sVUniFriend
p2001
I0
sVMemberList
p2002
(lp2003
sVPYQuanPin
p2004
Vwuganshaonv
p2005
sVRemarkPYInitial
p2006
VZMY
p2007
sVUin
p2008
I0
sVAppAccountFlag
p2009
I0
sVVerifyFlag
p2010
I0
sVProvince
p2011
g48
sVKeyWord
p2012
g48
sVRemarkName
p2013
V\u8d75\u7f8e\u5a9b
p2014
sVPYInitial
p2015
VWGSN
p2016
sVChatRoomId
p2017
I0
sVIsOwner
p2018
I0
sVHideInputBarFlag
p2019
I0
sVEncryChatRoomId
p2020
g48
sVAttrStatus
p2021
I102653
sVSnsFlag
p2022
I1
sVMemberCount
p2023
I0
sVOwnerUin
p2024
I0
sVAlias
p2025
g48
sVSignature
p2026
V\u6211\u662f\u4e16\u754c\u7684\u6591\u6593\u4f53/ \u81ea\u5df1\u7684\u6781\u7b80\u4e3b\u4e49/
p2027
sVContactFlag
p2028
I1
sVNickName
p2029
V\u65e0\u611f\u5c11\u5973
p2030
sVRemarkPYQuanPin
p2031
Vzhaomeiyuan
p2032
sVHeadImgUrl
p2033
V/cgi-bin/mmwebwx-bin/webwxgeticon?seq=660441804&username=@0e7ba8bc75583eb01fad308da13a4748166d1d254d076188e0a23402c921053e&skey=@crypt_870a16cf_456d32d449b4c837b4f12f1e0fbe5017
p2034
sVSex
p2035
I2
sVStarFriend
p2036
I0
sVStatues
p2037
I0
sa(dp2038
VUserName
p2039
V@ea268693991a90e5fd80d73f88c8cd541ce61bc711a6c76845cd8ff31677014c
p2040
sVCity
p2041
V\u5927\u8fde
p2042
sVDisplayName
p2043
g48
sVUniFriend
p2044
I0
sVMemberList
p2045
(lp2046
sVPYQuanPin
p2047
Vmuampzi
p2048
sVRemarkPYInitial
p2049
VLGB
p2050
sVUin
p2051
I0
sVAppAccountFlag
p2052
I0
sVVerifyFlag
p2053
I0
sVProvince
p2054
V\u8fbd\u5b81
p2055
sVKeyWord
p2056
g48
sVRemarkName
p2057
V\u674e\u56fd\u658c
p2058
sVPYInitial
p2059
VMAMPZ
p2060
sVChatRoomId
p2061
I0
sVIsOwner
p2062
I0
sVHideInputBarFlag
p2063
I0
sVEncryChatRoomId
p2064
g48
sVAttrStatus
p2065
I102693
sVSnsFlag
p2066
I1
sVMemberCount
p2067
I0
sVOwnerUin
p2068
I0
sVAlias
p2069
g48
sVSignature
p2070
g48
sVContactFlag
p2071
I1
sVNickName
p2072
V\u6728&amp;\u5b50
p2073
sVRemarkPYQuanPin
p2074
Vliguobin
p2075
sVHeadImgUrl
p2076
V/cgi-bin/mmwebwx-bin/webwxgeticon?seq=660452301&username=@ea268693991a90e5fd80d73f88c8cd541ce61bc711a6c76845cd8ff31677014c&skey=@crypt_870a16cf_456d32d449b4c837b4f12f1e0fbe5017
p2077
sVSex
p2078
I2
sVStarFriend
p2079
I0
sVStatues
p2080
I0
sa(dp2081
VUserName
p2082
V@9568b594c34be42c574fe047b1b846c060d73339bb378872bf43d010413cc043
p2083
sVCity
p2084
V\u671d\u9633
p2085
sVDisplayName
p2086
g48
sVUniFriend
p2087
I0
sVMemberList
p2088
(lp2089
sVPYQuanPin
p2090
V?dandanspanclassemojiemoji1f4a4span
p2091
sVRemarkPYInitial
p2092
VDD
p2093
sVUin
p2094
I0
sVAppAccountFlag
p2095
I0
sVVerifyFlag
p2096
I0
sVProvince
p2097
V\u5317\u4eac
p2098
sVKeyWord
p2099
g48
sVRemarkName
p2100
V\u4e39\u4e39
p2101
sVPYInitial
p2102
V?DDSPANCLASSEMOJIEMOJI1F4A4SPAN
p2103
sVChatRoomId
p2104
I0
sVIsOwner
p2105
I0
sVHideInputBarFlag
p2106
I0
sVEncryChatRoomId
p2107
g48
sVAttrStatus
p2108
I102437
sVSnsFlag
p2109
I1
sVMemberCount
p2110
I0
sVOwnerUin
p2111
I0
sVAlias
p2112
g48
sVSignature
p2113
V\u63a7\u5236\u60c5\u7eea\uff0c\u522b\u6d6a\u8d39\u4e86\u3002
p2114
sVContactFlag
p2115
I1
sVNickName
p2116
V\U0001f608\u4e39\u4e39\U0001f4a4
p2117
sVRemarkPYQuanPin
p2118
Vdandan
p2119
sVHeadImgUrl
p2120
V/cgi-bin/mmwebwx-bin/webwxgeticon?seq=660456759&username=@9568b594c34be42c574fe047b1b846c060d73339bb378872bf43d010413cc043&skey=@crypt_870a16cf_456d32d449b4c837b4f12f1e0fbe5017
p2121
sVSex
p2122
I2
sVStarFriend
p2123
I0
sVStatues
p2124
I0
sa(dp2125
VUserName
p2126
V@8307d2906c321de13eaf2561ce1796d2
p2127
sVCity
p2128
V\u6c88\u9633
p2129
sVDisplayName
p2130
g48
sVUniFriend
p2131
I0
sVMemberList
p2132
(lp2133
sVPYQuanPin
p2134
Vdisanrenchen
p2135
sVRemarkPYInitial
p2136
VQZJ
p2137
sVUin
p2138
I0
sVAppAccountFlag
p2139
I0
sVVerifyFlag
p2140
I0
sVProvince
p2141
V\u8fbd\u5b81
p2142
sVKeyWord
p2143
Vqzj
p2144
sVRemarkName
p2145
V\u9f50\u5fd7\u4f73
p2146
sVPYInitial
p2147
VDSRC
p2148
sVChatRoomId
p2149
I0
sVIsOwner
p2150
I0
sVHideInputBarFlag
p2151
I0
sVEncryChatRoomId
p2152
g48
sVAttrStatus
p2153
I2151
sVSnsFlag
p2154
I17
sVMemberCount
p2155
I0
sVOwnerUin
p2156
I0
sVAlias
p2157
g48
sVSignature
p2158
g48
sVContactFlag
p2159
I1
sVNickName
p2160
V\u7b2c\u4e09\u4eba\u79f0
p2161
sVRemarkPYQuanPin
p2162
Vqizhijia
p2163
sVHeadImgUrl
p2164
V/cgi-bin/mmwebwx-bin/webwxgeticon?seq=660431249&username=@8307d2906c321de13eaf2561ce1796d2&skey=@crypt_870a16cf_456d32d449b4c837b4f12f1e0fbe5017
p2165
sVSex
p2166
I1
sVStarFriend
p2167
I0
sVStatues
p2168
I0
sa(dp2169
VUserName
p2170
V@f659bf5421808c729a564367bc0d6101
p2171
sVCity
p2172
V\u6c88\u9633
p2173
sVDisplayName
p2174
g48
sVUniFriend
p2175
I0
sVMemberList
p2176
(lp2177
sVPYQuanPin
p2178
Vfengyuzhongbenpaodeshaonvspanclassemojiemoji2755spanspanclassemojiemoji1f49espan
p2179
sVRemarkPYInitial
p2180
VWN
p2181
sVUin
p2182
I0
sVAppAccountFlag
p2183
I0
sVVerifyFlag
p2184
I0
sVProvince
p2185
V\u8fbd\u5b81
p2186
sVKeyWord
p2187
VM10
p2188
sVRemarkName
p2189
V\u5434\u6960
p2190
sVPYInitial
p2191
VFYZBPDSNSPANCLASSEMOJIEMOJI2755SPANSPANCLASSEMOJIEMOJI1F49ESPAN
p2192
sVChatRoomId
p2193
I0
sVIsOwner
p2194
I0
sVHideInputBarFlag
p2195
I0
sVEncryChatRoomId
p2196
g48
sVAttrStatus
p2197
I4135
sVSnsFlag
p2198
I17
sVMemberCount
p2199
I0
sVOwnerUin
p2200
I0
sVAlias
p2201
g48
sVSignature
p2202
V\u8c22\u8c22\u4f60\u4eec\uff0c\u7231\u6211\u7684\u6bcf\u4e2a\u4eba
p2203
sVContactFlag
p2204
I1
sVNickName
p2205
V\u98ce\u96e8\u4e2d\u5954\u8dd1\u7684\u5c11\u5973\u2755\U0001f49e
p2206
sVRemarkPYQuanPin
p2207
Vwunan
p2208
sVHeadImgUrl
p2209
V/cgi-bin/mmwebwx-bin/webwxgeticon?seq=660460745&username=@f659bf5421808c729a564367bc0d6101&skey=@crypt_870a16cf_456d32d449b4c837b4f12f1e0fbe5017
p2210
sVSex
p2211
I2
sVStarFriend
p2212
I0
sVStatues
p2213
I0
sa(dp2214
VUserName
p2215
V@5e613cdd8f15857efa872296d77bc3678ff7cd68fd52a7cd455dd132cbfe7baf
p2216
sVCity
p2217
V\u660c\u5e73
p2218
sVDisplayName
p2219
g48
sVUniFriend
p2220
I0
sVMemberList
p2221
(lp2222
sVPYQuanPin
p2223
VANDY
p2224
sVRemarkPYInitial
p2225
VCM
p2226
sVUin
p2227
I0
sVAppAccountFlag
p2228
I0
sVVerifyFlag
p2229
I0
sVProvince
p2230
V\u5317\u4eac
p2231
sVKeyWord
p2232
g48
sVRemarkName
p2233
V\u5d14\u660e
p2234
sVPYInitial
p2235
VANDY
p2236
sVChatRoomId
p2237
I0
sVIsOwner
p2238
I0
sVHideInputBarFlag
p2239
I0
sVEncryChatRoomId
p2240
g48
sVAttrStatus
p2241
I104549
sVSnsFlag
p2242
I17
sVMemberCount
p2243
I0
sVOwnerUin
p2244
I0
sVAlias
p2245
g48
sVSignature
p2246
VIf it feel easy. Don't do it. Don't let the world spoil you.
p2247
sVContactFlag
p2248
I1
sVNickName
p2249
VANDY
p2250
sVRemarkPYQuanPin
p2251
Vcuiming
p2252
sVHeadImgUrl
p2253
V/cgi-bin/mmwebwx-bin/webwxgeticon?seq=648836924&username=@5e613cdd8f15857efa872296d77bc3678ff7cd68fd52a7cd455dd132cbfe7baf&skey=@crypt_870a16cf_456d32d449b4c837b4f12f1e0fbe5017
p2254
sVSex
p2255
I1
sVStarFriend
p2256
I0
sVStatues
p2257
I0
sa(dp2258
VUserName
p2259
V@09cc9b21972c8cf629a7f056c7a929da98be3a8d27e0928b872633aa2766c38b
p2260
sVCity
p2261
V\u671d\u9633
p2262
sVDisplayName
p2263
g48
sVUniFriend
p2264
I0
sVMemberList
p2265
(lp2266
sVPYQuanPin
p2267
Vwoaiwojiapengguang13051593538
p2268
sVRemarkPYInitial
p2269
VWAWJPG13051593538
p2270
sVUin
p2271
I0
sVAppAccountFlag
p2272
I0
sVVerifyFlag
p2273
I0
sVProvince
p2274
V\u5317\u4eac
p2275
sVKeyWord
p2276
g48
sVRemarkName
p2277
V\u6211\u7231\u6211\u5bb6\u5f6d\u5e7f13051593538
p2278
sVPYInitial
p2279
VWAWJPG13051593538
p2280
sVChatRoomId
p2281
I0
sVIsOwner
p2282
I0
sVHideInputBarFlag
p2283
I0
sVEncryChatRoomId
p2284
g48
sVAttrStatus
p2285
I104485
sVSnsFlag
p2286
I17
sVMemberCount
p2287
I0
sVOwnerUin
p2288
I0
sVAlias
p2289
g48
sVSignature
p2290
V\u7231\u7b11\u7684\u4eba\u8fd0\u6c14\u4e0d\u4f1a\u592a\u5dee
p2291
sVContactFlag
p2292
I3
sVNickName
p2293
V\u6211\u7231\u6211\u5bb6\u5f6d\u5e7f13051593538
p2294
sVRemarkPYQuanPin
p2295
Vwoaiwojiapengguang13051593538
p2296
sVHeadImgUrl
p2297
V/cgi-bin/mmwebwx-bin/webwxgeticon?seq=660461140&username=@09cc9b21972c8cf629a7f056c7a929da98be3a8d27e0928b872633aa2766c38b&skey=@crypt_870a16cf_456d32d449b4c837b4f12f1e0fbe5017
p2298
sVSex
p2299
I1
sVStarFriend
p2300
I0
sVStatues
p2301
I0
sa(dp2302
VUserName
p2303
V@3d54dcc3de5161e403634b27c321b4a3
p2304
sVCity
p2305
V\u5927\u8fde
p2306
sVDisplayName
p2307
g48
sVUniFriend
p2308
I0
sVMemberList
p2309
(lp2310
sVPYQuanPin
p2311
Vjiji
p2312
sVRemarkPYInitial
p2313
VSZ
p2314
sVUin
p2315
I0
sVAppAccountFlag
p2316
I0
sVVerifyFlag
p2317
I0
sVProvince
p2318
V\u8fbd\u5b81
p2319
sVKeyWord
p2320
Verj
p2321
sVRemarkName
p2322
V\u5b59\u5586
p2323
sVPYInitial
p2324
VJJ
p2325
sVChatRoomId
p2326
I0
sVIsOwner
p2327
I0
sVHideInputBarFlag
p2328
I0
sVEncryChatRoomId
p2329
g48
sVAttrStatus
p2330
I202279
sVSnsFlag
p2331
I17
sVMemberCount
p2332
I0
sVOwnerUin
p2333
I0
sVAlias
p2334
g48
sVSignature
p2335
V\u52aa\u529b\u5230\u65e0\u80fd\u4e3a\u529b\uff0c\u62fc\u640f\u5230\u611f\u52a8\u81ea\u5df1\uff01
p2336
sVContactFlag
p2337
I5
sVNickName
p2338
V\u5409      \u5409
p2339
sVRemarkPYQuanPin
p2340
Vsunzhe
p2341
sVHeadImgUrl
p2342
V/cgi-bin/mmwebwx-bin/webwxgeticon?seq=660461148&username=@3d54dcc3de5161e403634b27c321b4a3&skey=@crypt_870a16cf_456d32d449b4c837b4f12f1e0fbe5017
p2343
sVSex
p2344
I2
sVStarFriend
p2345
I0
sVStatues
p2346
I0
sa(dp2347
VUserName
p2348
V@dc57d0f2352b78670e840a99a74899231bb1e8e99e27702434beb5dd0bf9e0c7
p2349
sVCity
p2350
g48
sVDisplayName
p2351
g48
sVUniFriend
p2352
I0
sVMemberList
p2353
(lp2354
sVPYQuanPin
p2355
Vhudiezhongjiufeibuguocanghai
p2356
sVRemarkPYInitial
p2357
VSDX
p2358
sVUin
p2359
I0
sVAppAccountFlag
p2360
I0
sVVerifyFlag
p2361
I0
sVProvince
p2362
VOsaka
p2363
sVKeyWord
p2364
g48
sVRemarkName
p2365
V\u5c1a\u51ac\u96ea
p2366
sVPYInitial
p2367
VHDZJFBGCH
p2368
sVChatRoomId
p2369
I0
sVIsOwner
p2370
I0
sVHideInputBarFlag
p2371
I0
sVEncryChatRoomId
p2372
g48
sVAttrStatus
p2373
I102663
sVSnsFlag
p2374
I17
sVMemberCount
p2375
I0
sVOwnerUin
p2376
I0
sVAlias
p2377
g48
sVSignature
p2378
V\u4e0d\u518d\u7b49\u5f85\u68a6\u91cc\u82b1\u5f00....                    \u80fd\u62d2\u7edd\u5f97\u90fd\u4e0d\u53eb\u8bf1\u60d1
p2379
sVContactFlag
p2380
I1
sVNickName
p2381
V\u8774\u8776\u7ec8\u7a76\u98de\u4e0d\u8fc7\u6ca7\u6d77
p2382
sVRemarkPYQuanPin
p2383
Vshangdongxue
p2384
sVHeadImgUrl
p2385
V/cgi-bin/mmwebwx-bin/webwxgeticon?seq=660452662&username=@dc57d0f2352b78670e840a99a74899231bb1e8e99e27702434beb5dd0bf9e0c7&skey=@crypt_870a16cf_456d32d449b4c837b4f12f1e0fbe5017
p2386
sVSex
p2387
I2
sVStarFriend
p2388
I0
sVStatues
p2389
I0
sa(dp2390
VUserName
p2391
V@abe9d13a388fa92b8a7bbeda72b70d511606ec9a10769ed04183b7108f0c95d6
p2392
sVCity
p2393
V\u5927\u8fde
p2394
sVDisplayName
p2395
g48
sVUniFriend
p2396
I0
sVMemberList
p2397
(lp2398
sVPYQuanPin
p2399
Vyantofengjing
p2400
sVRemarkPYInitial
p2401
VAY
p2402
sVUin
p2403
I0
sVAppAccountFlag
p2404
I0
sVVerifyFlag
p2405
I0
sVProvince
p2406
V\u8fbd\u5b81
p2407
sVKeyWord
p2408
g48
sVRemarkName
p2409
V\u827e\u598d
p2410
sVPYInitial
p2411
VYTOFJ
p2412
sVChatRoomId
p2413
I0
sVIsOwner
p2414
I0
sVHideInputBarFlag
p2415
I0
sVEncryChatRoomId
p2416
g48
sVAttrStatus
p2417
I111077
sVSnsFlag
p2418
I17
sVMemberCount
p2419
I0
sVOwnerUin
p2420
I0
sVAlias
p2421
g48
sVSignature
p2422
V\u559c\u60a6\u51fa\u4e8e\u5de7\u5408\uff0c\u773c\u6cea\u4f55\u5fc5\u56fa\u6267
p2423
sVContactFlag
p2424
I1
sVNickName
p2425
V\u598d to \u98ce\u666f
p2426
sVRemarkPYQuanPin
p2427
Vaiyan
p2428
sVHeadImgUrl
p2429
V/cgi-bin/mmwebwx-bin/webwxgeticon?seq=660461372&username=@abe9d13a388fa92b8a7bbeda72b70d511606ec9a10769ed04183b7108f0c95d6&skey=@crypt_870a16cf_456d32d449b4c837b4f12f1e0fbe5017
p2430
sVSex
p2431
I2
sVStarFriend
p2432
I0
sVStatues
p2433
I0
sa(dp2434
VUserName
p2435
V@6454fa921ee5ef6d5652f027bcf7a3a19dcae3aa326dc890834f5acff97a035b
p2436
sVCity
p2437
V\u5927\u8fde
p2438
sVDisplayName
p2439
g48
sVUniFriend
p2440
I0
sVMemberList
p2441
(lp2442
sVPYQuanPin
p2443
Vwuxiaogui
p2444
sVRemarkPYInitial
p2445
VWGZ
p2446
sVUin
p2447
I0
sVAppAccountFlag
p2448
I0
sVVerifyFlag
p2449
I0
sVProvince
p2450
V\u8fbd\u5b81
p2451
sVKeyWord
p2452
g48
sVRemarkName
p2453
V\u5434\u56fd\u58ee
p2454
sVPYInitial
p2455
VWXG
p2456
sVChatRoomId
p2457
I0
sVIsOwner
p2458
I0
sVHideInputBarFlag
p2459
I0
sVEncryChatRoomId
p2460
g48
sVAttrStatus
p2461
I16879653
sVSnsFlag
p2462
I17
sVMemberCount
p2463
I0
sVOwnerUin
p2464
I0
sVAlias
p2465
g48
sVSignature
p2466
V\u7b49\u4f60\uff0c\u548c\u4ece\u524d\u4e00\u6837\u3002
p2467
sVContactFlag
p2468
I1
sVNickName
p2469
V\u4e4c\u5c0f\u9f9f
p2470
sVRemarkPYQuanPin
p2471
Vwuguozhuang
p2472
sVHeadImgUrl
p2473
V/cgi-bin/mmwebwx-bin/webwxgeticon?seq=660430929&username=@6454fa921ee5ef6d5652f027bcf7a3a19dcae3aa326dc890834f5acff97a035b&skey=@crypt_870a16cf_456d32d449b4c837b4f12f1e0fbe5017
p2474
sVSex
p2475
I1
sVStarFriend
p2476
I0
sVStatues
p2477
I0
sa(dp2478
VUserName
p2479
V@30a9c09f25238555e88ac1430dc2d959904917c6e42299623c039c5730841d63
p2480
sVCity
p2481
g48
sVDisplayName
p2482
g48
sVUniFriend
p2483
I0
sVMemberList
p2484
(lp2485
sVPYQuanPin
p2486
Vo
p2487
sVRemarkPYInitial
p2488
VZZ
p2489
sVUin
p2490
I0
sVAppAccountFlag
p2491
I0
sVVerifyFlag
p2492
I0
sVProvince
p2493
g48
sVKeyWord
p2494
g48
sVRemarkName
p2495
V\u5f20\u9707
p2496
sVPYInitial
p2497
VO
p2498
sVChatRoomId
p2499
I0
sVIsOwner
p2500
I0
sVHideInputBarFlag
p2501
I0
sVEncryChatRoomId
p2502
g48
sVAttrStatus
p2503
I136123
sVSnsFlag
p2504
I1
sVMemberCount
p2505
I0
sVOwnerUin
p2506
I0
sVAlias
p2507
g48
sVSignature
p2508
g48
sVContactFlag
p2509
I1
sVNickName
p2510
g2487
sVRemarkPYQuanPin
p2511
Vzhangzhen
p2512
sVHeadImgUrl
p2513
V/cgi-bin/mmwebwx-bin/webwxgeticon?seq=660461399&username=@30a9c09f25238555e88ac1430dc2d959904917c6e42299623c039c5730841d63&skey=@crypt_870a16cf_456d32d449b4c837b4f12f1e0fbe5017
p2514
sVSex
p2515
I1
sVStarFriend
p2516
I0
sVStatues
p2517
I0
sa(dp2518
VUserName
p2519
V@afcc0c278cd68f6794c4c126912cbdcf6d1d3ebccffc592b01d3241ab0e7886d
p2520
sVCity
p2521
V\u5927\u8fde
p2522
sVDisplayName
p2523
g48
sVUniFriend
p2524
I0
sVMemberList
p2525
(lp2526
sVPYQuanPin
p2527
Vshangshanreshui
p2528
sVRemarkPYInitial
p2529
VYM
p2530
sVUin
p2531
I0
sVAppAccountFlag
p2532
I0
sVVerifyFlag
p2533
I0
sVProvince
p2534
V\u8fbd\u5b81
p2535
sVKeyWord
p2536
g48
sVRemarkName
p2537
V\u4e8e\u654f
p2538
sVPYInitial
p2539
VSSRS
p2540
sVChatRoomId
p2541
I0
sVIsOwner
p2542
I0
sVHideInputBarFlag
p2543
I0
sVEncryChatRoomId
p2544
g48
sVAttrStatus
p2545
I201469
sVSnsFlag
p2546
I49
sVMemberCount
p2547
I0
sVOwnerUin
p2548
I0
sVAlias
p2549
g48
sVSignature
p2550
V\u5929\u9053\u5fcc\u5de7\uff0c\u5927\u5de7\u4e0d\u5de5
p2551
sVContactFlag
p2552
I1
sVNickName
p2553
V\u4e0a\u5584\u82e5\u6c34
p2554
sVRemarkPYQuanPin
p2555
Vyumin
p2556
sVHeadImgUrl
p2557
V/cgi-bin/mmwebwx-bin/webwxgeticon?seq=660441519&username=@afcc0c278cd68f6794c4c126912cbdcf6d1d3ebccffc592b01d3241ab0e7886d&skey=@crypt_870a16cf_456d32d449b4c837b4f12f1e0fbe5017
p2558
sVSex
p2559
I2
sVStarFriend
p2560
I0
sVStatues
p2561
I0
sa(dp2562
VUserName
p2563
V@50e56d1aa2034275c78f0dda48ec625f
p2564
sVCity
p2565
V\u5927\u8fde
p2566
sVDisplayName
p2567
g48
sVUniFriend
p2568
I0
sVMemberList
p2569
(lp2570
sVPYQuanPin
p2571
Vdong
p2572
sVRemarkPYInitial
p2573
VXXD
p2574
sVUin
p2575
I0
sVAppAccountFlag
p2576
I0
sVVerifyFlag
p2577
I0
sVProvince
p2578
V\u8fbd\u5b81
p2579
sVKeyWord
p2580
Vdal
p2581
sVRemarkName
p2582
V\u5f90\u559c\u4e1c
p2583
sVPYInitial
p2584
VD
p2585
sVChatRoomId
p2586
I0
sVIsOwner
p2587
I0
sVHideInputBarFlag
p2588
I0
sVEncryChatRoomId
p2589
g48
sVAttrStatus
p2590
I33656935
sVSnsFlag
p2591
I177
sVMemberCount
p2592
I0
sVOwnerUin
p2593
I0
sVAlias
p2594
g48
sVSignature
p2595
V\u6709\u65f6\uff0c\u53bb\u6cbb\u6108\uff1b\u5e38\u5e38\uff0c\u53bb\u5e2e\u52a9\uff1b\u603b\u662f\uff0c\u53bb\u5b89\u6170\u3002
p2596
sVContactFlag
p2597
I5
sVNickName
p2598
V\u6771
p2599
sVRemarkPYQuanPin
p2600
Vxuxidong
p2601
sVHeadImgUrl
p2602
V/cgi-bin/mmwebwx-bin/webwxgeticon?seq=660461693&username=@50e56d1aa2034275c78f0dda48ec625f&skey=@crypt_870a16cf_456d32d449b4c837b4f12f1e0fbe5017
p2603
sVSex
p2604
I1
sVStarFriend
p2605
I0
sVStatues
p2606
I0
sa(dp2607
VUserName
p2608
V@ff7c8892d0481b4ec6a5a1861be8034a949434f244dd2972d156f0ef0b5ca4a7
p2609
sVCity
p2610
g48
sVDisplayName
p2611
g48
sVUniFriend
p2612
I0
sVMemberList
p2613
(lp2614
sVPYQuanPin
p2615
Vshuizemulan
p2616
sVRemarkPYInitial
p2617
VLS
p2618
sVUin
p2619
I0
sVAppAccountFlag
p2620
I0
sVVerifyFlag
p2621
I0
sVProvince
p2622
VParis
p2623
sVKeyWord
p2624
g48
sVRemarkName
p2625
V\u8001\u5a76
p2626
sVPYInitial
p2627
VSZML
p2628
sVChatRoomId
p2629
I0
sVIsOwner
p2630
I0
sVHideInputBarFlag
p2631
I0
sVEncryChatRoomId
p2632
g48
sVAttrStatus
p2633
I39741
sVSnsFlag
p2634
I17
sVMemberCount
p2635
I0
sVOwnerUin
p2636
I0
sVAlias
p2637
g48
sVSignature
p2638
V\u5e26\u6211\u53bb\u6709\u7389\u5170\u82b1\u7684\u5730\u65b9\u2606
p2639
sVContactFlag
p2640
I1
sVNickName
p2641
V\u6c34\u6cfd\u6728\u5170
p2642
sVRemarkPYQuanPin
p2643
Vlaoshen
p2644
sVHeadImgUrl
p2645
V/cgi-bin/mmwebwx-bin/webwxgeticon?seq=660461496&username=@ff7c8892d0481b4ec6a5a1861be8034a949434f244dd2972d156f0ef0b5ca4a7&skey=@crypt_870a16cf_456d32d449b4c837b4f12f1e0fbe5017
p2646
sVSex
p2647
I2
sVStarFriend
p2648
I0
sVStatues
p2649
I0
sa(dp2650
VUserName
p2651
V@247f2fa7ad8bc8433e88354a857881211dc800219d29ee12fc05e5aabc63bada
p2652
sVCity
p2653
g48
sVDisplayName
p2654
g48
sVUniFriend
p2655
I0
sVMemberList
p2656
(lp2657
sVPYQuanPin
p2658
Vkunya
p2659
sVRemarkPYInitial
p2660
VZJK
p2661
sVUin
p2662
I0
sVAppAccountFlag
p2663
I0
sVVerifyFlag
p2664
I0
sVProvince
p2665
g48
sVKeyWord
p2666
g48
sVRemarkName
p2667
V\u5f20\u656c\u7428
p2668
sVPYInitial
p2669
VKY
p2670
sVChatRoomId
p2671
I0
sVIsOwner
p2672
I0
sVHideInputBarFlag
p2673
I0
sVEncryChatRoomId
p2674
g48
sVAttrStatus
p2675
I100385
sVSnsFlag
p2676
I145
sVMemberCount
p2677
I0
sVOwnerUin
p2678
I0
sVAlias
p2679
g48
sVSignature
p2680
V\u540e\u6d77\u6709\u6811\u7684\u9662\u5b50\uff0c\u590f\u4ee3\u6709\u5de5\u7684\u7389\uff0c\u6b64\u65f6\u6b64\u523b\u7684\u4e91\uff0c\u4e8c\u5341\u6765\u5c81\u7684\u4f60\u3002
p2681
sVContactFlag
p2682
I1
sVNickName
p2683
V\u7428\u5440
p2684
sVRemarkPYQuanPin
p2685
Vzhangjingkun
p2686
sVHeadImgUrl
p2687
V/cgi-bin/mmwebwx-bin/webwxgeticon?seq=660450598&username=@247f2fa7ad8bc8433e88354a857881211dc800219d29ee12fc05e5aabc63bada&skey=@crypt_870a16cf_456d32d449b4c837b4f12f1e0fbe5017
p2688
sVSex
p2689
I1
sVStarFriend
p2690
I0
sVStatues
p2691
I0
sa(dp2692
VUserName
p2693
V@160dc44ebf4dbcab1222e05415f136f6
p2694
sVCity
p2695
V\u660c\u5e73
p2696
sVDisplayName
p2697
g48
sVUniFriend
p2698
I0
sVMemberList
p2699
(lp2700
sVPYQuanPin
p2701
Vhanzhexin
p2702
sVRemarkPYInitial
p2703
VHRX
p2704
sVUin
p2705
I0
sVAppAccountFlag
p2706
I0
sVVerifyFlag
p2707
I0
sVProvince
p2708
V\u5317\u4eac
p2709
sVKeyWord
p2710
Vxia
p2711
sVRemarkName
p2712
V\u97e9\u65e5\u946b
p2713
sVPYInitial
p2714
VHZX
p2715
sVChatRoomId
p2716
I0
sVIsOwner
p2717
I0
sVHideInputBarFlag
p2718
I0
sVEncryChatRoomId
p2719
g48
sVAttrStatus
p2720
I104487
sVSnsFlag
p2721
I49
sVMemberCount
p2722
I0
sVOwnerUin
p2723
I0
sVAlias
p2724
g48
sVSignature
p2725
V\u6daf
p2726
sVContactFlag
p2727
I3
sVNickName
p2728
V\u97e9\u54f2\u4fe1
p2729
sVRemarkPYQuanPin
p2730
Vhanrixin
p2731
sVHeadImgUrl
p2732
V/cgi-bin/mmwebwx-bin/webwxgeticon?seq=660461943&username=@160dc44ebf4dbcab1222e05415f136f6&skey=@crypt_870a16cf_456d32d449b4c837b4f12f1e0fbe5017
p2733
sVSex
p2734
I1
sVStarFriend
p2735
I0
sVStatues
p2736
I0
sa(dp2737
VUserName
p2738
V@08d5dccfdffe3b2fd30b3b29784f7e20136039a530fda22b21147f1b767c494a
p2739
sVCity
p2740
g48
sVDisplayName
p2741
g48
sVUniFriend
p2742
I0
sVMemberList
p2743
(lp2744
sVPYQuanPin
p2745
Vsmile
p2746
sVRemarkPYInitial
p2747
VNN
p2748
sVUin
p2749
I0
sVAppAccountFlag
p2750
I0
sVVerifyFlag
p2751
I0
sVProvince
p2752
VParis
p2753
sVKeyWord
p2754
g48
sVRemarkName
p2755
V\u5b81\u5b81
p2756
sVPYInitial
p2757
VSMILE
p2758
sVChatRoomId
p2759
I0
sVIsOwner
p2760
I0
sVHideInputBarFlag
p2761
I0
sVEncryChatRoomId
p2762
g48
sVAttrStatus
p2763
I231333
sVSnsFlag
p2764
I49
sVMemberCount
p2765
I0
sVOwnerUin
p2766
I0
sVAlias
p2767
g48
sVSignature
p2768
V\u522b\u8ba9\u7b49\u5f85\uff0c\u6210\u4e3a\u9057\u61be\u2026\u2026
p2769
sVContactFlag
p2770
I1
sVNickName
p2771
Vsmile
p2772
sVRemarkPYQuanPin
p2773
Vningning
p2774
sVHeadImgUrl
p2775
V/cgi-bin/mmwebwx-bin/webwxgeticon?seq=660431760&username=@08d5dccfdffe3b2fd30b3b29784f7e20136039a530fda22b21147f1b767c494a&skey=@crypt_870a16cf_456d32d449b4c837b4f12f1e0fbe5017
p2776
sVSex
p2777
I2
sVStarFriend
p2778
I0
sVStatues
p2779
I0
sa(dp2780
VUserName
p2781
V@0e23fb2944d366161c5dbab375f89398
p2782
sVCity
p2783
V\u5927\u8fde
p2784
sVDisplayName
p2785
g48
sVUniFriend
p2786
I0
sVMemberList
p2787
(lp2788
sVPYQuanPin
p2789
VWulixiaohai
p2790
sVRemarkPYInitial
p2791
VWULIXH
p2792
sVUin
p2793
I0
sVAppAccountFlag
p2794
I0
sVVerifyFlag
p2795
I0
sVProvince
p2796
V\u8fbd\u5b81
p2797
sVKeyWord
p2798
Vdal
p2799
sVRemarkName
p2800
VWuli\u5c0f\u6d77
p2801
sVPYInitial
p2802
VWULIXH
p2803
sVChatRoomId
p2804
I0
sVIsOwner
p2805
I0
sVHideInputBarFlag
p2806
I0
sVEncryChatRoomId
p2807
g48
sVAttrStatus
p2808
I234623
sVSnsFlag
p2809
I177
sVMemberCount
p2810
I0
sVOwnerUin
p2811
I0
sVAlias
p2812
g48
sVSignature
p2813
V\u5728\u671f\u5f85\uff0c\u5728\u7b49\u5f85
p2814
sVContactFlag
p2815
I3
sVNickName
p2816
VWuli\u5c0f\u6d77
p2817
sVRemarkPYQuanPin
p2818
VWulixiaohai
p2819
sVHeadImgUrl
p2820
V/cgi-bin/mmwebwx-bin/webwxgeticon?seq=660462201&username=@0e23fb2944d366161c5dbab375f89398&skey=@crypt_870a16cf_456d32d449b4c837b4f12f1e0fbe5017
p2821
sVSex
p2822
I1
sVStarFriend
p2823
I0
sVStatues
p2824
I0
sa(dp2825
VUserName
p2826
V@2e1df2d2cc82beb8247e0a2138f38eed
p2827
sVCity
p2828
V\u5927\u8fde
p2829
sVDisplayName
p2830
g48
sVUniFriend
p2831
I0
sVMemberList
p2832
(lp2833
sVPYQuanPin
p2834
Vduxing
p2835
sVRemarkPYInitial
p2836
VLFZ
p2837
sVUin
p2838
I0
sVAppAccountFlag
p2839
I0
sVVerifyFlag
p2840
I0
sVProvince
p2841
V\u8fbd\u5b81
p2842
sVKeyWord
p2843
VWOn
p2844
sVRemarkName
p2845
V\u5218\u5bcc\u58ee
p2846
sVPYInitial
p2847
VDX
p2848
sVChatRoomId
p2849
I0
sVIsOwner
p2850
I0
sVHideInputBarFlag
p2851
I0
sVEncryChatRoomId
p2852
g48
sVAttrStatus
p2853
I110695
sVSnsFlag
p2854
I17
sVMemberCount
p2855
I0
sVOwnerUin
p2856
I0
sVAlias
p2857
g48
sVSignature
p2858
V\u5fc3\u82e5\u6c89\u6d6e\uff0c\u6d45\u7b11\u5b89\u7136
p2859
sVContactFlag
p2860
I1
sVNickName
p2861
V\u72ec\u9192.
p2862
sVRemarkPYQuanPin
p2863
Vliufuzhuang
p2864
sVHeadImgUrl
p2865
V/cgi-bin/mmwebwx-bin/webwxgeticon?seq=660462578&username=@2e1df2d2cc82beb8247e0a2138f38eed&skey=@crypt_870a16cf_456d32d449b4c837b4f12f1e0fbe5017
p2866
sVSex
p2867
I1
sVStarFriend
p2868
I0
sVStatues
p2869
I0
sa(dp2870
VUserName
p2871
V@94140acbfc9e988d9c900d8d5b5e493e
p2872
sVCity
p2873
V\u54c8\u5c14\u6ee8
p2874
sVDisplayName
p2875
g48
sVUniFriend
p2876
I0
sVMemberList
p2877
(lp2878
sVPYQuanPin
p2879
VArlin
p2880
sVRemarkPYInitial
p2881
VFTL
p2882
sVUin
p2883
I0
sVAppAccountFlag
p2884
I0
sVVerifyFlag
p2885
I0
sVProvince
p2886
V\u9ed1\u9f99\u6c5f
p2887
sVKeyWord
p2888
VWol
p2889
sVRemarkName
p2890
V\u8303\u94c1\u6797
p2891
sVPYInitial
p2892
VARLIN
p2893
sVChatRoomId
p2894
I0
sVIsOwner
p2895
I0
sVHideInputBarFlag
p2896
I0
sVEncryChatRoomId
p2897
g48
sVAttrStatus
p2898
I33654887
sVSnsFlag
p2899
I145
sVMemberCount
p2900
I0
sVOwnerUin
p2901
I0
sVAlias
p2902
g48
sVSignature
p2903
V\u628a\u5931\u8d25\u604b\u7231\u85cf\u8fdb\u8def\u4eba\u7684\u8be6\u8c08
p2904
sVContactFlag
p2905
I1
sVNickName
p2906
VArlin
p2907
sVRemarkPYQuanPin
p2908
Vfantielin
p2909
sVHeadImgUrl
p2910
V/cgi-bin/mmwebwx-bin/webwxgeticon?seq=660461451&username=@94140acbfc9e988d9c900d8d5b5e493e&skey=@crypt_870a16cf_456d32d449b4c837b4f12f1e0fbe5017
p2911
sVSex
p2912
I1
sVStarFriend
p2913
I0
sVStatues
p2914
I0
sa(dp2915
VUserName
p2916
V@5e9a96648c3d3926944452075d8e69b0bdd60e942270cfb4faac4ad6da0ee842
p2917
sVCity
p2918
g48
sVDisplayName
p2919
g48
sVUniFriend
p2920
I0
sVMemberList
p2921
(lp2922
sVPYQuanPin
p2923
Vshenxiaocheng
p2924
sVRemarkPYInitial
p2925
VSC
p2926
sVUin
p2927
I0
sVAppAccountFlag
p2928
I0
sVVerifyFlag
p2929
I0
sVProvince
p2930
VBarcelona
p2931
sVKeyWord
p2932
g48
sVRemarkName
p2933
V\u6c88\u6210
p2934
sVPYInitial
p2935
VSXC
p2936
sVChatRoomId
p2937
I0
sVIsOwner
p2938
I0
sVHideInputBarFlag
p2939
I0
sVEncryChatRoomId
p2940
g48
sVAttrStatus
p2941
I16974055
sVSnsFlag
p2942
I17
sVMemberCount
p2943
I0
sVOwnerUin
p2944
I0
sVAlias
p2945
g48
sVSignature
p2946
V\u4e00\u5373\u662f\u591a\uff0c\u591a\u5373\u662f\u4e00\u3002
p2947
sVContactFlag
p2948
I1
sVNickName
p2949
V\u795e\u5c0f\u6a59
p2950
sVRemarkPYQuanPin
p2951
Vshencheng
p2952
sVHeadImgUrl
p2953
V/cgi-bin/mmwebwx-bin/webwxgeticon?seq=648850245&username=@5e9a96648c3d3926944452075d8e69b0bdd60e942270cfb4faac4ad6da0ee842&skey=@crypt_870a16cf_456d32d449b4c837b4f12f1e0fbe5017
p2954
sVSex
p2955
I1
sVStarFriend
p2956
I0
sVStatues
p2957
I0
sasS'chatroomList'
p2958
(lp2959
(dp2960
VUserName
p2961
V@@baf5479d52183209a093842bfea20c30e4c6d225874bb4a6f8b76a3ac4f0c68d
p2962
sVCity
p2963
g48
sVDisplayName
p2964
g48
sVUniFriend
p2965
I0
sS'self'
p2966
(dp2967
g36
g31
sg38
g41
sg40
g41
sg42
I0
sg67
I0
sg43
(lp2968
sg45
g48
sg47
g48
sg77
I1835068021
sg50
I0
sg51
I0
sg52
g41
sg54
g41
sg55
g48
sg56
g48
sg59
I0
sg60
I0
sg61
I1
sg62
g41
sg63
I0
sg65
I17
sg66
I0
sg64
I1
sg68
g41
sg69
V\u5982\u679c\u4e0d\u80fd\u5403\u5b83\u3001\u4e0d\u80fd\u559d\u5b83\u3001\u4e0d\u80fd\u62bd\u5b83\u3001\u4e0d\u80fd\u5438\u5b83\uff0c\u90a3\u5c31\u5e72\u6b7b\u5b83\uff01
p2969
sg71
I0
sg72
VDAREDEVIL
p2970
sg74
g48
sg75
V/cgi-bin/mmwebwx-bin/webwxgeticon?seq=703424953&username=@68dbdfe1718b154e88ce0219bca9a04ff848c644220426a378b1efd66cc431ed&skey=@crypt_870a16cf_456d32d449b4c837b4f12f1e0fbe5017
p2971
sg49
I1
sg78
I0
sg79
I0
ssVMemberList
p2972
(lp2973
sVPYQuanPin
p2974
Vjibanlalala
p2975
sVRemarkPYInitial
p2976
g48
sVSex
p2977
I0
sVAppAccountFlag
p2978
I0
sVVerifyFlag
p2979
I0
sVProvince
p2980
g48
sVKeyWord
p2981
g48
sVRemarkName
p2982
g48
sVPYInitial
p2983
VJBLLL
p2984
sVIsOwner
p2985
I0
sVChatRoomId
p2986
I0
sVHideInputBarFlag
p2987
I0
sVEncryChatRoomId
p2988
g48
sVAttrStatus
p2989
I0
sVSnsFlag
p2990
I0
sVMemberCount
p2991
I0
sVOwnerUin
p2992
I0
sVAlias
p2993
g48
sVSignature
p2994
g48
sVContactFlag
p2995
I1
sVNickName
p2996
V\u7f81\u7eca~\u005c(\u2267\u25bd\u2266)/~\u5566\u5566\u5566
p2997
sVRemarkPYQuanPin
p2998
g48
sVHeadImgUrl
p2999
V/cgi-bin/mmwebwx-bin/webwxgetheadimg?seq=639320757&username=@@baf5479d52183209a093842bfea20c30e4c6d225874bb4a6f8b76a3ac4f0c68d&skey=@crypt_870a16cf_456d32d449b4c837b4f12f1e0fbe5017
p3000
sVUin
p3001
I0
sVStarFriend
p3002
I0
sVStatues
p3003
I0
sS'isAdmin'
p3004
Nsa(dp3005
VUserName
p3006
V@@3db860bc5d24076eb7f1c3fc71a25de72370829063a293f41395b2b9f305549a
p3007
sVCity
p3008
g48
sVDisplayName
p3009
g48
sVUniFriend
p3010
I0
sg2966
(dp3011
g36
g31
sg38
g41
sg40
g41
sg42
I0
sg67
I0
sg43
(lp3012
sg45
g48
sg47
g48
sg77
I1835068021
sg50
I0
sg51
I0
sg52
g41
sg54
g41
sg55
g48
sg56
g48
sg59
I0
sg60
I0
sg61
I1
sg62
g41
sg63
I0
sg65
I17
sg66
I0
sg64
I1
sg68
g41
sg69
g2969
sg71
I0
sg72
g2970
sg74
g48
sg75
g2971
sg49
I1
sg78
I0
sg79
I0
ssVMemberList
p3013
(lp3014
sVPYQuanPin
p3015
Vdashifoyoueryuan98
p3016
sVRemarkPYInitial
p3017
g48
sVSex
p3018
I0
sVAppAccountFlag
p3019
I0
sVVerifyFlag
p3020
I0
sVProvince
p3021
g48
sVKeyWord
p3022
g48
sVRemarkName
p3023
g48
sVPYInitial
p3024
VDSFYEY98
p3025
sVIsOwner
p3026
I0
sVChatRoomId
p3027
I0
sVHideInputBarFlag
p3028
I0
sVEncryChatRoomId
p3029
g48
sVAttrStatus
p3030
I0
sVSnsFlag
p3031
I0
sVMemberCount
p3032
I0
sVOwnerUin
p3033
I0
sVAlias
p3034
g48
sVSignature
p3035
g48
sVContactFlag
p3036
I1
sVNickName
p3037
V\u5927\u77f3\u4f5b\u5e7c\u513f\u56ed(98)
p3038
sVRemarkPYQuanPin
p3039
g48
sVHeadImgUrl
p3040
V/cgi-bin/mmwebwx-bin/webwxgetheadimg?seq=648809581&username=@@3db860bc5d24076eb7f1c3fc71a25de72370829063a293f41395b2b9f305549a&skey=@crypt_870a16cf_456d32d449b4c837b4f12f1e0fbe5017
p3041
sVUin
p3042
I0
sVStarFriend
p3043
I0
sVStatues
p3044
I0
sg3004
Nsa(dp3045
VUserName
p3046
V@@ac365344234148d8e53199c038395b13f1aea3ff4dc637330aab6e6eb63679e1
p3047
sVCity
p3048
g48
sVDisplayName
p3049
g48
sVUniFriend
p3050
I0
sg2966
(dp3051
g36
g31
sg38
g41
sg40
g41
sg42
I0
sg67
I0
sg43
(lp3052
sg45
g48
sg47
g48
sg77
I1835068021
sg50
I0
sg51
I0
sg52
g41
sg54
g41
sg55
g48
sg56
g48
sg59
I0
sg60
I0
sg61
I1
sg62
g41
sg63
I0
sg65
I17
sg66
I0
sg64
I1
sg68
g41
sg69
g2969
sg71
I0
sg72
g2970
sg74
g48
sg75
g2971
sg49
I1
sg78
I0
sg79
I0
ssVMemberList
p3053
(lp3054
sVPYQuanPin
p3055
Vshifoyierdui
p3056
sVRemarkPYInitial
p3057
g48
sVSex
p3058
I0
sVAppAccountFlag
p3059
I0
sVVerifyFlag
p3060
I0
sVProvince
p3061
g48
sVKeyWord
p3062
g48
sVRemarkName
p3063
g48
sVPYInitial
p3064
VSFYED
p3065
sVIsOwner
p3066
I0
sVChatRoomId
p3067
I0
sVHideInputBarFlag
p3068
I0
sVEncryChatRoomId
p3069
g48
sVAttrStatus
p3070
I0
sVSnsFlag
p3071
I0
sVMemberCount
p3072
I0
sVOwnerUin
p3073
I0
sVAlias
p3074
g48
sVSignature
p3075
g48
sVContactFlag
p3076
I1
sVNickName
p3077
V\u77f3\u4f5b\u4e00\u4e8c\u961f
p3078
sVRemarkPYQuanPin
p3079
g48
sVHeadImgUrl
p3080
V/cgi-bin/mmwebwx-bin/webwxgetheadimg?seq=648809583&username=@@ac365344234148d8e53199c038395b13f1aea3ff4dc637330aab6e6eb63679e1&skey=@crypt_870a16cf_456d32d449b4c837b4f12f1e0fbe5017
p3081
sVUin
p3082
I0
sVStarFriend
p3083
I0
sVStatues
p3084
I0
sg3004
Nsa(dp3085
VUserName
p3086
V@@3d8919c01672469e8753d2d1b312169f49fb6c5b71ac7c751b3751bdb0b64409
p3087
sVCity
p3088
g48
sVDisplayName
p3089
g48
sVUniFriend
p3090
I0
sg2966
(dp3091
g36
g31
sg38
g41
sg40
g41
sg42
I0
sg67
I0
sg43
(lp3092
sg45
g48
sg47
g48
sg77
I1835068021
sg50
I0
sg51
I0
sg52
g41
sg54
g41
sg55
g48
sg56
g48
sg59
I0
sg60
I0
sg61
I1
sg62
g41
sg63
I0
sg65
I17
sg66
I0
sg64
I1
sg68
g41
sg69
g2969
sg71
I0
sg72
g2970
sg74
g48
sg75
g2971
sg49
I1
sg78
I0
sg79
I0
ssVMemberList
p3093
(lp3094
sVPYQuanPin
p3095
Vspanclassemojiemoji1f3e1spanwearefamuleispanclassemojiemoji1f4b0span
p3096
sVRemarkPYInitial
p3097
g48
sVSex
p3098
I0
sVAppAccountFlag
p3099
I0
sVVerifyFlag
p3100
I0
sVProvince
p3101
g48
sVKeyWord
p3102
g48
sVRemarkName
p3103
g48
sVPYInitial
p3104
VSPANCLASSEMOJIEMOJI1F3E1SPANWEAREFMLSPANCLASSEMOJIEMOJI1F4B0SPAN
p3105
sVIsOwner
p3106
I0
sVChatRoomId
p3107
I0
sVHideInputBarFlag
p3108
I0
sVEncryChatRoomId
p3109
g48
sVAttrStatus
p3110
I0
sVSnsFlag
p3111
I0
sVMemberCount
p3112
I0
sVOwnerUin
p3113
I0
sVAlias
p3114
g48
sVSignature
p3115
g48
sVContactFlag
p3116
I1
sVNickName
p3117
V\U0001f3e1we are \u4f10\u6728\u7d2f\U0001f4b0
p3118
sVRemarkPYQuanPin
p3119
g48
sVHeadImgUrl
p3120
V/cgi-bin/mmwebwx-bin/webwxgetheadimg?seq=660433955&username=@@3d8919c01672469e8753d2d1b312169f49fb6c5b71ac7c751b3751bdb0b64409&skey=@crypt_870a16cf_456d32d449b4c837b4f12f1e0fbe5017
p3121
sVUin
p3122
I0
sVStarFriend
p3123
I0
sVStatues
p3124
I0
sg3004
Nsa(dp3125
VUserName
p3126
V@@e0d622f6efeb6e7dd8a590e311ab2d20c862ff1df5fb6a9af59a56eb8976ddc0
p3127
sVCity
p3128
g48
sVDisplayName
p3129
g48
sVUniFriend
p3130
I0
sg2966
(dp3131
g36
g31
sg38
g41
sg40
g41
sg42
I0
sg67
I0
sg43
(lp3132
sg45
g48
sg47
g48
sg77
I1835068021
sg50
I0
sg51
I0
sg52
g41
sg54
g41
sg55
g48
sg56
g48
sg59
I0
sg60
I0
sg61
I1
sg62
g41
sg63
I0
sg65
I17
sg66
I0
sg64
I1
sg68
g41
sg69
g2969
sg71
I0
sg72
g2970
sg74
g48
sg75
g2971
sg49
I1
sg78
I0
sg79
I0
ssVMemberList
p3133
(lp3134
sVPYQuanPin
p3135
V?yishengxianyuyishengxianyu?
p3136
sVRemarkPYInitial
p3137
g48
sVSex
p3138
I0
sVAppAccountFlag
p3139
I0
sVVerifyFlag
p3140
I0
sVProvince
p3141
g48
sVKeyWord
p3142
g48
sVRemarkName
p3143
g48
sVPYInitial
p3144
V?YSXYYSXY?
p3145
sVIsOwner
p3146
I0
sVChatRoomId
p3147
I0
sVHideInputBarFlag
p3148
I0
sVEncryChatRoomId
p3149
g48
sVAttrStatus
p3150
I0
sVSnsFlag
p3151
I0
sVMemberCount
p3152
I0
sVOwnerUin
p3153
I0
sVAlias
p3154
g48
sVSignature
p3155
g48
sVContactFlag
p3156
I1
sVNickName
p3157
V\ua9c1 \u4e00\u58f0\u54b8\u9c7c\uff0c\u4e00\u751f\u54b8\u9c7c \ua9c2
p3158
sVRemarkPYQuanPin
p3159
g48
sVHeadImgUrl
p3160
V/cgi-bin/mmwebwx-bin/webwxgetheadimg?seq=660440927&username=@@e0d622f6efeb6e7dd8a590e311ab2d20c862ff1df5fb6a9af59a56eb8976ddc0&skey=@crypt_870a16cf_456d32d449b4c837b4f12f1e0fbe5017
p3161
sVUin
p3162
I0
sVStarFriend
p3163
I0
sVStatues
p3164
I0
sg3004
Nsa(dp3165
VUserName
p3166
V@@848e716b5b380977ed0c325c6bcb2e5012c3641075b8d6b7c126c973986114e2
p3167
sVCity
p3168
g48
sVDisplayName
p3169
g48
sVUniFriend
p3170
I0
sg2966
(dp3171
g36
g31
sg38
g41
sg40
g41
sg42
I0
sg67
I0
sg43
(lp3172
sg45
g48
sg47
g48
sg77
I1835068021
sg50
I0
sg51
I0
sg52
g41
sg54
g41
sg55
g48
sg56
g48
sg59
I0
sg60
I0
sg61
I1
sg62
g41
sg63
I0
sg65
I17
sg66
I0
sg64
I1
sg68
g41
sg69
g2969
sg71
I0
sg72
g2970
sg74
g48
sg75
g2971
sg49
I1
sg78
I0
sg79
I0
ssVMemberList
p3173
(lp3174
sVPYQuanPin
p3175
Vqinyouqun
p3176
sVRemarkPYInitial
p3177
g48
sVSex
p3178
I0
sVAppAccountFlag
p3179
I0
sVVerifyFlag
p3180
I0
sVProvince
p3181
g48
sVKeyWord
p3182
g48
sVRemarkName
p3183
g48
sVPYInitial
p3184
VQYQ
p3185
sVIsOwner
p3186
I0
sVChatRoomId
p3187
I0
sVHideInputBarFlag
p3188
I0
sVEncryChatRoomId
p3189
g48
sVAttrStatus
p3190
I0
sVSnsFlag
p3191
I0
sVMemberCount
p3192
I0
sVOwnerUin
p3193
I0
sVAlias
p3194
g48
sVSignature
p3195
g48
sVContactFlag
p3196
I1
sVNickName
p3197
V\u4eb2\u53cb\u7fa4
p3198
sVRemarkPYQuanPin
p3199
g48
sVHeadImgUrl
p3200
V/cgi-bin/mmwebwx-bin/webwxgetheadimg?seq=660435415&username=@@848e716b5b380977ed0c325c6bcb2e5012c3641075b8d6b7c126c973986114e2&skey=@crypt_870a16cf_456d32d449b4c837b4f12f1e0fbe5017
p3201
sVUin
p3202
I0
sVStarFriend
p3203
I0
sVStatues
p3204
I0
sg3004
Nsa(dp3205
VUserName
p3206
V@@cb7c23aaea15a81cd9e8471f66065edb7df5d6cdc98c50ced720bb449095eea6
p3207
sVCity
p3208
g48
sVDisplayName
p3209
g48
sVUniFriend
p3210
I0
sg2966
(dp3211
g36
g31
sg38
g41
sg40
g41
sg42
I0
sg67
I0
sg43
(lp3212
sg45
g48
sg47
g48
sg77
I1835068021
sg50
I0
sg51
I0
sg52
g41
sg54
g41
sg55
g48
sg56
g48
sg59
I0
sg60
I0
sg61
I1
sg62
g41
sg63
I0
sg65
I17
sg66
I0
sg64
I1
sg68
g41
sg69
g2969
sg71
I0
sg72
g2970
sg74
g48
sg75
g2971
sg49
I1
sg78
I0
sg79
I0
ssVMemberList
p3213
(lp3214
sVPYQuanPin
p3215
Vbaobaoqun
p3216
sVRemarkPYInitial
p3217
g48
sVSex
p3218
I0
sVAppAccountFlag
p3219
I0
sVVerifyFlag
p3220
I0
sVProvince
p3221
g48
sVKeyWord
p3222
g48
sVRemarkName
p3223
g48
sVPYInitial
p3224
VBBQ
p3225
sVIsOwner
p3226
I0
sVChatRoomId
p3227
I0
sVHideInputBarFlag
p3228
I0
sVEncryChatRoomId
p3229
g48
sVAttrStatus
p3230
I0
sVSnsFlag
p3231
I0
sVMemberCount
p3232
I0
sVOwnerUin
p3233
I0
sVAlias
p3234
g48
sVSignature
p3235
g48
sVContactFlag
p3236
I3
sVNickName
p3237
V\u5b9d\u5b9d\u7fa4
p3238
sVRemarkPYQuanPin
p3239
g48
sVHeadImgUrl
p3240
V/cgi-bin/mmwebwx-bin/webwxgetheadimg?seq=660452119&username=@@cb7c23aaea15a81cd9e8471f66065edb7df5d6cdc98c50ced720bb449095eea6&skey=@crypt_870a16cf_456d32d449b4c837b4f12f1e0fbe5017
p3241
sVUin
p3242
I0
sVStarFriend
p3243
I0
sVStatues
p3244
I1
sg3004
Nsa(dp3245
VUserName
p3246
V@@babf84d54438aa742913cfb0ab3c86b76ea8853c4322a353e93e5cb0e1b8a594
p3247
sVCity
p3248
g48
sVDisplayName
p3249
g48
sVUniFriend
p3250
I0
sg2966
(dp3251
g36
g31
sg38
g41
sg40
g41
sg42
I0
sg67
I0
sg43
(lp3252
sg45
g48
sg47
g48
sg77
I1835068021
sg50
I0
sg51
I0
sg52
g41
sg54
g41
sg55
g48
sg56
g48
sg59
I0
sg60
I0
sg61
I1
sg62
g41
sg63
I0
sg65
I17
sg66
I0
sg64
I1
sg68
g41
sg69
g2969
sg71
I0
sg72
g2970
sg74
g48
sg75
g2971
sg49
I1
sg78
I0
sg79
I0
ssVMemberList
p3253
(lp3254
sVPYQuanPin
p3255
Vgongxinhehuadongshujubeijingtongshiqun
p3256
sVRemarkPYInitial
p3257
g48
sVSex
p3258
I0
sVAppAccountFlag
p3259
I0
sVVerifyFlag
p3260
I0
sVProvince
p3261
g48
sVKeyWord
p3262
g48
sVRemarkName
p3263
g48
sVPYInitial
p3264
VGXHHDSJBJTSQ
p3265
sVIsOwner
p3266
I0
sVChatRoomId
p3267
I0
sVHideInputBarFlag
p3268
I0
sVEncryChatRoomId
p3269
g48
sVAttrStatus
p3270
I0
sVSnsFlag
p3271
I0
sVMemberCount
p3272
I0
sVOwnerUin
p3273
I0
sVAlias
p3274
g48
sVSignature
p3275
g48
sVContactFlag
p3276
I1
sVNickName
p3277
V\u516c\u4fe1\u548c\u534e\u4e1c\u6570\u636e\u5317\u4eac\u540c\u4e8b\u7fa4
p3278
sVRemarkPYQuanPin
p3279
g48
sVHeadImgUrl
p3280
V/cgi-bin/mmwebwx-bin/webwxgetheadimg?seq=648848866&username=@@babf84d54438aa742913cfb0ab3c86b76ea8853c4322a353e93e5cb0e1b8a594&skey=@crypt_870a16cf_456d32d449b4c837b4f12f1e0fbe5017
p3281
sVUin
p3282
I0
sVStarFriend
p3283
I0
sVStatues
p3284
I0
sg3004
Nsa(dp3285
VUserName
p3286
V@@ac3ffe818dd4787e363f96c2da19570024cb42b93aa0a121730e4119868c45a6
p3287
sVCity
p3288
g48
sVDisplayName
p3289
g48
sVUniFriend
p3290
I0
sg2966
(dp3291
g36
g31
sg38
g41
sg40
g41
sg42
I0
sg67
I0
sg43
(lp3292
sg45
g48
sg47
g48
sg77
I1835068021
sg50
I0
sg51
I0
sg52
g41
sg54
g41
sg55
g48
sg56
g48
sg59
I0
sg60
I0
sg61
I1
sg62
g41
sg63
I0
sg65
I17
sg66
I0
sg64
I1
sg68
g41
sg69
g2969
sg71
I0
sg72
g2970
sg74
g48
sg75
g2971
sg49
I1
sg78
I0
sg79
I0
ssVMemberList
p3293
(lp3294
sVPYQuanPin
p3295
VteamMiracle
p3296
sVRemarkPYInitial
p3297
g48
sVSex
p3298
I0
sVAppAccountFlag
p3299
I0
sVVerifyFlag
p3300
I0
sVProvince
p3301
g48
sVKeyWord
p3302
g48
sVRemarkName
p3303
g48
sVPYInitial
p3304
VTEAMMIRACLE
p3305
sVIsOwner
p3306
I0
sVChatRoomId
p3307
I0
sVHideInputBarFlag
p3308
I0
sVEncryChatRoomId
p3309
g48
sVAttrStatus
p3310
I0
sVSnsFlag
p3311
I0
sVMemberCount
p3312
I0
sVOwnerUin
p3313
I0
sVAlias
p3314
g48
sVSignature
p3315
g48
sVContactFlag
p3316
I1
sVNickName
p3317
Vteam Miracle
p3318
sVRemarkPYQuanPin
p3319
g48
sVHeadImgUrl
p3320
V/cgi-bin/mmwebwx-bin/webwxgetheadimg?seq=660428943&username=@@ac3ffe818dd4787e363f96c2da19570024cb42b93aa0a121730e4119868c45a6&skey=@crypt_870a16cf_456d32d449b4c837b4f12f1e0fbe5017
p3321
sVUin
p3322
I0
sVStarFriend
p3323
I0
sVStatues
p3324
I0
sg3004
Nsa(dp3325
VUserName
p3326
V@@5c05b083efb2455070f6bcf5a1c887ea0cc15783f211b27c18149af2ef3e8964
p3327
sVCity
p3328
g48
sVDisplayName
p3329
g48
sVUniFriend
p3330
I0
sg2966
(dp3331
g36
g31
sg38
g41
sg40
g41
sg42
I0
sg67
I0
sg43
(lp3332
sg45
g48
sg47
g48
sg77
I1835068021
sg50
I0
sg51
I0
sg52
g41
sg54
g41
sg55
g48
sg56
g48
sg59
I0
sg60
I0
sg61
I1
sg62
g41
sg63
I0
sg65
I17
sg66
I0
sg64
I1
sg68
g41
sg69
g2969
sg71
I0
sg72
g2970
sg74
g48
sg75
g2971
sg49
I1
sg78
I0
sg79
I0
ssVMemberList
p3333
(lp3334
sVPYQuanPin
p3335
Vqingqian12womendegushi
p3336
sVRemarkPYInitial
p3337
g48
sVSex
p3338
I0
sVAppAccountFlag
p3339
I0
sVVerifyFlag
p3340
I0
sVProvince
p3341
g48
sVKeyWord
p3342
g48
sVRemarkName
p3343
g48
sVPYInitial
p3344
VQQ12WMDGS
p3345
sVIsOwner
p3346
I0
sVChatRoomId
p3347
I0
sVHideInputBarFlag
p3348
I0
sVEncryChatRoomId
p3349
g48
sVAttrStatus
p3350
I0
sVSnsFlag
p3351
I0
sVMemberCount
p3352
I0
sVOwnerUin
p3353
I0
sVAlias
p3354
g48
sVSignature
p3355
g48
sVContactFlag
p3356
I1
sVNickName
p3357
V\u60c5\u727512\u6211\u4eec\u7684\u6545\u4e8b
p3358
sVRemarkPYQuanPin
p3359
g48
sVHeadImgUrl
p3360
V/cgi-bin/mmwebwx-bin/webwxgetheadimg?seq=648840742&username=@@5c05b083efb2455070f6bcf5a1c887ea0cc15783f211b27c18149af2ef3e8964&skey=@crypt_870a16cf_456d32d449b4c837b4f12f1e0fbe5017
p3361
sVUin
p3362
I0
sVStarFriend
p3363
I0
sVStatues
p3364
I0
sg3004
NsasS'nickName'
p3365
g2970
sS'mpList'
p3366
(lp3367
(dp3368
VUserName
p3369
V@115513d0986f0d334e0b56cf86e2f0d4
p3370
sVCity
p3371
V\u671d\u9633
p3372
sVDisplayName
p3373
g48
sVUniFriend
p3374
I0
sVMemberList
p3375
(lp3376
sVPYQuanPin
p3377
Vdoubandianying
p3378
sVRemarkPYInitial
p3379
g48
sVUin
p3380
I0
sVAppAccountFlag
p3381
I0
sVVerifyFlag
p3382
I24
sVProvince
p3383
V\u5317\u4eac
p3384
sVKeyWord
p3385
Vgh_
p3386
sVRemarkName
p3387
g48
sVPYInitial
p3388
VDBDY
p3389
sVChatRoomId
p3390
I0
sVIsOwner
p3391
I0
sVHideInputBarFlag
p3392
I0
sVEncryChatRoomId
p3393
g48
sVAttrStatus
p3394
I0
sVSnsFlag
p3395
I0
sVMemberCount
p3396
I0
sVOwnerUin
p3397
I0
sVAlias
p3398
g48
sVSignature
p3399
V\u53d1\u73b0\u597d\u7535\u5f71\uff0c\u5206\u4eab\u770b\u7535\u5f71\u7684\u4e50\u8da3\u3002
p3400
sVContactFlag
p3401
I3
sVNickName
p3402
V\u8c46\u74e3\u7535\u5f71
p3403
sVRemarkPYQuanPin
p3404
g48
sVHeadImgUrl
p3405
V/cgi-bin/mmwebwx-bin/webwxgeticon?seq=628401422&username=@115513d0986f0d334e0b56cf86e2f0d4&skey=@crypt_870a16cf_456d32d449b4c837b4f12f1e0fbe5017
p3406
sVSex
p3407
I0
sVStarFriend
p3408
I0
sVStatues
p3409
I0
sa(dp3410
VUserName
p3411
V@51c3b73950bac7645465df0d6d94400a
p3412
sVCity
p3413
V\u671d\u9633
p3414
sVDisplayName
p3415
g48
sVUniFriend
p3416
I0
sVMemberList
p3417
(lp3418
sVPYQuanPin
p3419
Vguojiarenwenlishi
p3420
sVRemarkPYInitial
p3421
g48
sVUin
p3422
I0
sVAppAccountFlag
p3423
I0
sVVerifyFlag
p3424
I24
sVProvince
p3425
V\u5317\u4eac
p3426
sVKeyWord
p3427
Vgh_
p3428
sVRemarkName
p3429
g48
sVPYInitial
p3430
VGJRWLS
p3431
sVChatRoomId
p3432
I0
sVIsOwner
p3433
I0
sVHideInputBarFlag
p3434
I0
sVEncryChatRoomId
p3435
g48
sVAttrStatus
p3436
I0
sVSnsFlag
p3437
I0
sVMemberCount
p3438
I0
sVOwnerUin
p3439
I0
sVAlias
p3440
g48
sVSignature
p3441
V\u4eba\u6c11\u65e5\u62a5\u793e\u4e3b\u7ba1\u4e3b\u529e\uff0c\u539f\u540d\u300a\u6587\u53f2\u53c2\u8003\u300b\uff0c\u201c\u771f\u76f8\u3001\u8da3\u5473\u3001\u826f\u77e5\u201d\uff0c\u4e3a\u5b66\u672f\u754c\u642d\u5efa\u8bdd\u8bed\u5e73\u53f0\uff0c\u4e3a\u65b0\u9510\u8005\u63d0\u4f9b\u601d\u60f3\u9635\u5730\uff0c\u4e3a\u6587\u53f2\u7231\u597d\u8005\u8425\u9020\u7cbe\u795e\u5bb6\u56ed\u3002
p3442
sVContactFlag
p3443
I3
sVNickName
p3444
V\u56fd\u5bb6\u4eba\u6587\u5386\u53f2
p3445
sVRemarkPYQuanPin
p3446
g48
sVHeadImgUrl
p3447
V/cgi-bin/mmwebwx-bin/webwxgeticon?seq=628401427&username=@51c3b73950bac7645465df0d6d94400a&skey=@crypt_870a16cf_456d32d449b4c837b4f12f1e0fbe5017
p3448
sVSex
p3449
I0
sVStarFriend
p3450
I0
sVStatues
p3451
I0
sa(dp3452
VUserName
p3453
V@ef2345c471efa90d7588abd72ad93060
p3454
sVCity
p3455
V\u671d\u9633
p3456
sVDisplayName
p3457
g48
sVUniFriend
p3458
I0
sVMemberList
p3459
(lp3460
sVPYQuanPin
p3461
VGQshiyanshi
p3462
sVRemarkPYInitial
p3463
g48
sVUin
p3464
I0
sVAppAccountFlag
p3465
I0
sVVerifyFlag
p3466
I24
sVProvince
p3467
V\u5317\u4eac
p3468
sVKeyWord
p3469
Vgh_
p3470
sVRemarkName
p3471
g48
sVPYInitial
p3472
VGQSYS
p3473
sVChatRoomId
p3474
I0
sVIsOwner
p3475
I0
sVHideInputBarFlag
p3476
I0
sVEncryChatRoomId
p3477
g48
sVAttrStatus
p3478
I0
sVSnsFlag
p3479
I0
sVMemberCount
p3480
I0
sVOwnerUin
p3481
I0
sVAlias
p3482
g48
sVSignature
p3483
V\u6709\u578b\u6709\u6b3e\uff0c\u667a\u8da3\u4e0d\u51e1
p3484
sVContactFlag
p3485
I3
sVNickName
p3486
VGQ\u5b9e\u9a8c\u5ba4
p3487
sVRemarkPYQuanPin
p3488
g48
sVHeadImgUrl
p3489
V/cgi-bin/mmwebwx-bin/webwxgeticon?seq=632610432&username=@ef2345c471efa90d7588abd72ad93060&skey=@crypt_870a16cf_456d32d449b4c837b4f12f1e0fbe5017
p3490
sVSex
p3491
I0
sVStarFriend
p3492
I0
sVStatues
p3493
I0
sa(dp3494
VUserName
p3495
V@3fa04c94f4e67efe169cc4d1ad24bc21
p3496
sVCity
p3497
V\u671d\u9633
p3498
sVDisplayName
p3499
g48
sVUniFriend
p3500
I0
sVMemberList
p3501
(lp3502
sVPYQuanPin
p3503
Vzhongguoribaoshuangyuxinwen
p3504
sVRemarkPYInitial
p3505
g48
sVUin
p3506
I0
sVAppAccountFlag
p3507
I0
sVVerifyFlag
p3508
I24
sVProvince
p3509
V\u5317\u4eac
p3510
sVKeyWord
p3511
Vgh_
p3512
sVRemarkName
p3513
g48
sVPYInitial
p3514
VZGRBSYXW
p3515
sVChatRoomId
p3516
I0
sVIsOwner
p3517
I0
sVHideInputBarFlag
p3518
I0
sVEncryChatRoomId
p3519
g48
sVAttrStatus
p3520
I0
sVSnsFlag
p3521
I0
sVMemberCount
p3522
I0
sVOwnerUin
p3523
I0
sVAlias
p3524
g48
sVSignature
p3525
V\u60f3\u5b66\u63a5\u5730\u6c14\u7684\u5b9e\u7528\u82f1\u8bed\u8868\u8fbe\uff1f\u60f3\u770b\u6700\u65b0\u73af\u7403\u70ed\u70b9\u8d44\u8baf\uff1f\u60f3\u4e86\u89e3\u82f1\u7f8e\u56fd\u5bb6\u7684\u6587\u5316\u751f\u6d3b\uff1f\u6765\u627e\u53cc\u8bed\u541b\u5427\uff01\u6bcf\u5468\u4e03\u5929\uff0c\u6211\u4eec\u4e3a\u60a8\u7684\u82f1\u8bed\u4fdd\u9c9c\uff01
p3526
sVContactFlag
p3527
I3
sVNickName
p3528
V\u4e2d\u56fd\u65e5\u62a5\u53cc\u8bed\u65b0\u95fb
p3529
sVRemarkPYQuanPin
p3530
g48
sVHeadImgUrl
p3531
V/cgi-bin/mmwebwx-bin/webwxgeticon?seq=636997382&username=@3fa04c94f4e67efe169cc4d1ad24bc21&skey=@crypt_870a16cf_456d32d449b4c837b4f12f1e0fbe5017
p3532
sVSex
p3533
I0
sVStarFriend
p3534
I0
sVStatues
p3535
I0
sa(dp3536
VUserName
p3537
V@670de96d735cdb52df0a91da3d0b86af
p3538
sVCity
p3539
V\u82cf\u5dde
p3540
sVDisplayName
p3541
g48
sVUniFriend
p3542
I0
sVMemberList
p3543
(lp3544
sVPYQuanPin
p3545
Vyiqishenhuifu
p3546
sVRemarkPYInitial
p3547
g48
sVUin
p3548
I0
sVAppAccountFlag
p3549
I0
sVVerifyFlag
p3550
I24
sVProvince
p3551
V\u6c5f\u82cf
p3552
sVKeyWord
p3553
Vgh_
p3554
sVRemarkName
p3555
g48
sVPYInitial
p3556
VYQSHF
p3557
sVChatRoomId
p3558
I0
sVIsOwner
p3559
I0
sVHideInputBarFlag
p3560
I0
sVEncryChatRoomId
p3561
g48
sVAttrStatus
p3562
I0
sVSnsFlag
p3563
I0
sVMemberCount
p3564
I0
sVOwnerUin
p3565
I0
sVAlias
p3566
g48
sVSignature
p3567
V\u8fd9\u91cc\u662f\u795e\u56de\u590d\u3001\u9ad8\u7ea7\u9ed1\u3001\u5185\u6db5\u6deb\u624d\u805a\u96c6\u5730\uff0c\u8bf7\u81ea\u89c9\u6295\u5165\u4f60\u7684\u8282\u64cd\u3002
p3568
sVContactFlag
p3569
I3
sVNickName
p3570
V\u4e00\u8d77\u795e\u56de\u590d
p3571
sVRemarkPYQuanPin
p3572
g48
sVHeadImgUrl
p3573
V/cgi-bin/mmwebwx-bin/webwxgeticon?seq=660449681&username=@670de96d735cdb52df0a91da3d0b86af&skey=@crypt_870a16cf_456d32d449b4c837b4f12f1e0fbe5017
p3574
sVSex
p3575
I0
sVStarFriend
p3576
I0
sVStatues
p3577
I0
sa(dp3578
VUserName
p3579
V@15b0d2199846e5283d7310d701d35889
p3580
sVCity
p3581
V\u897f\u57ce
p3582
sVDisplayName
p3583
g48
sVUniFriend
p3584
I0
sVMemberList
p3585
(lp3586
sVPYQuanPin
p3587
Vcankaoxiaoxi
p3588
sVRemarkPYInitial
p3589
g48
sVUin
p3590
I0
sVAppAccountFlag
p3591
I0
sVVerifyFlag
p3592
I24
sVProvince
p3593
V\u5317\u4eac
p3594
sVKeyWord
p3595
Vgh_
p3596
sVRemarkName
p3597
g48
sVPYInitial
p3598
VCKXX
p3599
sVChatRoomId
p3600
I0
sVIsOwner
p3601
I0
sVHideInputBarFlag
p3602
I0
sVEncryChatRoomId
p3603
g48
sVAttrStatus
p3604
I0
sVSnsFlag
p3605
I0
sVMemberCount
p3606
I0
sVOwnerUin
p3607
I0
sVAlias
p3608
g48
sVSignature
p3609
V\u7eb5\u89c8\u5916\u56fd\u5a92\u4f53\u6bcf\u65e5\u62a5\u9053\u7cbe\u9009
p3610
sVContactFlag
p3611
I3
sVNickName
p3612
V\u53c2\u8003\u6d88\u606f
p3613
sVRemarkPYQuanPin
p3614
g48
sVHeadImgUrl
p3615
V/cgi-bin/mmwebwx-bin/webwxgeticon?seq=635750147&username=@15b0d2199846e5283d7310d701d35889&skey=@crypt_870a16cf_456d32d449b4c837b4f12f1e0fbe5017
p3616
sVSex
p3617
I0
sVStarFriend
p3618
I0
sVStatues
p3619
I0
sa(dp3620
VUserName
p3621
V@d5df0202b32f9ff07f71c95051cc1ce428d847fab5d81b76374367e526c43ede
p3622
sVCity
p3623
g48
sVDisplayName
p3624
g48
sVUniFriend
p3625
I0
sVMemberList
p3626
(lp3627
sVPYQuanPin
p3628
Vlengxiaohuajingxuan
p3629
sVRemarkPYInitial
p3630
g48
sVUin
p3631
I0
sVAppAccountFlag
p3632
I0
sVVerifyFlag
p3633
I24
sVProvince
p3634
V\u5317\u4eac
p3635
sVKeyWord
p3636
g48
sVRemarkName
p3637
g48
sVPYInitial
p3638
VLXHJX
p3639
sVChatRoomId
p3640
I0
sVIsOwner
p3641
I0
sVHideInputBarFlag
p3642
I0
sVEncryChatRoomId
p3643
g48
sVAttrStatus
p3644
I98307
sVSnsFlag
p3645
I0
sVMemberCount
p3646
I0
sVOwnerUin
p3647
I0
sVAlias
p3648
g48
sVSignature
p3649
V\u641e\u7b11\u5927\u5947\u8469\uff0c\u5410\u69fd\u8001\u4e13\u5bb6\uff0c\u8ba4\u771f\u8bb2\u7b11\u8bdd\uff0c\u51b7\u54e5\u5e05\u6389\u6e23\uff01\u5fae\u535a\u4e0a\u7684\u641e\u7b11\u5927\u5496 @\u51b7\u7b11\u8bdd\u7cbe\u9009 \u5c31\u662f\u6211\uff0c\u522b\u65e0\u4e8c\u5bb6\uff01
p3650
sVContactFlag
p3651
I3
sVNickName
p3652
V\u51b7\u7b11\u8bdd\u7cbe\u9009
p3653
sVRemarkPYQuanPin
p3654
g48
sVHeadImgUrl
p3655
V/cgi-bin/mmwebwx-bin/webwxgeticon?seq=930052&username=@d5df0202b32f9ff07f71c95051cc1ce428d847fab5d81b76374367e526c43ede&skey=@crypt_870a16cf_456d32d449b4c837b4f12f1e0fbe5017
p3656
sVSex
p3657
I0
sVStarFriend
p3658
I0
sVStatues
p3659
I0
sa(dp3660
VUserName
p3661
V@d28426695204989f7deb22e6662f03fc
p3662
sVCity
p3663
V\u5e7f\u5dde
p3664
sVDisplayName
p3665
g48
sVUniFriend
p3666
I0
sVMemberList
p3667
(lp3668
sVPYQuanPin
p3669
VCITYZINE
p3670
sVRemarkPYInitial
p3671
g48
sVUin
p3672
I0
sVAppAccountFlag
p3673
I0
sVVerifyFlag
p3674
I24
sVProvince
p3675
V\u5e7f\u4e1c
p3676
sVKeyWord
p3677
Vgh_
p3678
sVRemarkName
p3679
g48
sVPYInitial
p3680
VCITYZINE
p3681
sVChatRoomId
p3682
I0
sVIsOwner
p3683
I0
sVHideInputBarFlag
p3684
I0
sVEncryChatRoomId
p3685
g48
sVAttrStatus
p3686
I0
sVSnsFlag
p3687
I0
sVMemberCount
p3688
I0
sVOwnerUin
p3689
I0
sVAlias
p3690
g48
sVSignature
p3691
V\u300a\u57ce\u5e02\u753b\u62a5\u300b\u5b98\u65b9\u8ba2\u9605\u53f7\uff0c\u5176\u4ed6\u90fd\u662f\u5047\u7684\u3002\u6211\u4eec\u628a\u8109\u57ce\u5e02\u9752\u5e74\u7684\u65b0\u9c9c\u5fd7\u8da3\uff0c\u5206\u4eab\u8df3\u8d77\u6765\u5c31\u591f\u5f97\u7740\u7684\u751f\u6d3b\u3002
p3692
sVContactFlag
p3693
I3
sVNickName
p3694
VCITYZINE
p3695
sVRemarkPYQuanPin
p3696
g48
sVHeadImgUrl
p3697
V/cgi-bin/mmwebwx-bin/webwxgeticon?seq=633322332&username=@d28426695204989f7deb22e6662f03fc&skey=@crypt_870a16cf_456d32d449b4c837b4f12f1e0fbe5017
p3698
sVSex
p3699
I0
sVStarFriend
p3700
I0
sVStatues
p3701
I0
sa(dp3702
VUserName
p3703
V@29a13ec15a4b9f32d516ca2ab149177e
p3704
sVCity
p3705
V\u53f0\u5317\u5e02
p3706
sVDisplayName
p3707
g48
sVUniFriend
p3708
I0
sVMemberList
p3709
(lp3710
sVPYQuanPin
p3711
Vkanshuyoudao
p3712
sVRemarkPYInitial
p3713
g48
sVUin
p3714
I0
sVAppAccountFlag
p3715
I0
sVVerifyFlag
p3716
I8
sVProvince
p3717
V\u53f0\u6e7e
p3718
sVKeyWord
p3719
Vgh_
p3720
sVRemarkName
p3721
g48
sVPYInitial
p3722
VKSYD
p3723
sVChatRoomId
p3724
I0
sVIsOwner
p3725
I0
sVHideInputBarFlag
p3726
I0
sVEncryChatRoomId
p3727
g48
sVAttrStatus
p3728
I0
sVSnsFlag
p3729
I0
sVMemberCount
p3730
I0
sVOwnerUin
p3731
I0
sVAlias
p3732
g48
sVSignature
p3733
V\u6bcf\u665a9:30\uff0c\u966a\u4f60\u628a\u751f\u6d3b\u8fc7\u6210\u8bd7\u3002
p3734
sVContactFlag
p3735
I3
sVNickName
p3736
V\u770b\u4e66\u6709\u9053
p3737
sVRemarkPYQuanPin
p3738
g48
sVHeadImgUrl
p3739
V/cgi-bin/mmwebwx-bin/webwxgeticon?seq=620902294&username=@29a13ec15a4b9f32d516ca2ab149177e&skey=@crypt_870a16cf_456d32d449b4c837b4f12f1e0fbe5017
p3740
sVSex
p3741
I0
sVStarFriend
p3742
I0
sVStatues
p3743
I0
sa(dp3744
VUserName
p3745
V@6cbbf21bc4361a8904f3fdc016960817e237054c15d0c45ccef6f1388575af23
p3746
sVCity
p3747
V\u671d\u9633
p3748
sVDisplayName
p3749
g48
sVUniFriend
p3750
I0
sVMemberList
p3751
(lp3752
sVPYQuanPin
p3753
Vguokewang
p3754
sVRemarkPYInitial
p3755
g48
sVUin
p3756
I0
sVAppAccountFlag
p3757
I0
sVVerifyFlag
p3758
I24
sVProvince
p3759
V\u5317\u4eac
p3760
sVKeyWord
p3761
g48
sVRemarkName
p3762
g48
sVPYInitial
p3763
VGKW
p3764
sVChatRoomId
p3765
I0
sVIsOwner
p3766
I0
sVHideInputBarFlag
p3767
I0
sVEncryChatRoomId
p3768
g48
sVAttrStatus
p3769
I0
sVSnsFlag
p3770
I0
sVMemberCount
p3771
I0
sVOwnerUin
p3772
I0
sVAlias
p3773
g48
sVSignature
p3774
V\u679c\u58f3\u7f51\uff08Guokr.com\uff09\u662f\u5f00\u653e\u3001\u591a\u5143\u7684\u6cdb\u79d1\u6280\u5174\u8da3\u793e\u533a\u3002
p3775
sVContactFlag
p3776
I3
sVNickName
p3777
V\u679c\u58f3\u7f51
p3778
sVRemarkPYQuanPin
p3779
g48
sVHeadImgUrl
p3780
V/cgi-bin/mmwebwx-bin/webwxgeticon?seq=620904417&username=@6cbbf21bc4361a8904f3fdc016960817e237054c15d0c45ccef6f1388575af23&skey=@crypt_870a16cf_456d32d449b4c837b4f12f1e0fbe5017
p3781
sVSex
p3782
I0
sVStarFriend
p3783
I0
sVStatues
p3784
I0
sa(dp3785
VUserName
p3786
V@24c65c7cd3ee090d5e49006c1556a619
p3787
sVCity
p3788
V\u6df1\u5733
p3789
sVDisplayName
p3790
g48
sVUniFriend
p3791
I0
sVMemberList
p3792
(lp3793
sVPYQuanPin
p3794
Vweixinhongbao
p3795
sVRemarkPYInitial
p3796
g48
sVUin
p3797
I0
sVAppAccountFlag
p3798
I0
sVVerifyFlag
p3799
I24
sVProvince
p3800
V\u5e7f\u4e1c
p3801
sVKeyWord
p3802
Vgh_
p3803
sVRemarkName
p3804
g48
sVPYInitial
p3805
VWXHB
p3806
sVChatRoomId
p3807
I0
sVIsOwner
p3808
I0
sVHideInputBarFlag
p3809
I0
sVEncryChatRoomId
p3810
g48
sVAttrStatus
p3811
I0
sVSnsFlag
p3812
I0
sVMemberCount
p3813
I0
sVOwnerUin
p3814
I0
sVAlias
p3815
g48
sVSignature
p3816
V\u5fae\u4fe1\u7ea2\u5305\u5b98\u65b9\u5e73\u53f0\uff0c\u4e3a\u4f60\u63d0\u4f9b\u5feb\u6377\u5b89\u5168\u597d\u73a9\u7684\u53d1\u7ea2\u5305\u670d\u52a1
p3817
sVContactFlag
p3818
I1
sVNickName
p3819
V\u5fae\u4fe1\u7ea2\u5305
p3820
sVRemarkPYQuanPin
p3821
g48
sVHeadImgUrl
p3822
V/cgi-bin/mmwebwx-bin/webwxgeticon?seq=621932586&username=@24c65c7cd3ee090d5e49006c1556a619&skey=@crypt_870a16cf_456d32d449b4c837b4f12f1e0fbe5017
p3823
sVSex
p3824
I0
sVStarFriend
p3825
I0
sVStatues
p3826
I0
sa(dp3827
VUserName
p3828
V@5479ba92a21324fc521ee588e8c60812
p3829
sVCity
p3830
V\u671d\u9633
p3831
sVDisplayName
p3832
g48
sVUniFriend
p3833
I0
sVMemberList
p3834
(lp3835
sVPYQuanPin
p3836
Vdaxianggonghui
p3837
sVRemarkPYInitial
p3838
g48
sVUin
p3839
I0
sVAppAccountFlag
p3840
I0
sVVerifyFlag
p3841
I24
sVProvince
p3842
V\u5317\u4eac
p3843
sVKeyWord
p3844
Vgh_
p3845
sVRemarkName
p3846
g48
sVPYInitial
p3847
VDXGH
p3848
sVChatRoomId
p3849
I0
sVIsOwner
p3850
I0
sVHideInputBarFlag
p3851
I0
sVEncryChatRoomId
p3852
g48
sVAttrStatus
p3853
I0
sVSnsFlag
p3854
I0
sVMemberCount
p3855
I0
sVOwnerUin
p3856
I0
sVAlias
p3857
g48
sVSignature
p3858
V\u7cbe\u795e\u98df\u7cae\u3002
p3859
sVContactFlag
p3860
I3
sVNickName
p3861
V\u5927\u8c61\u516c\u4f1a
p3862
sVRemarkPYQuanPin
p3863
g48
sVHeadImgUrl
p3864
V/cgi-bin/mmwebwx-bin/webwxgeticon?seq=628400149&username=@5479ba92a21324fc521ee588e8c60812&skey=@crypt_870a16cf_456d32d449b4c837b4f12f1e0fbe5017
p3865
sVSex
p3866
I0
sVStarFriend
p3867
I0
sVStatues
p3868
I0
sa(dp3869
VUserName
p3870
V@21a7f36d2f22e3643348347af07f13c74c8001bbc6e1a903ebc4dd524b0d9fcc
p3871
sVCity
p3872
V\u671d\u9633
p3873
sVDisplayName
p3874
g48
sVUniFriend
p3875
I0
sVMemberList
p3876
(lp3877
sVPYQuanPin
p3878
Vyidou
p3879
sVRemarkPYInitial
p3880
g48
sVUin
p3881
I0
sVAppAccountFlag
p3882
I0
sVVerifyFlag
p3883
I24
sVProvince
p3884
V\u5317\u4eac
p3885
sVKeyWord
p3886
g48
sVRemarkName
p3887
g48
sVPYInitial
p3888
VYD
p3889
sVChatRoomId
p3890
I0
sVIsOwner
p3891
I0
sVHideInputBarFlag
p3892
I0
sVEncryChatRoomId
p3893
g48
sVAttrStatus
p3894
I0
sVSnsFlag
p3895
I0
sVMemberCount
p3896
I0
sVOwnerUin
p3897
I0
sVAlias
p3898
g48
sVSignature
p3899
V\u65e5\u5e38\u751f\u6d3b\u4e2d\u7684\u767e\u79d1\u3001\u6587\u827a\u80cc\u540e\u7684\u5386\u53f2\uff0c\u70ed\u70b9\u6df1\u5904\u7684\u51b7\u77e5\u8bc6\u3002\u7528\u8f7b\u5e7d\u9ed8\u3001\u6709\u60c5\u8da3\u7684\u65b9\u5f0f\u4e00\u8d77\u6da8\u59ff\u52bf\u3001\u6b63\u4e09\u89c2\u3002
p3900
sVContactFlag
p3901
I3
sVNickName
p3902
V\u58f9\u8bfb
p3903
sVRemarkPYQuanPin
p3904
g48
sVHeadImgUrl
p3905
V/cgi-bin/mmwebwx-bin/webwxgeticon?seq=628400152&username=@21a7f36d2f22e3643348347af07f13c74c8001bbc6e1a903ebc4dd524b0d9fcc&skey=@crypt_870a16cf_456d32d449b4c837b4f12f1e0fbe5017
p3906
sVSex
p3907
I0
sVStarFriend
p3908
I0
sVStatues
p3909
I0
sa(dp3910
VUserName
p3911
V@5c4c5001863578cb4f47f09d5f3496e4
p3912
sVCity
p3913
g48
sVDisplayName
p3914
g48
sVUniFriend
p3915
I0
sVMemberList
p3916
(lp3917
sVPYQuanPin
p3918
Vzazheng
p3919
sVRemarkPYInitial
p3920
g48
sVUin
p3921
I0
sVAppAccountFlag
p3922
I0
sVVerifyFlag
p3923
I24
sVProvince
p3924
V\u5317\u4eac
p3925
sVKeyWord
p3926
Vgh_
p3927
sVRemarkName
p3928
g48
sVPYInitial
p3929
VZZ
p3930
sVChatRoomId
p3931
I0
sVIsOwner
p3932
I0
sVHideInputBarFlag
p3933
I0
sVEncryChatRoomId
p3934
g48
sVAttrStatus
p3935
I0
sVSnsFlag
p3936
I0
sVMemberCount
p3937
I0
sVOwnerUin
p3938
I0
sVAlias
p3939
g48
sVSignature
p3940
V\u8111\u6d1e\u6307\u5357\uff0c\u4eba\u751f\u6307\u5317\u3002
p3941
sVContactFlag
p3942
I3
sVNickName
p3943
V\u548b\u6574
p3944
sVRemarkPYQuanPin
p3945
g48
sVHeadImgUrl
p3946
V/cgi-bin/mmwebwx-bin/webwxgeticon?seq=628401439&username=@5c4c5001863578cb4f47f09d5f3496e4&skey=@crypt_870a16cf_456d32d449b4c837b4f12f1e0fbe5017
p3947
sVSex
p3948
I0
sVStarFriend
p3949
I0
sVStatues
p3950
I0
sa(dp3951
VUserName
p3952
V@e7836ff3093b5fbf6e37ac0691235103
p3953
sVCity
p3954
V\u4e1c\u57ce
p3955
sVDisplayName
p3956
g48
sVUniFriend
p3957
I0
sVMemberList
p3958
(lp3959
sVPYQuanPin
p3960
Vxinjingbaoshupingzhoukan
p3961
sVRemarkPYInitial
p3962
g48
sVUin
p3963
I0
sVAppAccountFlag
p3964
I0
sVVerifyFlag
p3965
I24
sVProvince
p3966
V\u5317\u4eac
p3967
sVKeyWord
p3968
Vgh_
p3969
sVRemarkName
p3970
g48
sVPYInitial
p3971
VXJBSPZK
p3972
sVChatRoomId
p3973
I0
sVIsOwner
p3974
I0
sVHideInputBarFlag
p3975
I0
sVEncryChatRoomId
p3976
g48
sVAttrStatus
p3977
I0
sVSnsFlag
p3978
I0
sVMemberCount
p3979
I0
sVOwnerUin
p3980
I0
sVAlias
p3981
g48
sVSignature
p3982
V\u65b0\u4eac\u62a5\u4e66\u8bc4\u5468\u520a2003\u5e74\u521b\u520a\uff0c\u6bcf\u5468\u516d\u51fa\u7248\u53d1\u884c\uff0c\u53e3\u53f7\u662f\u201c\u9605\u8bfb\u9700\u8981\u4e3b\u5f20\u201d\u3002\u4e66\u8bc4\u5468\u520a\u6c14\u8d28\u662f\u4e25\u8083\u800c\u6709\u8da3\uff0c\u4e3b\u8981\u8bc4\u4ef7\u56fd\u5185\u5916\u51fa\u7248\u7684\u5927\u4f17\u7c7b\u4f18\u79c0\u56fe\u4e66\u3002
p3983
sVContactFlag
p3984
I3
sVNickName
p3985
V\u65b0\u4eac\u62a5\u4e66\u8bc4\u5468\u520a
p3986
sVRemarkPYQuanPin
p3987
g48
sVHeadImgUrl
p3988
V/cgi-bin/mmwebwx-bin/webwxgeticon?seq=632140146&username=@e7836ff3093b5fbf6e37ac0691235103&skey=@crypt_870a16cf_456d32d449b4c837b4f12f1e0fbe5017
p3989
sVSex
p3990
I0
sVStarFriend
p3991
I0
sVStatues
p3992
I0
sa(dp3993
VUserName
p3994
V@bd8083bc193fa1541f962011b4926183
p3995
sVCity
p3996
V\u897f\u57ce
p3997
sVDisplayName
p3998
g48
sVUniFriend
p3999
I0
sVMemberList
p4000
(lp4001
sVPYQuanPin
p4002
Vweidou
p4003
sVRemarkPYInitial
p4004
g48
sVUin
p4005
I0
sVAppAccountFlag
p4006
I0
sVVerifyFlag
p4007
I24
sVProvince
p4008
V\u5317\u4eac
p4009
sVKeyWord
p4010
Vgh_
p4011
sVRemarkName
p4012
g48
sVPYInitial
p4013
VWD
p4014
sVChatRoomId
p4015
I0
sVIsOwner
p4016
I0
sVHideInputBarFlag
p4017
I0
sVEncryChatRoomId
p4018
g48
sVAttrStatus
p4019
I0
sVSnsFlag
p4020
I0
sVMemberCount
p4021
I0
sVOwnerUin
p4022
I0
sVAlias
p4023
g48
sVSignature
p4024
V\u672a\u8bfb\u4e4b\u4e66\uff0c\u672a\u7ecf\u4e4b\u65c5\u2026\u2026   \u4ece\u672a\u8bfb\uff0c\u5230\u5df2\u8bfb\uff0c\u966a\u4f60\u5ea6\u8fc7\u788e\u7247\u65f6\u5149\u4e2d\u6700\u7f8e\u7684\u4e00\u6bb5\u65c5\u7a0b\u3002
p4025
sVContactFlag
p4026
I3
sVNickName
p4027
V\u672a\u8bfb
p4028
sVRemarkPYQuanPin
p4029
g48
sVHeadImgUrl
p4030
V/cgi-bin/mmwebwx-bin/webwxgeticon?seq=631320946&username=@bd8083bc193fa1541f962011b4926183&skey=@crypt_870a16cf_456d32d449b4c837b4f12f1e0fbe5017
p4031
sVSex
p4032
I0
sVStarFriend
p4033
I0
sVStatues
p4034
I0
sa(dp4035
VUserName
p4036
V@3efc441eb7c805f070dde57525240be0
p4037
sVCity
p4038
V\u671d\u9633
p4039
sVDisplayName
p4040
g48
sVUniFriend
p4041
I0
sVMemberList
p4042
(lp4043
sVPYQuanPin
p4044
VBadGuy
p4045
sVRemarkPYInitial
p4046
g48
sVUin
p4047
I0
sVAppAccountFlag
p4048
I0
sVVerifyFlag
p4049
I8
sVProvince
p4050
V\u5317\u4eac
p4051
sVKeyWord
p4052
Vgh_
p4053
sVRemarkName
p4054
g48
sVPYInitial
p4055
VBADGUY
p4056
sVChatRoomId
p4057
I0
sVIsOwner
p4058
I0
sVHideInputBarFlag
p4059
I0
sVEncryChatRoomId
p4060
g48
sVAttrStatus
p4061
I0
sVSnsFlag
p4062
I0
sVMemberCount
p4063
I0
sVOwnerUin
p4064
I0
sVAlias
p4065
g48
sVSignature
p4066
V\u751f\u6d3b\u8981\u6027\u611f\uff0c\u7075\u9b42\u8981\u9a9a\u6c14
p4067
sVContactFlag
p4068
I3
sVNickName
p4069
VBad Guy
p4070
sVRemarkPYQuanPin
p4071
g48
sVHeadImgUrl
p4072
V/cgi-bin/mmwebwx-bin/webwxgeticon?seq=632610730&username=@3efc441eb7c805f070dde57525240be0&skey=@crypt_870a16cf_456d32d449b4c837b4f12f1e0fbe5017
p4073
sVSex
p4074
I0
sVStarFriend
p4075
I0
sVStatues
p4076
I0
sa(dp4077
VUserName
p4078
V@916ce421137a632b4ded3f721c7c3de8
p4079
sVCity
p4080
V\u4e1c\u57ce
p4081
sVDisplayName
p4082
g48
sVUniFriend
p4083
I0
sVMemberList
p4084
(lp4085
sVPYQuanPin
p4086
Vzhongguoqingnianbao
p4087
sVRemarkPYInitial
p4088
g48
sVUin
p4089
I0
sVAppAccountFlag
p4090
I0
sVVerifyFlag
p4091
I24
sVProvince
p4092
V\u5317\u4eac
p4093
sVKeyWord
p4094
Vgh_
p4095
sVRemarkName
p4096
g48
sVPYInitial
p4097
VZGQNB
p4098
sVChatRoomId
p4099
I0
sVIsOwner
p4100
I0
sVHideInputBarFlag
p4101
I0
sVEncryChatRoomId
p4102
g48
sVAttrStatus
p4103
I0
sVSnsFlag
p4104
I0
sVMemberCount
p4105
I0
sVOwnerUin
p4106
I0
sVAlias
p4107
g48
sVSignature
p4108
V\u5386\u53f2\u7684\u4e00\u4efd\u5e95\u7a3f\u3002
p4109
sVContactFlag
p4110
I3
sVNickName
p4111
V\u4e2d\u56fd\u9752\u5e74\u62a5
p4112
sVRemarkPYQuanPin
p4113
g48
sVHeadImgUrl
p4114
V/cgi-bin/mmwebwx-bin/webwxgeticon?seq=632610916&username=@916ce421137a632b4ded3f721c7c3de8&skey=@crypt_870a16cf_456d32d449b4c837b4f12f1e0fbe5017
p4115
sVSex
p4116
I0
sVStarFriend
p4117
I0
sVStatues
p4118
I0
sa(dp4119
VUserName
p4120
V@05ca366f0f1bed5e1b143b54cd5d3fc3
p4121
sVCity
p4122
V\u6df1\u5733
p4123
sVDisplayName
p4124
g48
sVUniFriend
p4125
I0
sVMemberList
p4126
(lp4127
sVPYQuanPin
p4128
Vbuzhidoushu
p4129
sVRemarkPYInitial
p4130
g48
sVUin
p4131
I0
sVAppAccountFlag
p4132
I0
sVVerifyFlag
p4133
I8
sVProvince
p4134
V\u5e7f\u4e1c
p4135
sVKeyWord
p4136
Vgh_
p4137
sVRemarkName
p4138
g48
sVPYInitial
p4139
VBZDS
p4140
sVChatRoomId
p4141
I0
sVIsOwner
p4142
I0
sVHideInputBarFlag
p4143
I0
sVEncryChatRoomId
p4144
g48
sVAttrStatus
p4145
I0
sVSnsFlag
p4146
I0
sVMemberCount
p4147
I0
sVOwnerUin
p4148
I0
sVAlias
p4149
g48
sVSignature
p4150
V\u4e0d\u6b62\u8bfb\u4e66\uff0c\u8bfb\u4e66\u4e0d\u6b62\u3002\u55ef\u54fc\u3002
p4151
sVContactFlag
p4152
I3
sVNickName
p4153
V\u4e0d\u6b62\u8bfb\u4e66
p4154
sVRemarkPYQuanPin
p4155
g48
sVHeadImgUrl
p4156
V/cgi-bin/mmwebwx-bin/webwxgeticon?seq=629041612&username=@05ca366f0f1bed5e1b143b54cd5d3fc3&skey=@crypt_870a16cf_456d32d449b4c837b4f12f1e0fbe5017
p4157
sVSex
p4158
I0
sVStarFriend
p4159
I0
sVStatues
p4160
I0
sa(dp4161
VUserName
p4162
V@d9d3002a1fc06b3e65df4b76e4373c0a
p4163
sVCity
p4164
V\u4e5d\u9f99\u57ce\u533a
p4165
sVDisplayName
p4166
g48
sVUniFriend
p4167
I0
sVMemberList
p4168
(lp4169
sVPYQuanPin
p4170
Vjingcaidianying
p4171
sVRemarkPYInitial
p4172
g48
sVUin
p4173
I0
sVAppAccountFlag
p4174
I0
sVVerifyFlag
p4175
I8
sVProvince
p4176
V\u9999\u6e2f
p4177
sVKeyWord
p4178
Vgh_
p4179
sVRemarkName
p4180
g48
sVPYInitial
p4181
VJCDY
p4182
sVChatRoomId
p4183
I0
sVIsOwner
p4184
I0
sVHideInputBarFlag
p4185
I0
sVEncryChatRoomId
p4186
g48
sVAttrStatus
p4187
I0
sVSnsFlag
p4188
I0
sVMemberCount
p4189
I0
sVOwnerUin
p4190
I0
sVAlias
p4191
g48
sVSignature
p4192
V\u6c47\u96c6\u6700\u65b0\u7535\u5f71\u8d44\u8baf\u3001\u63a8\u8350\u5168\u7403\u597d\u7535\u5f71\u3001\u70ed\u95e8\u77ed\u7247\u3001\u5f71\u89c6\u539f\u58f0\u7b49\u3002\u6bcf\u665a21\uff1a21\uff0c\u5f69\u5a18\u4e0e\u4f60\u4e0d\u89c1\u4e0d\u6563\u3002
p4193
sVContactFlag
p4194
I3
sVNickName
p4195
V\u7cbe\u5f69\u7535\u5f71
p4196
sVRemarkPYQuanPin
p4197
g48
sVHeadImgUrl
p4198
V/cgi-bin/mmwebwx-bin/webwxgeticon?seq=930897&username=@d9d3002a1fc06b3e65df4b76e4373c0a&skey=@crypt_870a16cf_456d32d449b4c837b4f12f1e0fbe5017
p4199
sVSex
p4200
I0
sVStarFriend
p4201
I0
sVStatues
p4202
I0
sa(dp4203
VUserName
p4204
V@a409edd5191be2e38ed28522ffad74a6
p4205
sVCity
p4206
V\u957f\u5b81
p4207
sVDisplayName
p4208
g48
sVUniFriend
p4209
I0
sVMemberList
p4210
(lp4211
sVPYQuanPin
p4212
Vduankushipin
p4213
sVRemarkPYInitial
p4214
g48
sVUin
p4215
I0
sVAppAccountFlag
p4216
I0
sVVerifyFlag
p4217
I24
sVProvince
p4218
V\u4e0a\u6d77
p4219
sVKeyWord
p4220
Vgh_
p4221
sVRemarkName
p4222
g48
sVPYInitial
p4223
VDKSP
p4224
sVChatRoomId
p4225
I0
sVIsOwner
p4226
I0
sVHideInputBarFlag
p4227
I0
sVEncryChatRoomId
p4228
g48
sVAttrStatus
p4229
I0
sVSnsFlag
p4230
I0
sVMemberCount
p4231
I0
sVOwnerUin
p4232
I0
sVAlias
p4233
g48
sVSignature
p4234
V\u53d1\u73b0\u3001\u5206\u4eab\u3001\u751f\u4ea7\u53c8\u77ed\u53c8\u9177\u7684\u89c6\u9891
p4235
sVContactFlag
p4236
I3
sVNickName
p4237
V\u77ed\u88e4\u89c6\u9891
p4238
sVRemarkPYQuanPin
p4239
g48
sVHeadImgUrl
p4240
V/cgi-bin/mmwebwx-bin/webwxgeticon?seq=628400155&username=@a409edd5191be2e38ed28522ffad74a6&skey=@crypt_870a16cf_456d32d449b4c837b4f12f1e0fbe5017
p4241
sVSex
p4242
I0
sVStarFriend
p4243
I0
sVStatues
p4244
I0
sa(dp4245
VUserName
p4246
V@b6388f5b8e7724968bbe83c47a704b98
p4247
sVCity
p4248
V\u4e1c\u57ce
p4249
sVDisplayName
p4250
g48
sVUniFriend
p4251
I0
sVMemberList
p4252
(lp4253
sVPYQuanPin
p4254
Vcaihuoche
p4255
sVRemarkPYInitial
p4256
g48
sVUin
p4257
I0
sVAppAccountFlag
p4258
I0
sVVerifyFlag
p4259
I8
sVProvince
p4260
V\u5317\u4eac
p4261
sVKeyWord
p4262
Vgh_
p4263
sVRemarkName
p4264
g48
sVPYInitial
p4265
VCHC
p4266
sVChatRoomId
p4267
I0
sVIsOwner
p4268
I0
sVHideInputBarFlag
p4269
I0
sVEncryChatRoomId
p4270
g48
sVAttrStatus
p4271
I0
sVSnsFlag
p4272
I0
sVMemberCount
p4273
I0
sVOwnerUin
p4274
I0
sVAlias
p4275
g48
sVSignature
p4276
Vlooking ahead to the day you die .
p4277
sVContactFlag
p4278
I3
sVNickName
p4279
V\u731c\u706b\u8f66
p4280
sVRemarkPYQuanPin
p4281
g48
sVHeadImgUrl
p4282
V/cgi-bin/mmwebwx-bin/webwxgeticon?seq=633322225&username=@b6388f5b8e7724968bbe83c47a704b98&skey=@crypt_870a16cf_456d32d449b4c837b4f12f1e0fbe5017
p4283
sVSex
p4284
I0
sVStarFriend
p4285
I0
sVStatues
p4286
I0
sa(dp4287
VUserName
p4288
V@aabb5568b3345694c71b14b01e57c07cac5a33a4c6906b4d925f6f8b17d977b1
p4289
sVCity
p4290
V\u671d\u9633
p4291
sVDisplayName
p4292
g48
sVUniFriend
p4293
I0
sVMemberList
p4294
(lp4295
sVPYQuanPin
p4296
Vguojiadelizhongwenwang
p4297
sVRemarkPYInitial
p4298
g48
sVUin
p4299
I0
sVAppAccountFlag
p4300
I0
sVVerifyFlag
p4301
I24
sVProvince
p4302
V\u5317\u4eac
p4303
sVKeyWord
p4304
g48
sVRemarkName
p4305
g48
sVPYInitial
p4306
VGJDLZWW
p4307
sVChatRoomId
p4308
I0
sVIsOwner
p4309
I0
sVHideInputBarFlag
p4310
I0
sVEncryChatRoomId
p4311
g48
sVAttrStatus
p4312
I98459
sVSnsFlag
p4313
I0
sVMemberCount
p4314
I0
sVOwnerUin
p4315
I0
sVAlias
p4316
g48
sVSignature
p4317
V\u4eba\u6587\u5730\u7406\u3001\u79d1\u5b66\u65b0\u77e5\u3001\u65c5\u884c\u63a2\u9669\u3001\u6444\u5f71\u5927\u7247\u2014\u2014\u8ba9\u9ec4\u6846\u7684\u4e16\u754c\u70b9\u4eae\u4f60\u7684\u89c6\u754c\uff01
p4318
sVContactFlag
p4319
I3
sVNickName
p4320
V\u56fd\u5bb6\u5730\u7406\u4e2d\u6587\u7f51
p4321
sVRemarkPYQuanPin
p4322
g48
sVHeadImgUrl
p4323
V/cgi-bin/mmwebwx-bin/webwxgeticon?seq=633320365&username=@aabb5568b3345694c71b14b01e57c07cac5a33a4c6906b4d925f6f8b17d977b1&skey=@crypt_870a16cf_456d32d449b4c837b4f12f1e0fbe5017
p4324
sVSex
p4325
I0
sVStarFriend
p4326
I0
sVStatues
p4327
I0
sa(dp4328
VUserName
p4329
V@8df59dc60ceb4032a3a65aee7d91a1ea
p4330
sVCity
p4331
V\u671d\u9633
p4332
sVDisplayName
p4333
g48
sVUniFriend
p4334
I0
sVMemberList
p4335
(lp4336
sVPYQuanPin
p4337
VWhat
p4338
sVRemarkPYInitial
p4339
g48
sVUin
p4340
I0
sVAppAccountFlag
p4341
I0
sVVerifyFlag
p4342
I8
sVProvince
p4343
V\u5317\u4eac
p4344
sVKeyWord
p4345
Vgh_
p4346
sVRemarkName
p4347
g48
sVPYInitial
p4348
VWHAT
p4349
sVChatRoomId
p4350
I0
sVIsOwner
p4351
I0
sVHideInputBarFlag
p4352
I0
sVEncryChatRoomId
p4353
g48
sVAttrStatus
p4354
I0
sVSnsFlag
p4355
I0
sVMemberCount
p4356
I0
sVOwnerUin
p4357
I0
sVAlias
p4358
g48
sVSignature
p4359
V\u4e00\u672c\u4e0d\u6b63\u7ecf\u7684\u5468\u66f4\u539f\u521b\u7f8e\u5267\u6742\u5fd7
p4360
sVContactFlag
p4361
I3
sVNickName
p4362
VWhat
p4363
sVRemarkPYQuanPin
p4364
g48
sVHeadImgUrl
p4365
V/cgi-bin/mmwebwx-bin/webwxgeticon?seq=633325369&username=@8df59dc60ceb4032a3a65aee7d91a1ea&skey=@crypt_870a16cf_456d32d449b4c837b4f12f1e0fbe5017
p4366
sVSex
p4367
I0
sVStarFriend
p4368
I0
sVStatues
p4369
I0
sa(dp4370
VUserName
p4371
V@5a0f575888e9cdaef8729aa135b380ae
p4372
sVCity
p4373
V\u83cf\u6cfd
p4374
sVDisplayName
p4375
g48
sVUniFriend
p4376
I0
sVMemberList
p4377
(lp4378
sVPYQuanPin
p4379
Vqingniantegao
p4380
sVRemarkPYInitial
p4381
g48
sVUin
p4382
I0
sVAppAccountFlag
p4383
I0
sVVerifyFlag
p4384
I8
sVProvince
p4385
V\u5c71\u4e1c
p4386
sVKeyWord
p4387
Vgh_
p4388
sVRemarkName
p4389
g48
sVPYInitial
p4390
VQNTG
p4391
sVChatRoomId
p4392
I0
sVIsOwner
p4393
I0
sVHideInputBarFlag
p4394
I0
sVEncryChatRoomId
p4395
g48
sVAttrStatus
p4396
I0
sVSnsFlag
p4397
I0
sVMemberCount
p4398
I0
sVOwnerUin
p4399
I0
sVAlias
p4400
g48
sVSignature
p4401
V\u6765\u4e86\u5c31\u4e0d\u80fd\u8d70\u4e86\u3002 \u6015\u4e48\uff1f
p4402
sVContactFlag
p4403
I3
sVNickName
p4404
V\u9752\u5e74\u7279\u7a3f
p4405
sVRemarkPYQuanPin
p4406
g48
sVHeadImgUrl
p4407
V/cgi-bin/mmwebwx-bin/webwxgeticon?seq=635751325&username=@5a0f575888e9cdaef8729aa135b380ae&skey=@crypt_870a16cf_456d32d449b4c837b4f12f1e0fbe5017
p4408
sVSex
p4409
I0
sVStarFriend
p4410
I0
sVStatues
p4411
I0
sa(dp4412
VUserName
p4413
V@a7fc397cf6b56845e4f74c26d57c43aa
p4414
sVCity
p4415
V\u671d\u9633
p4416
sVDisplayName
p4417
g48
sVUniFriend
p4418
I0
sVMemberList
p4419
(lp4420
sVPYQuanPin
p4421
Vchihuoyanjiusuo
p4422
sVRemarkPYInitial
p4423
g48
sVUin
p4424
I0
sVAppAccountFlag
p4425
I0
sVVerifyFlag
p4426
I24
sVProvince
p4427
V\u5317\u4eac
p4428
sVKeyWord
p4429
Vgh_
p4430
sVRemarkName
p4431
g48
sVPYInitial
p4432
VCHYJS
p4433
sVChatRoomId
p4434
I0
sVIsOwner
p4435
I0
sVHideInputBarFlag
p4436
I0
sVEncryChatRoomId
p4437
g48
sVAttrStatus
p4438
I0
sVSnsFlag
p4439
I0
sVMemberCount
p4440
I0
sVOwnerUin
p4441
I0
sVAlias
p4442
g48
sVSignature
p4443
V\u5403\u8d27\u7814\u7a76\u6240\uff0c\u679c\u58f3\u7f51\u521b\u529e\u7684\u7f8e\u98df\u5e10\u53f7\uff0c\u7528\u79d1\u5b66\u89e3\u7b54\u4e00\u5207\u5173\u4e8e\u5403\u7684\u7591\u95ee\u3002\u80fd\u5403\u5417\uff1f\u597d\u5403\u5417\uff1f\u600e\u4e48\u5403\uff1f\u65d7\u4e0b\u865a\u5ea6\u4e16\u754c\u5b9e\u9a8c\u5ba4\uff0c\u6bcf\u5929\u7531\u4e00\u5927\u6ce2\u751f\u7269\u5b66\u5bb6\u3001\u98df\u54c1\u79d1\u5b66\u4e0e\u5de5\u7a0b\u4e13\u5bb6\u4e3a\u6700\u6311\u5254\u7684\u5403\u8d27\u7814\u53d1\u53ca\u63d0\u4f9b\u7701\u5fc3\u597d\u8d27\u3002
p4444
sVContactFlag
p4445
I3
sVNickName
p4446
V\u5403\u8d27\u7814\u7a76\u6240
p4447
sVRemarkPYQuanPin
p4448
g48
sVHeadImgUrl
p4449
V/cgi-bin/mmwebwx-bin/webwxgeticon?seq=635752065&username=@a7fc397cf6b56845e4f74c26d57c43aa&skey=@crypt_870a16cf_456d32d449b4c837b4f12f1e0fbe5017
p4450
sVSex
p4451
I0
sVStarFriend
p4452
I0
sVStatues
p4453
I0
sa(dp4454
VUserName
p4455
V@d9b5d97af50edb1cc5d0e50614db2c38
p4456
sVCity
p4457
V\u671d\u9633
p4458
sVDisplayName
p4459
g48
sVUniFriend
p4460
I0
sVMemberList
p4461
(lp4462
sVPYQuanPin
p4463
Vdushaofei
p4464
sVRemarkPYInitial
p4465
g48
sVUin
p4466
I0
sVAppAccountFlag
p4467
I0
sVVerifyFlag
p4468
I8
sVProvince
p4469
V\u5317\u4eac
p4470
sVKeyWord
p4471
Vgh_
p4472
sVRemarkName
p4473
g48
sVPYInitial
p4474
VDSF
p4475
sVChatRoomId
p4476
I0
sVIsOwner
p4477
I0
sVHideInputBarFlag
p4478
I0
sVEncryChatRoomId
p4479
g48
sVAttrStatus
p4480
I0
sVSnsFlag
p4481
I0
sVMemberCount
p4482
I0
sVOwnerUin
p4483
I0
sVAlias
p4484
g48
sVSignature
p4485
V\u6380\u8d77\u4e00\u573a\u4e2d\u56fd\u76f4\u7537\u7684\u65b0\u6587\u5316\u8fd0\u52a8\u3002
p4486
sVContactFlag
p4487
I3
sVNickName
p4488
V\u675c\u7ecd\u6590
p4489
sVRemarkPYQuanPin
p4490
g48
sVHeadImgUrl
p4491
V/cgi-bin/mmwebwx-bin/webwxgeticon?seq=635751124&username=@d9b5d97af50edb1cc5d0e50614db2c38&skey=@crypt_870a16cf_456d32d449b4c837b4f12f1e0fbe5017
p4492
sVSex
p4493
I0
sVStarFriend
p4494
I0
sVStatues
p4495
I0
sa(dp4496
VUserName
p4497
V@2a06e5a8725e0aa08981cc21e41d7b98
p4498
sVCity
p4499
V\u671d\u9633
p4500
sVDisplayName
p4501
g48
sVUniFriend
p4502
I0
sVMemberList
p4503
(lp4504
sVPYQuanPin
p4505
Vwuchongrili
p4506
sVRemarkPYInitial
p4507
g48
sVUin
p4508
I0
sVAppAccountFlag
p4509
I0
sVVerifyFlag
p4510
I24
sVProvince
p4511
V\u5317\u4eac
p4512
sVKeyWord
p4513
Vgh_
p4514
sVRemarkName
p4515
g48
sVPYInitial
p4516
VWCRL
p4517
sVChatRoomId
p4518
I0
sVIsOwner
p4519
I0
sVHideInputBarFlag
p4520
I0
sVEncryChatRoomId
p4521
g48
sVAttrStatus
p4522
I0
sVSnsFlag
p4523
I0
sVMemberCount
p4524
I0
sVOwnerUin
p4525
I0
sVAlias
p4526
g48
sVSignature
p4527
V\u5154\u72f2\u3001\u9f99\u732b\u3001\u51e0\u7ef4\u9e1f\uff0c\u603b\u6709\u4e00\u6b3e\u6bdb\u7403\u6253\u52a8\u4f60\uff1b\u94c3\u5170\u3001\u6854\u6897\u3001\u56db\u7167\u82b1\uff0c\u690d\u7269\u4eec\u4e5f\u53ef\u4ee5\u840c\u840c\u54d2\uff5e \u8ddf\u7740\u65e5\u5386\u5a18\uff0c\u6bcf\u5929\u8ba4\u8bc6\u4e00\u4e2a\u7269\u79cd\uff0c\u8ba9\u4f60\u7684\u4e16\u754c\uff0c\u6bcf\u5929\u53d8\u5f97\u66f4\u840c\u4e00\u4e9b\uff01
p4528
sVContactFlag
p4529
I3
sVNickName
p4530
V\u7269\u79cd\u65e5\u5386
p4531
sVRemarkPYQuanPin
p4532
g48
sVHeadImgUrl
p4533
V/cgi-bin/mmwebwx-bin/webwxgeticon?seq=636998299&username=@2a06e5a8725e0aa08981cc21e41d7b98&skey=@crypt_870a16cf_456d32d449b4c837b4f12f1e0fbe5017
p4534
sVSex
p4535
I0
sVStarFriend
p4536
I0
sVStatues
p4537
I0
sa(dp4538
VUserName
p4539
V@067a5f34190e29e2f67bda2a98a1a0ed
p4540
sVCity
p4541
V\u5e7f\u5dde
p4542
sVDisplayName
p4543
g48
sVUniFriend
p4544
I0
sVMemberList
p4545
(lp4546
sVPYQuanPin
p4547
VwoyaoWhatYouNeed
p4548
sVRemarkPYInitial
p4549
g48
sVUin
p4550
I0
sVAppAccountFlag
p4551
I0
sVVerifyFlag
p4552
I24
sVProvince
p4553
V\u5e7f\u4e1c
p4554
sVKeyWord
p4555
Vgh_
p4556
sVRemarkName
p4557
g48
sVPYInitial
p4558
VWYWHATYOUNEED
p4559
sVChatRoomId
p4560
I0
sVIsOwner
p4561
I0
sVHideInputBarFlag
p4562
I0
sVEncryChatRoomId
p4563
g48
sVAttrStatus
p4564
I0
sVSnsFlag
p4565
I0
sVMemberCount
p4566
I0
sVOwnerUin
p4567
I0
sVAlias
p4568
g48
sVSignature
p4569
V\u4e00\u4e2a\u5e74\u8f7b\u4eba\u7684\u805a\u96c6\u5730\u3002
p4570
sVContactFlag
p4571
I3
sVNickName
p4572
V\u6211\u8981WhatYouNeed
p4573
sVRemarkPYQuanPin
p4574
g48
sVHeadImgUrl
p4575
V/cgi-bin/mmwebwx-bin/webwxgeticon?seq=643040159&username=@067a5f34190e29e2f67bda2a98a1a0ed&skey=@crypt_870a16cf_456d32d449b4c837b4f12f1e0fbe5017
p4576
sVSex
p4577
I0
sVStarFriend
p4578
I0
sVStatues
p4579
I0
sa(dp4580
VUserName
p4581
V@2353ff9820518ee2d9e292b5078badf2
p4582
sVCity
p4583
V\u666e\u9640
p4584
sVDisplayName
p4585
g48
sVUniFriend
p4586
I0
sVMemberList
p4587
(lp4588
sVPYQuanPin
p4589
Vshudanlaile
p4590
sVRemarkPYInitial
p4591
g48
sVUin
p4592
I0
sVAppAccountFlag
p4593
I0
sVVerifyFlag
p4594
I24
sVProvince
p4595
V\u4e0a\u6d77
p4596
sVKeyWord
p4597
Vgh_
p4598
sVRemarkName
p4599
g48
sVPYInitial
p4600
VSDLL
p4601
sVChatRoomId
p4602
I0
sVIsOwner
p4603
I0
sVHideInputBarFlag
p4604
I0
sVEncryChatRoomId
p4605
g48
sVAttrStatus
p4606
I0
sVSnsFlag
p4607
I0
sVMemberCount
p4608
I0
sVOwnerUin
p4609
I0
sVAlias
p4610
g48
sVSignature
p4611
V\u5982\u679c\u4f60\u4e0d\u77e5\u9053\u8bfb\u4ec0\u4e48\u4e66\uff0c\u5173\u6ce8\u4e66\u5355\u72d7\u5c31\u5bf9\u4e86\u3002\u4e66\u5355\u72d7\u5c06\u63a5\u7ba1\u4f60\u4e0b\u534a\u751f\u7684\u5168\u90e8\u9605\u8bfb\u8ba1\u5212\u3002\u4e66\u5355\u72d7\u6bcf\u5929\u4e3a500\u4e07\u7c89\u4e1d\u63a8\u8350\u4e66\u5355\u72d7\u724c\u4e66\u5355\uff0c\u770b\u8fc7\u4f60\u5c31\u4f1a\u7231\u4e0a\u6211\u3002
p4612
sVContactFlag
p4613
I3
sVNickName
p4614
V\u4e66\u5355\u6765\u4e86
p4615
sVRemarkPYQuanPin
p4616
g48
sVHeadImgUrl
p4617
V/cgi-bin/mmwebwx-bin/webwxgeticon?seq=645190089&username=@2353ff9820518ee2d9e292b5078badf2&skey=@crypt_870a16cf_456d32d449b4c837b4f12f1e0fbe5017
p4618
sVSex
p4619
I0
sVStarFriend
p4620
I0
sVStatues
p4621
I0
sa(dp4622
VUserName
p4623
V@860656aa29b91fb0dbe82df8c65abde4
p4624
sVCity
p4625
V\u5170\u5dde\u5e02
p4626
sVDisplayName
p4627
g48
sVUniFriend
p4628
I0
sVMemberList
p4629
(lp4630
sVPYQuanPin
p4631
Vdouzhe
p4632
sVRemarkPYInitial
p4633
g48
sVUin
p4634
I0
sVAppAccountFlag
p4635
I0
sVVerifyFlag
p4636
I24
sVProvince
p4637
V\u7518\u8083
p4638
sVKeyWord
p4639
Vgh_
p4640
sVRemarkName
p4641
g48
sVPYInitial
p4642
VDZ
p4643
sVChatRoomId
p4644
I0
sVIsOwner
p4645
I0
sVHideInputBarFlag
p4646
I0
sVEncryChatRoomId
p4647
g48
sVAttrStatus
p4648
I0
sVSnsFlag
p4649
I0
sVMemberCount
p4650
I0
sVOwnerUin
p4651
I0
sVAlias
p4652
g48
sVSignature
p4653
V\u300a\u8bfb\u8005\u300b\u6742\u5fd7\u5b98\u65b9\u8ba2\u9605\u53f7\u3002 \u4e2d\u56fd\u4eba\u7684\u5fc3\u7075\u8bfb\u672c\uff0c\u5168\u5bb6\u4eba\u7684\u7cbe\u795e\u7ebd\u5e26\u3002
p4654
sVContactFlag
p4655
I3
sVNickName
p4656
V\u8bfb\u8005
p4657
sVRemarkPYQuanPin
p4658
g48
sVHeadImgUrl
p4659
V/cgi-bin/mmwebwx-bin/webwxgeticon?seq=647454135&username=@860656aa29b91fb0dbe82df8c65abde4&skey=@crypt_870a16cf_456d32d449b4c837b4f12f1e0fbe5017
p4660
sVSex
p4661
I0
sVStarFriend
p4662
I0
sVStatues
p4663
I0
sa(dp4664
VUserName
p4665
V@ec23b074401f2deffb02fc5cf35a68e1
p4666
sVCity
p4667
VSan Francisco
p4668
sVDisplayName
p4669
g48
sVUniFriend
p4670
I0
sVMemberList
p4671
(lp4672
sVPYQuanPin
p4673
VYTBjingcaishipin
p4674
sVRemarkPYInitial
p4675
g48
sVUin
p4676
I0
sVAppAccountFlag
p4677
I0
sVVerifyFlag
p4678
I24
sVProvince
p4679
VCalifornia
p4680
sVKeyWord
p4681
Vgh_
p4682
sVRemarkName
p4683
g48
sVPYInitial
p4684
VYTBJCSP
p4685
sVChatRoomId
p4686
I0
sVIsOwner
p4687
I0
sVHideInputBarFlag
p4688
I0
sVEncryChatRoomId
p4689
g48
sVAttrStatus
p4690
I0
sVSnsFlag
p4691
I0
sVMemberCount
p4692
I0
sVOwnerUin
p4693
I0
sVAlias
p4694
g48
sVSignature
p4695
V\u5fae\u535a@YouTube\u7cbe\u5f69\u89c6\u9891<span class="emoji emoji1f4fa"></span>\u6bcf\u65e5\u7ffb\u8bd1\u3001\u5206\u4eab\u56fd\u5916\u5404\u79cd\u65b0\u9c9c\u597d\u73a9\u7684\u89c6\u9891
p4696
sVContactFlag
p4697
I3
sVNickName
p4698
VYTB\u7cbe\u5f69\u89c6\u9891
p4699
sVRemarkPYQuanPin
p4700
g48
sVHeadImgUrl
p4701
V/cgi-bin/mmwebwx-bin/webwxgeticon?seq=648772684&username=@ec23b074401f2deffb02fc5cf35a68e1&skey=@crypt_870a16cf_456d32d449b4c837b4f12f1e0fbe5017
p4702
sVSex
p4703
I0
sVStarFriend
p4704
I0
sVStatues
p4705
I0
sa(dp4706
VUserName
p4707
V@9594309c2b43dc1d4a567726d0445580
p4708
sVCity
p4709
V\u666e\u9640
p4710
sVDisplayName
p4711
g48
sVUniFriend
p4712
I0
sVMemberList
p4713
(lp4714
sVPYQuanPin
p4715
Vyingdanlaile
p4716
sVRemarkPYInitial
p4717
g48
sVUin
p4718
I0
sVAppAccountFlag
p4719
I0
sVVerifyFlag
p4720
I24
sVProvince
p4721
V\u4e0a\u6d77
p4722
sVKeyWord
p4723
Vgh_
p4724
sVRemarkName
p4725
g48
sVPYInitial
p4726
VYDLL
p4727
sVChatRoomId
p4728
I0
sVIsOwner
p4729
I0
sVHideInputBarFlag
p4730
I0
sVEncryChatRoomId
p4731
g48
sVAttrStatus
p4732
I0
sVSnsFlag
p4733
I0
sVMemberCount
p4734
I0
sVOwnerUin
p4735
I0
sVAlias
p4736
g48
sVSignature
p4737
V\u5982\u679c\u4f60\u4e0d\u77e5\u9053\u770b\u4ec0\u4e48\u7535\u5f71\uff0c\u5173\u6ce8\u6211\u5c31\u5bf9\u4e86\u3002\u5230\u4e86\u8fd9\u91cc\uff0c\u4f60\u7684\u4f59\u751f\u5c06\u544a\u522b\u201c\u70c2\u7247\u201d\u4e24\u4e2a\u5b57\u3002\u5f71\u5355\u732b\u8fd9\u8f88\u5b50\u9664\u4e86\u5403\u996d\u7761\u89c9\u5c31\u662f\u770b\u7535\u5f71\uff0c\u5728\u88ab\u70c2\u7247\u7838\u6655\u540e\u53d1\u8a93\u8981\u628a\u770b\u8fc7\u7684\u597d\u7247\u4e00\u4e00\u6311\u51fa\u6765\uff0c\u63a8\u8350\u7ed9\u4f60\u3002\u54e6\u5bf9\u4e86\uff0c\u626b\u6d77\u62a5\u4e0b\u9762\u7684\u4e8c\u7ef4\u7801\u8fd8\u80fd\u76f4\u63a5\u89c2\u770b\u3002\u6ca1\u5176\u4ed6\u95ee\u9898\u6211\u5148\u770b\u7247\u53bb\u4e86\uff0c\u6bd4\u5fc3
p4738
sVContactFlag
p4739
I3
sVNickName
p4740
V\u5f71\u5355\u6765\u4e86
p4741
sVRemarkPYQuanPin
p4742
g48
sVHeadImgUrl
p4743
V/cgi-bin/mmwebwx-bin/webwxgeticon?seq=648793683&username=@9594309c2b43dc1d4a567726d0445580&skey=@crypt_870a16cf_456d32d449b4c837b4f12f1e0fbe5017
p4744
sVSex
p4745
I0
sVStarFriend
p4746
I0
sVStatues
p4747
I0
sa(dp4748
VUserName
p4749
V@65ee9dd889877232b4d4d35c61a0e1b2
p4750
sVCity
p4751
V\u671d\u9633
p4752
sVDisplayName
p4753
g48
sVUniFriend
p4754
I0
sVMemberList
p4755
(lp4756
sVPYQuanPin
p4757
Vxiaomanyaopaian
p4758
sVRemarkPYInitial
p4759
g48
sVUin
p4760
I0
sVAppAccountFlag
p4761
I0
sVVerifyFlag
p4762
I24
sVProvince
p4763
V\u5317\u4eac
p4764
sVKeyWord
p4765
Vgh_
p4766
sVRemarkName
p4767
g48
sVPYInitial
p4768
VXMYPA
p4769
sVChatRoomId
p4770
I0
sVIsOwner
p4771
I0
sVHideInputBarFlag
p4772
I0
sVEncryChatRoomId
p4773
g48
sVAttrStatus
p4774
I0
sVSnsFlag
p4775
I0
sVMemberCount
p4776
I0
sVOwnerUin
p4777
I0
sVAlias
p4778
g48
sVSignature
p4779
V\u679c\u58f3\u7f51\u8c0b\u6740\u73b0\u573a\u6cd5\u533b\u5c0f\u7ec4\u5b98\u65b9\u5fae\u4fe1\u3002
p4780
sVContactFlag
p4781
I3
sVNickName
p4782
V\u5c0f\u9992\u5996\u62cd\u6848
p4783
sVRemarkPYQuanPin
p4784
g48
sVHeadImgUrl
p4785
V/cgi-bin/mmwebwx-bin/webwxgeticon?seq=648803075&username=@65ee9dd889877232b4d4d35c61a0e1b2&skey=@crypt_870a16cf_456d32d449b4c837b4f12f1e0fbe5017
p4786
sVSex
p4787
I0
sVStarFriend
p4788
I0
sVStatues
p4789
I0
sa(dp4790
VUserName
p4791
V@3fcfe8aa0458de9c782d3cf03b23b907
p4792
sVCity
p4793
V\u53a6\u95e8
p4794
sVDisplayName
p4795
g48
sVUniFriend
p4796
I0
sVMemberList
p4797
(lp4798
sVPYQuanPin
p4799
Vcaidiaojiaocheng
p4800
sVRemarkPYInitial
p4801
g48
sVUin
p4802
I0
sVAppAccountFlag
p4803
I0
sVVerifyFlag
p4804
I8
sVProvince
p4805
V\u798f\u5efa
p4806
sVKeyWord
p4807
Vgh_
p4808
sVRemarkName
p4809
g48
sVPYInitial
p4810
VCDJC
p4811
sVChatRoomId
p4812
I0
sVIsOwner
p4813
I0
sVHideInputBarFlag
p4814
I0
sVEncryChatRoomId
p4815
g48
sVAttrStatus
p4816
I0
sVSnsFlag
p4817
I0
sVMemberCount
p4818
I0
sVOwnerUin
p4819
I0
sVAlias
p4820
g48
sVSignature
p4821
V\u5b66\u7684\u4e0d\u4ec5\u662f\u6280\u672f\uff0c\u66f4\u662f\u68a6\u60f3\uff01
p4822
sVContactFlag
p4823
I3
sVNickName
p4824
V\u83dc\u9e1f\u6559\u7a0b
p4825
sVRemarkPYQuanPin
p4826
g48
sVHeadImgUrl
p4827
V/cgi-bin/mmwebwx-bin/webwxgeticon?seq=648821210&username=@3fcfe8aa0458de9c782d3cf03b23b907&skey=@crypt_870a16cf_456d32d449b4c837b4f12f1e0fbe5017
p4828
sVSex
p4829
I0
sVStarFriend
p4830
I0
sVStatues
p4831
I0
sa(dp4832
VUserName
p4833
V@13dd8c49f6d99cd817e6458e033c1b2f
p4834
sVCity
p4835
V\u82cf\u5dde
p4836
sVDisplayName
p4837
g48
sVUniFriend
p4838
I0
sVMemberList
p4839
(lp4840
sVPYQuanPin
p4841
Vquanqiujianshenzhina
p4842
sVRemarkPYInitial
p4843
g48
sVUin
p4844
I0
sVAppAccountFlag
p4845
I0
sVVerifyFlag
p4846
I24
sVProvince
p4847
V\u6c5f\u82cf
p4848
sVKeyWord
p4849
Vgh_
p4850
sVRemarkName
p4851
g48
sVPYInitial
p4852
VQQJSZN
p4853
sVChatRoomId
p4854
I0
sVIsOwner
p4855
I0
sVHideInputBarFlag
p4856
I0
sVEncryChatRoomId
p4857
g48
sVAttrStatus
p4858
I0
sVSnsFlag
p4859
I0
sVMemberCount
p4860
I0
sVOwnerUin
p4861
I0
sVAlias
p4862
g48
sVSignature
p4863
V\u4e3a\u5065\u8eab\u7231\u597d\u8005\u63d0\u4f9b\u6700\u4e13\u4e1a\u7684\u52a8\u4f5c\u6307\u5bfc\u3001\u6700\u5168\u7684\u7f8e\u4f53\u5065\u8eab\u8d44\u8baf\uff01\u6709\u8da3\u3001\u6709\u7528\u3001\u6709\u5e72\u8d27\uff01\u589e\u808c\u51cf\u8102\u3001\u8da3\u5473\u8d44\u8baf\uff0c\u5065\u8eab\u8def\u4e0a\uff0c\u4f60\u6211\u540c\u884c\uff01
p4864
sVContactFlag
p4865
I3
sVNickName
p4866
V\u5168\u7403\u5065\u8eab\u6307\u5357
p4867
sVRemarkPYQuanPin
p4868
g48
sVHeadImgUrl
p4869
V/cgi-bin/mmwebwx-bin/webwxgeticon?seq=648836204&username=@13dd8c49f6d99cd817e6458e033c1b2f&skey=@crypt_870a16cf_456d32d449b4c837b4f12f1e0fbe5017
p4870
sVSex
p4871
I0
sVStarFriend
p4872
I0
sVStatues
p4873
I0
sa(dp4874
VUserName
p4875
V@85d52575da403e2ca9d65d4d6f7a28d6
p4876
sVCity
p4877
V\u5e7f\u5dde
p4878
sVDisplayName
p4879
g48
sVUniFriend
p4880
I0
sVMemberList
p4881
(lp4882
sVPYQuanPin
p4883
VKdong
p4884
sVRemarkPYInitial
p4885
g48
sVUin
p4886
I0
sVAppAccountFlag
p4887
I0
sVVerifyFlag
p4888
I24
sVProvince
p4889
V\u5e7f\u4e1c
p4890
sVKeyWord
p4891
Vgh_
p4892
sVRemarkName
p4893
g48
sVPYInitial
p4894
VKD
p4895
sVChatRoomId
p4896
I0
sVIsOwner
p4897
I0
sVHideInputBarFlag
p4898
I0
sVEncryChatRoomId
p4899
g48
sVAttrStatus
p4900
I0
sVSnsFlag
p4901
I0
sVMemberCount
p4902
I0
sVOwnerUin
p4903
I0
sVAlias
p4904
g48
sVSignature
p4905
V\u4e00\u4e2a\u6709\u8da3\u7684\u6f2b\u753b\u516c\u4f17\u53f7
p4906
sVContactFlag
p4907
I3
sVNickName
p4908
VK\u8463
p4909
sVRemarkPYQuanPin
p4910
g48
sVHeadImgUrl
p4911
V/cgi-bin/mmwebwx-bin/webwxgeticon?seq=648849125&username=@85d52575da403e2ca9d65d4d6f7a28d6&skey=@crypt_870a16cf_456d32d449b4c837b4f12f1e0fbe5017
p4912
sVSex
p4913
I0
sVStarFriend
p4914
I0
sVStatues
p4915
I0
sa(dp4916
VUserName
p4917
V@eadd8182965a5c2d751c6133a7ce283d
p4918
sVCity
p4919
V\u671d\u9633
p4920
sVDisplayName
p4921
g48
sVUniFriend
p4922
I0
sVMemberList
p4923
(lp4924
sVPYQuanPin
p4925
Vkuxuankexue
p4926
sVRemarkPYInitial
p4927
g48
sVUin
p4928
I0
sVAppAccountFlag
p4929
I0
sVVerifyFlag
p4930
I8
sVProvince
p4931
V\u5317\u4eac
p4932
sVKeyWord
p4933
Vgh_
p4934
sVRemarkName
p4935
g48
sVPYInitial
p4936
VKXKX
p4937
sVChatRoomId
p4938
I0
sVIsOwner
p4939
I0
sVHideInputBarFlag
p4940
I0
sVEncryChatRoomId
p4941
g48
sVAttrStatus
p4942
I0
sVSnsFlag
p4943
I0
sVMemberCount
p4944
I0
sVOwnerUin
p4945
I0
sVAlias
p4946
g48
sVSignature
p4947
V\u4ecb\u7ecd\u5404\u79cd\u201c\u5367\u69fd\u597d\u68d2\u201d\u7684\u79d1\u5b66\u5c0f\u77e5\u8bc6\u548c\u79d1\u5b66\u8da3\u56fe
p4948
sVContactFlag
p4949
I3
sVNickName
p4950
V\u9177\u70ab\u79d1\u5b66
p4951
sVRemarkPYQuanPin
p4952
g48
sVHeadImgUrl
p4953
V/cgi-bin/mmwebwx-bin/webwxgeticon?seq=660400491&username=@eadd8182965a5c2d751c6133a7ce283d&skey=@crypt_870a16cf_456d32d449b4c837b4f12f1e0fbe5017
p4954
sVSex
p4955
I0
sVStarFriend
p4956
I0
sVStatues
p4957
I0
sa(dp4958
VUserName
p4959
V@1e5218bfa676ba94ef88f24865efbdfa
p4960
sVCity
p4961
V\u901a\u5dde
p4962
sVDisplayName
p4963
g48
sVUniFriend
p4964
I0
sVMemberList
p4965
(lp4966
sVPYQuanPin
p4967
Vhaoqiboshi
p4968
sVRemarkPYInitial
p4969
g48
sVUin
p4970
I0
sVAppAccountFlag
p4971
I0
sVVerifyFlag
p4972
I24
sVProvince
p4973
V\u5317\u4eac
p4974
sVKeyWord
p4975
Vgh_
p4976
sVRemarkName
p4977
g48
sVPYInitial
p4978
VHQBS
p4979
sVChatRoomId
p4980
I0
sVIsOwner
p4981
I0
sVHideInputBarFlag
p4982
I0
sVEncryChatRoomId
p4983
g48
sVAttrStatus
p4984
I0
sVSnsFlag
p4985
I0
sVMemberCount
p4986
I0
sVOwnerUin
p4987
I0
sVAlias
p4988
g48
sVSignature
p4989
V\u535a\u58eb\u4e00\u5206\u949f\uff0c\u59ff\u52bf\u6da8\u4e0d\u505c\uff01
p4990
sVContactFlag
p4991
I3
sVNickName
p4992
V\u597d\u5947\u535a\u58eb
p4993
sVRemarkPYQuanPin
p4994
g48
sVHeadImgUrl
p4995
V/cgi-bin/mmwebwx-bin/webwxgeticon?seq=660401409&username=@1e5218bfa676ba94ef88f24865efbdfa&skey=@crypt_870a16cf_456d32d449b4c837b4f12f1e0fbe5017
p4996
sVSex
p4997
I0
sVStarFriend
p4998
I0
sVStatues
p4999
I0
sa(dp5000
VUserName
p5001
V@e955b5fe71a37b55d57c14fa56c85c39
p5002
sVCity
p5003
V\u4e30\u53f0
p5004
sVDisplayName
p5005
g48
sVUniFriend
p5006
I0
sVMemberList
p5007
(lp5008
sVPYQuanPin
p5009
Vshaonianyingshipa
p5010
sVRemarkPYInitial
p5011
g48
sVUin
p5012
I0
sVAppAccountFlag
p5013
I0
sVVerifyFlag
p5014
I8
sVProvince
p5015
V\u5317\u4eac
p5016
sVKeyWord
p5017
Vgh_
p5018
sVRemarkName
p5019
g48
sVPYInitial
p5020
VSNYSP
p5021
sVChatRoomId
p5022
I0
sVIsOwner
p5023
I0
sVHideInputBarFlag
p5024
I0
sVEncryChatRoomId
p5025
g48
sVAttrStatus
p5026
I0
sVSnsFlag
p5027
I0
sVMemberCount
p5028
I0
sVOwnerUin
p5029
I0
sVAlias
p5030
g48
sVSignature
p5031
V\u6b27\u7f8e\u7535\u89c6\u3001\u7535\u5f71\u8d44\u8baf\u66f4\u65b0
p5032
sVContactFlag
p5033
I3
sVNickName
p5034
V\u5c11\u5e74\u5f71\u89c6\u6d3e
p5035
sVRemarkPYQuanPin
p5036
g48
sVHeadImgUrl
p5037
V/cgi-bin/mmwebwx-bin/webwxgeticon?seq=660422584&username=@e955b5fe71a37b55d57c14fa56c85c39&skey=@crypt_870a16cf_456d32d449b4c837b4f12f1e0fbe5017
p5038
sVSex
p5039
I0
sVStarFriend
p5040
I0
sVStatues
p5041
I0
sa(dp5042
VUserName
p5043
V@4e18998e8009c0f7c53fedfaae1e91af
p5044
sVCity
p5045
V\u62c9\u8428
p5046
sVDisplayName
p5047
g48
sVUniFriend
p5048
I0
sVMemberList
p5049
(lp5050
sVPYQuanPin
p5051
Vcong404daoxiahuaxian
p5052
sVRemarkPYInitial
p5053
g48
sVUin
p5054
I0
sVAppAccountFlag
p5055
I0
sVVerifyFlag
p5056
I8
sVProvince
p5057
V\u897f\u85cf
p5058
sVKeyWord
p5059
Vgh_
p5060
sVRemarkName
p5061
g48
sVPYInitial
p5062
VC404DXHX
p5063
sVChatRoomId
p5064
I0
sVIsOwner
p5065
I0
sVHideInputBarFlag
p5066
I0
sVEncryChatRoomId
p5067
g48
sVAttrStatus
p5068
I0
sVSnsFlag
p5069
I0
sVMemberCount
p5070
I0
sVOwnerUin
p5071
I0
sVAlias
p5072
g48
sVSignature
p5073
V404\u4ee3\u8868\u5ba2\u6237\u7aef\u5728\u6d4f\u89c8\u7f51\u9875\u65f6\uff0c\u670d\u52a1\u5668\u65e0\u6cd5\u6b63\u5e38\u63d0\u4f9b\u4fe1\u606f\uff0c\u6216\u662f\u670d\u52a1\u5668\u65e0\u6cd5\u56de\u5e94\u4e14\u4e0d\u77e5\u539f\u56e0\u3002\u800c\u4e0b\u5212\u7ebf\u4f3c\u4e4e\u5728\u4efb\u4f55\u53ef\u4ee5\u8f93\u5165\u7684\u5730\u65b9\u90fd\u652f\u6301\u3002
p5074
sVContactFlag
p5075
I3
sVNickName
p5076
V\u4ece404\u5230\u4e0b\u5212\u7ebf
p5077
sVRemarkPYQuanPin
p5078
g48
sVHeadImgUrl
p5079
V/cgi-bin/mmwebwx-bin/webwxgeticon?seq=660430820&username=@4e18998e8009c0f7c53fedfaae1e91af&skey=@crypt_870a16cf_456d32d449b4c837b4f12f1e0fbe5017
p5080
sVSex
p5081
I0
sVStarFriend
p5082
I0
sVStatues
p5083
I0
sa(dp5084
VUserName
p5085
V@ee04815511b2284dfac6ec216bfb7329
p5086
sVCity
p5087
V\u4e1c\u57ce
p5088
sVDisplayName
p5089
g48
sVUniFriend
p5090
I0
sVMemberList
p5091
(lp5092
sVPYQuanPin
p5093
Vxiangyu
p5094
sVRemarkPYInitial
p5095
g48
sVUin
p5096
I0
sVAppAccountFlag
p5097
I0
sVVerifyFlag
p5098
I24
sVProvince
p5099
V\u5317\u4eac
p5100
sVKeyWord
p5101
Vgh_
p5102
sVRemarkName
p5103
g48
sVPYInitial
p5104
VXY
p5105
sVChatRoomId
p5106
I0
sVIsOwner
p5107
I0
sVHideInputBarFlag
p5108
I0
sVEncryChatRoomId
p5109
g48
sVAttrStatus
p5110
I0
sVSnsFlag
p5111
I0
sVMemberCount
p5112
I0
sVOwnerUin
p5113
I0
sVAlias
p5114
g48
sVSignature
p5115
V\u76f8\u5bd3\u662f\u4f1f\u4e1a\u6211\u7231\u6211\u5bb6\u96c6\u56e2\u65d7\u4e0b\u4e13\u95e8\u4ece\u4e8b\u623f\u5c4b\u8d44\u4ea7\u7ba1\u7406\u4e1a\u52a1\u7684\u4e13\u4e1a\u54c1\u724c\u3002\u76f8\u5bd3\u4e3b\u5f20\u56de\u5f52\u5c45\u4f4f\u672c\u8eab\uff0c\u5e26\u60a8\u8fdb\u5165\u201c\u7f8e\u597d\u79df+\u751f\u6d3b\u201d\uff01
p5116
sVContactFlag
p5117
I1
sVNickName
p5118
V\u76f8\u5bd3
p5119
sVRemarkPYQuanPin
p5120
g48
sVHeadImgUrl
p5121
V/cgi-bin/mmwebwx-bin/webwxgeticon?seq=660441655&username=@ee04815511b2284dfac6ec216bfb7329&skey=@crypt_870a16cf_456d32d449b4c837b4f12f1e0fbe5017
p5122
sVSex
p5123
I0
sVStarFriend
p5124
I0
sVStatues
p5125
I0
sa(dp5126
VUserName
p5127
V@9d1be64201fb847125eeae4cc0521b3d
p5128
sVCity
p5129
V\u671d\u9633
p5130
sVDisplayName
p5131
g48
sVUniFriend
p5132
I0
sVMemberList
p5133
(lp5134
sVPYQuanPin
p5135
Vbiexiawan
p5136
sVRemarkPYInitial
p5137
g48
sVUin
p5138
I0
sVAppAccountFlag
p5139
I0
sVVerifyFlag
p5140
I8
sVProvince
p5141
V\u5317\u4eac
p5142
sVKeyWord
p5143
Vgh_
p5144
sVRemarkName
p5145
g48
sVPYInitial
p5146
VBXW
p5147
sVChatRoomId
p5148
I0
sVIsOwner
p5149
I0
sVHideInputBarFlag
p5150
I0
sVEncryChatRoomId
p5151
g48
sVAttrStatus
p5152
I0
sVSnsFlag
p5153
I0
sVMemberCount
p5154
I0
sVOwnerUin
p5155
I0
sVAlias
p5156
g48
sVSignature
p5157
V\u4e25\u8083\u70b9\uff0c\u6211\u4eec\u8fd9\u6253\u6e38\u620f\u5462\uff01
p5158
sVContactFlag
p5159
I3
sVNickName
p5160
V\u522b\u778e\u73a9
p5161
sVRemarkPYQuanPin
p5162
g48
sVHeadImgUrl
p5163
V/cgi-bin/mmwebwx-bin/webwxgeticon?seq=660445801&username=@9d1be64201fb847125eeae4cc0521b3d&skey=@crypt_870a16cf_456d32d449b4c837b4f12f1e0fbe5017
p5164
sVSex
p5165
I0
sVStarFriend
p5166
I0
sVStatues
p5167
I0
sa(dp5168
VUserName
p5169
V@5fbbee0bc5e607a4fb2198661f0c88df
p5170
sVCity
p5171
V\u5357\u901a
p5172
sVDisplayName
p5173
g48
sVUniFriend
p5174
I0
sVMemberList
p5175
(lp5176
sVPYQuanPin
p5177
VSteamsheou
p5178
sVRemarkPYInitial
p5179
g48
sVUin
p5180
I0
sVAppAccountFlag
p5181
I0
sVVerifyFlag
p5182
I24
sVProvince
p5183
V\u6c5f\u82cf
p5184
sVKeyWord
p5185
Vgh_
p5186
sVRemarkName
p5187
g48
sVPYInitial
p5188
VSTEAMSO
p5189
sVChatRoomId
p5190
I0
sVIsOwner
p5191
I0
sVHideInputBarFlag
p5192
I0
sVEncryChatRoomId
p5193
g48
sVAttrStatus
p5194
I0
sVSnsFlag
p5195
I0
sVMemberCount
p5196
I0
sVOwnerUin
p5197
I0
sVAlias
p5198
g48
sVSignature
p5199
V\u6bcf\u65e5\u63a8\u9001Steam\u5355\u673a\u6e38\u620f\u8d44\u8baf...\u6700\u65b0\u4e0a\u5e02\u7684\u6e38\u620f\u6d88\u606f,\u4fc3\u9500\u6298\u6263\u4fe1\u606f,\u70ed\u95e8\u6e38\u620f\u4ecb\u7ecd,\u70ed\u95e8\u6e38\u620f\u91cd\u5927\u66f4\u65b0,IG HBBS GMG\u7b49\u56fd\u5916\u7f51\u7ad9\u6e38\u620f\u5305,\u6148\u5584\u5305\u4f18\u60e0...
p5200
sVContactFlag
p5201
I3
sVNickName
p5202
VSteam\u793e\u533a
p5203
sVRemarkPYQuanPin
p5204
g48
sVHeadImgUrl
p5205
V/cgi-bin/mmwebwx-bin/webwxgeticon?seq=660447258&username=@5fbbee0bc5e607a4fb2198661f0c88df&skey=@crypt_870a16cf_456d32d449b4c837b4f12f1e0fbe5017
p5206
sVSex
p5207
I0
sVStarFriend
p5208
I0
sVStatues
p5209
I0
sa(dp5210
VUserName
p5211
V@a333fbbcb2c10b90023eb72a55787c22
p5212
sVCity
p5213
g48
sVDisplayName
p5214
g48
sVUniFriend
p5215
I0
sVMemberList
p5216
(lp5217
sVPYQuanPin
p5218
Vweixinzhifu
p5219
sVRemarkPYInitial
p5220
g48
sVUin
p5221
I0
sVAppAccountFlag
p5222
I0
sVVerifyFlag
p5223
I24
sVProvince
p5224
V\u5e7f\u4e1c
p5225
sVKeyWord
p5226
Vgh_
p5227
sVRemarkName
p5228
g48
sVPYInitial
p5229
VWXZF
p5230
sVChatRoomId
p5231
I0
sVIsOwner
p5232
I0
sVHideInputBarFlag
p5233
I0
sVEncryChatRoomId
p5234
g48
sVAttrStatus
p5235
I0
sVSnsFlag
p5236
I0
sVMemberCount
p5237
I0
sVOwnerUin
p5238
I0
sVAlias
p5239
g48
sVSignature
p5240
V\u5e2e\u52a9\u89e3\u51b3\u5fae\u4fe1\u652f\u4ed8\u4e2d\u9047\u5230\u7684\u56f0\u96be\uff0c\u6536\u96c6\u5173\u4e8e\u5fae\u4fe1\u652f\u4ed8\u7684\u5efa\u8bae\u53cd\u9988\u3002
p5241
sVContactFlag
p5242
I1
sVNickName
p5243
V\u5fae\u4fe1\u652f\u4ed8
p5244
sVRemarkPYQuanPin
p5245
g48
sVHeadImgUrl
p5246
V/cgi-bin/mmwebwx-bin/webwxgeticon?seq=620621434&username=@a333fbbcb2c10b90023eb72a55787c22&skey=@crypt_870a16cf_456d32d449b4c837b4f12f1e0fbe5017
p5247
sVSex
p5248
I0
sVStarFriend
p5249
I0
sVStatues
p5250
I0
sa(dp5251
VUserName
p5252
V@086191bbc9eda5f7c865b71bfa1abd8d
p5253
sVCity
p5254
V\u671d\u9633
p5255
sVDisplayName
p5256
g48
sVUniFriend
p5257
I0
sVMemberList
p5258
(lp5259
sVPYQuanPin
p5260
Vyangedainixuesuanfa
p5261
sVRemarkPYInitial
p5262
g48
sVUin
p5263
I0
sVAppAccountFlag
p5264
I0
sVVerifyFlag
p5265
I8
sVProvince
p5266
V\u5317\u4eac
p5267
sVKeyWord
p5268
Vgh_
p5269
sVRemarkName
p5270
g48
sVPYInitial
p5271
VYGDNXSF
p5272
sVChatRoomId
p5273
I0
sVIsOwner
p5274
I0
sVHideInputBarFlag
p5275
I0
sVEncryChatRoomId
p5276
g48
sVAttrStatus
p5277
I0
sVSnsFlag
p5278
I0
sVMemberCount
p5279
I0
sVOwnerUin
p5280
I0
sVAlias
p5281
g48
sVSignature
p5282
V\u672c\u516c\u4f17\u53f7\u4e3b\u8981\u76ee\u6807\u662f\u5e2e\u52a9\u60f3\u8f6c\u884cAI\u9886\u57df\u7684\u5e7f\u5927\u201c\u733f\u53cb\u201d\u4e00\u8d77\u8fdb\u5165\u5b66\u4e60\u673a\u5668\u5b66\u4e60\u7b97\u6cd5\uff0c\u4ee5\u53ca\u5206\u4eab\u4e2a\u4eba\u5bf9\u884c\u4e1a\u7684\u4e00\u4e9b\u5fc3\u5f97\u4f53\u4f1a\u2026\u2026
p5283
sVContactFlag
p5284
I3
sVNickName
p5285
V\u71d5\u54e5\u5e26\u4f60\u5b66\u7b97\u6cd5
p5286
sVRemarkPYQuanPin
p5287
g48
sVHeadImgUrl
p5288
V/cgi-bin/mmwebwx-bin/webwxgeticon?seq=660451207&username=@086191bbc9eda5f7c865b71bfa1abd8d&skey=@crypt_870a16cf_456d32d449b4c837b4f12f1e0fbe5017
p5289
sVSex
p5290
I0
sVStarFriend
p5291
I0
sVStatues
p5292
I0
sa(dp5293
VUserName
p5294
V@2e295ce0422192a8efac9484fc2b2c25
p5295
sVCity
p5296
V\u671d\u9633
p5297
sVDisplayName
p5298
g48
sVUniFriend
p5299
I0
sVMemberList
p5300
(lp5301
sVPYQuanPin
p5302
Vguojiadeliyingxiangjingdian
p5303
sVRemarkPYInitial
p5304
g48
sVUin
p5305
I0
sVAppAccountFlag
p5306
I0
sVVerifyFlag
p5307
I24
sVProvince
p5308
V\u5317\u4eac
p5309
sVKeyWord
p5310
Vgh_
p5311
sVRemarkName
p5312
g48
sVPYInitial
p5313
VGJDLYXJD
p5314
sVChatRoomId
p5315
I0
sVIsOwner
p5316
I0
sVHideInputBarFlag
p5317
I0
sVEncryChatRoomId
p5318
g48
sVAttrStatus
p5319
I0
sVSnsFlag
p5320
I0
sVMemberCount
p5321
I0
sVOwnerUin
p5322
I0
sVAlias
p5323
g48
sVSignature
p5324
V\u56fd\u5bb6\u5730\u7406\u5f71\u50cf\u7ecf\u5178
p5325
sVContactFlag
p5326
I3
sVNickName
p5327
V\u56fd\u5bb6\u5730\u7406\u5f71\u50cf\u7ecf\u5178
p5328
sVRemarkPYQuanPin
p5329
g48
sVHeadImgUrl
p5330
V/cgi-bin/mmwebwx-bin/webwxgeticon?seq=660452249&username=@2e295ce0422192a8efac9484fc2b2c25&skey=@crypt_870a16cf_456d32d449b4c837b4f12f1e0fbe5017
p5331
sVSex
p5332
I0
sVStarFriend
p5333
I0
sVStatues
p5334
I0
sa(dp5335
VUserName
p5336
V@6b19e7788e2198da95f4c2400a92b775
p5337
sVCity
p5338
V\u671d\u9633
p5339
sVDisplayName
p5340
g48
sVUniFriend
p5341
I0
sVMemberList
p5342
(lp5343
sVPYQuanPin
p5344
Vddxxionglaile
p5345
sVRemarkPYInitial
p5346
g48
sVUin
p5347
I0
sVAppAccountFlag
p5348
I0
sVVerifyFlag
p5349
I24
sVProvince
p5350
V\u5317\u4eac
p5351
sVKeyWord
p5352
Vgh_
p5353
sVRemarkName
p5354
g48
sVPYInitial
p5355
VDDXXLL
p5356
sVChatRoomId
p5357
I0
sVIsOwner
p5358
I0
sVHideInputBarFlag
p5359
I0
sVEncryChatRoomId
p5360
g48
sVAttrStatus
p5361
I0
sVSnsFlag
p5362
I0
sVMemberCount
p5363
I0
sVOwnerUin
p5364
I0
sVAlias
p5365
g48
sVSignature
p5366
V\u65e0\u8bba\u662f\u5b66\u5386\u6559\u80b2\u3001IT\u57f9\u8bad\uff0c\u8fd8\u662f\u8bed\u8a00\u57f9\u8bad\u3001\u827a\u672f\u7c7b\u57f9\u8bad\u3001\u804c\u4e1a\u6280\u80fd\u57f9\u8bad\u3001\u6d77\u5916\u7559\u5b66\u9879\u76ee\uff0c\u8d37\u8d37\u718a\u59cb\u7ec8\u79c9\u627f\u201c\u4e3a\u68a6\u60f3\u8005\u70b9\u4eae\u672a\u6765\u201d\u7684\u5b97\u65e8\uff0c\u6839\u636e\u6559\u80b2\u57f9\u8bad\u673a\u6784\u7684\u7279\u70b9\uff0c\u7ed3\u5408\u5b66\u751f\u7684\u5177\u4f53\u9700\u6c42\uff0c\u91cf\u8eab\u5b9a\u505a\u4e0d\u540c\u7684\u89e3\u51b3\u65b9\u6848\uff0c\u4f7f\u5b66\u751f\u53ef\u4ee5\u8f7b\u677e\u901a\u8fc7\u5206\u671f\u4ed8\u6b3e\u6765\u5b8c\u6210\u5b66\u4e1a\u3002
p5367
sVContactFlag
p5368
I1
sVNickName
p5369
Vddx\u718a\u6765\u4e86
p5370
sVRemarkPYQuanPin
p5371
g48
sVHeadImgUrl
p5372
V/cgi-bin/mmwebwx-bin/webwxgeticon?seq=645199395&username=@6b19e7788e2198da95f4c2400a92b775&skey=@crypt_870a16cf_456d32d449b4c837b4f12f1e0fbe5017
p5373
sVSex
p5374
I0
sVStarFriend
p5375
I0
sVStatues
p5376
I0
sassS'loginInfo'
p5377
(dp5378
S'SyncKey'
p5379
(dp5380
VCount
p5381
I4
sVList
p5382
(lp5383
(dp5384
VVal
p5385
I660462965
sVKey
p5386
I1
sa(dp5387
VVal
p5388
I660463406
sVKey
p5389
I2
sa(dp5390
VVal
p5391
I660463111
sVKey
p5392
I3
sa(dp5393
VVal
p5394
I1503558680
sVKey
p5395
I1000
sassS'syncUrl'
p5396
S'https://webpush.wx.qq.com/cgi-bin/mmwebwx-bin'
p5397
sS'skey'
p5398
V@crypt_870a16cf_456d32d449b4c837b4f12f1e0fbe5017
p5399
sS'wxuin'
p5400
V1835068021
p5401
sS'synckey'
p5402
S'1_660462965|2_660463406|3_660463111|1000_1503558680'
p5403
sS'url'
p5404
Vhttps://wx.qq.com/cgi-bin/mmwebwx-bin
p5405
sS'pass_ticket'
p5406
Vc%2Bs2elt09BqYx3DSwRIj0PZPJXBqnrAdULnEWn5ATlr6ZEm4XdmRtV56BNEAvKkw
p5407
sS'wxsid'
p5408
VvOfn28WcQ2dd4kj6
p5409
sS'User'
p5410
g35
sS'InviteStartCount'
p5411
I40
sS'fileUrl'
p5412
S'https://file.wx.qq.com/cgi-bin/mmwebwx-bin'
p5413
sS'BaseRequest'
p5414
(dp5415
g77
g5401
sS'Skey'
p5416
g5399
sS'DeviceID'
p5417
g5407
sS'Sid'
p5418
g5409
ssS'deviceid'
p5419
S'e963379180518801'
p5420
ss.