(dp0
S'cookies'
p1
(dp2
S'wxloadtime'
p3
S'1510293361'
p4
sS'webwx_data_ticket'
p5
S'gSfizxUETWtMSDtTFDYiLMGQ'
p6
sS'wxuin'
p7
S'1835068021'
p8
sS'login_frequency'
p9
S'2'
p10
sS'MM_WX_NOTIFY_STATE'
p11
S'1'
p12
sS'MM_WX_SOUND_STATE'
p13
g12
sS'webwx_auth_ticket'
p14
S'CIsBEPzXrOkKGoAB4ru3y6zFAAI/1aUe9hMdKsw1lKUkMS+b7sI57t/UJjSxebit/5cn/yZueowB9nsjbS02rmy0cKpHaWxmuQ7Rjw4JMSKikQ4Zpf6SyJk0qlG8biIl6PONZzge8IDGKzPh2F/EtAqoifpu96tHvOrlQxmmLsveZN/FaFqebHK83pQ='
p15
sS'last_wxuin'
p16
S'1835068021'
p17
sS'webwxuvid'
p18
S'84aefa150219fdf348f06cdd4ff77e9542916e327ebc1293cb1a807875dd09cd8a5e465d363324ef9035f05e80eabe68'
p19
sS'wxpluginkey'
p20
S'1510293154'
p21
sS'wxsid'
p22
S'TxYtVmzgFC1Vl06n'
p23
sS'mm_lang'
p24
S'zh_CN'
p25
ssS'version'
p26
S'1.2.32'
p27
sS'storage'
p28
(dp29
S'userName'
p30
V@fb8d83980126e377a656313574ca6c23203565c6b3f821939173bc243e971816
p31
sS'lastInputUserName'
p32
NsS'memberList'
p33
(lp34
(dp35
S'UserName'
p36
V@fb8d83980126e377a656313574ca6c23203565c6b3f821939173bc243e971816
p37
sS'City'
p38
V\u5927\u8fde
p39
sS'DisplayName'
p40
S''
p41
sS'UniFriend'
p42
I0
sS'MemberList'
p43
(lp44
sS'PYQuanPin'
p45
VDAREDEVIL
p46
sS'RemarkPYInitial'
p47
V
p48
sS'Sex'
p49
I1
sS'AppAccountFlag'
p50
I0
sS'VerifyFlag'
p51
I0
sS'Province'
p52
V\u8fbd\u5b81
p53
sS'KeyWord'
p54
g41
sS'RemarkName'
p55
g48
sS'PYInitial'
p56
VDAREDEVIL
p57
sVIsOwner
p58
I0
sS'ChatRoomId'
p59
I0
sS'HideInputBarFlag'
p60
I0
sVHeadImgFlag
p61
I1
sS'EncryChatRoomId'
p62
g41
sS'AttrStatus'
p63
I33691647
sVWebWxPluginSwitch
p64
I1
sS'SnsFlag'
p65
I145
sS'MemberCount'
p66
I0
sS'OwnerUin'
p67
I0
sS'Alias'
p68
g41
sS'Signature'
p69
V\u5982\u679c\u4e0d\u80fd\u5403\u5b83\u3001\u4e0d\u80fd\u559d\u5b83\u3001\u4e0d\u80fd\u62bd\u5b83\u3001\u4e0d\u80fd\u5438\u5b83\uff0c\u90a3\u5c31\u5e72\u6b7b\u5b83\uff01
p70
sS'ContactFlag'
p71
I5
sS'NickName'
p72
VDAREDEVIL
p73
sS'RemarkPYQuanPin'
p74
g48
sS'HeadImgUrl'
p75
V/cgi-bin/mmwebwx-bin/webwxgeticon?seq=660412909&username=@fb8d83980126e377a656313574ca6c23203565c6b3f821939173bc243e971816&skey=@crypt_870a16cf_8c26e3b8f2f48a5406ce444d0927cfd8
p76
sS'Uin'
p77
I1835068021
sS'StarFriend'
p78
I0
sS'Statues'
p79
I0
sa(dp80
VUserName
p81
V@6763432ab62dc11231cfd8e502463255f307976d0c4910124e850abbfdc71bcb
p82
sVCity
p83
g48
sVDisplayName
p84
g48
sVUniFriend
p85
I0
sVMemberList
p86
(lp87
sVPYQuanPin
p88
Vmolin
p89
sVRemarkPYInitial
p90
VML
p91
sVUin
p92
I0
sVAppAccountFlag
p93
I0
sVVerifyFlag
p94
I0
sVProvince
p95
g48
sVKeyWord
p96
g48
sVRemarkName
p97
V\u58a8\u6797
p98
sVPYInitial
p99
VML
p100
sVChatRoomId
p101
I0
sVIsOwner
p102
I0
sVHideInputBarFlag
p103
I0
sVEncryChatRoomId
p104
g48
sVAttrStatus
p105
I235813
sVSnsFlag
p106
I1
sVMemberCount
p107
I0
sVOwnerUin
p108
I0
sVAlias
p109
g48
sVSignature
p110
g48
sVContactFlag
p111
I3
sVNickName
p112
V\u58a8\u6797
p113
sVRemarkPYQuanPin
p114
Vmolin
p115
sVHeadImgUrl
p116
V/cgi-bin/mmwebwx-bin/webwxgeticon?seq=660497232&username=@6763432ab62dc11231cfd8e502463255f307976d0c4910124e850abbfdc71bcb&skey=@crypt_870a16cf_8c26e3b8f2f48a5406ce444d0927cfd8
p117
sVSex
p118
I0
sVStarFriend
p119
I0
sVStatues
p120
I0
sa(dp121
VUserName
p122
V@90477dc30c801bc2819415a069bb5f2f
p123
sVCity
p124
V\u6d77\u6dc0
p125
sVDisplayName
p126
g48
sVUniFriend
p127
I0
sVMemberList
p128
(lp129
sVPYQuanPin
p130
Vyideyiban
p131
sVRemarkPYInitial
p132
g48
sVUin
p133
I0
sVAppAccountFlag
p134
I0
sVVerifyFlag
p135
I0
sVProvince
p136
V\u5317\u4eac
p137
sVKeyWord
p138
VJiB
p139
sVRemarkName
p140
g48
sVPYInitial
p141
VYDYB
p142
sVChatRoomId
p143
I0
sVIsOwner
p144
I0
sVHideInputBarFlag
p145
I0
sVEncryChatRoomId
p146
g48
sVAttrStatus
p147
I110695
sVSnsFlag
p148
I17
sVMemberCount
p149
I0
sVOwnerUin
p150
I0
sVAlias
p151
g48
sVSignature
p152
V^_^
p153
sVContactFlag
p154
I3
sVNickName
p155
V\u58f9\u7684\u4e00\u534a
p156
sVRemarkPYQuanPin
p157
g48
sVHeadImgUrl
p158
V/cgi-bin/mmwebwx-bin/webwxgeticon?seq=660496173&username=@90477dc30c801bc2819415a069bb5f2f&skey=@crypt_870a16cf_8c26e3b8f2f48a5406ce444d0927cfd8
p159
sVSex
p160
I1
sVStarFriend
p161
I0
sVStatues
p162
I0
sa(dp163
VUserName
p164
V@d6b7728af36be5c15ea674025310809b
p165
sVCity
p166
g48
sVDisplayName
p167
g48
sVUniFriend
p168
I0
sVMemberList
p169
(lp170
sVPYQuanPin
p171
Vniyoumeiyoumengxiang
p172
sVRemarkPYInitial
p173
VWCH
p174
sVUin
p175
I0
sVAppAccountFlag
p176
I0
sVVerifyFlag
p177
I0
sVProvince
p178
g48
sVKeyWord
p179
Vhua
p180
sVRemarkName
p181
V\u738b\u660c\u534e
p182
sVPYInitial
p183
VNYMYMX
p184
sVChatRoomId
p185
I0
sVIsOwner
p186
I0
sVHideInputBarFlag
p187
I0
sVEncryChatRoomId
p188
g48
sVAttrStatus
p189
I107622
sVSnsFlag
p190
I49
sVMemberCount
p191
I0
sVOwnerUin
p192
I0
sVAlias
p193
g48
sVSignature
p194
V\u5bf9\u4e8e\u672a\u6765\u7684\u751f\u6d3b\uff0c\u53ea\u60f3\u6709\u6240\u68a6\uff0c\u6709\u6240\u60f3\uff01\u6709\u6240\u5e0c\u671b\uff01
p195
sVContactFlag
p196
I5
sVNickName
p197
V\u4f60\u6709\u6ca1\u6709\u68a6\u60f3
p198
sVRemarkPYQuanPin
p199
Vwangchanghua
p200
sVHeadImgUrl
p201
V/cgi-bin/mmwebwx-bin/webwxgeticon?seq=647451210&username=@d6b7728af36be5c15ea674025310809b&skey=@crypt_870a16cf_8c26e3b8f2f48a5406ce444d0927cfd8
p202
sVSex
p203
I1
sVStarFriend
p204
I0
sVStatues
p205
I0
sa(dp206
VUserName
p207
V@1d4c15741848b8cc33756bf3db44a87b
p208
sVCity
p209
V\u5927\u8fde
p210
sVDisplayName
p211
g48
sVUniFriend
p212
I0
sVMemberList
p213
(lp214
sVPYQuanPin
p215
Vguyu
p216
sVRemarkPYInitial
p217
VGFR
p218
sVUin
p219
I0
sVAppAccountFlag
p220
I0
sVVerifyFlag
p221
I0
sVProvince
p222
V\u8fbd\u5b81
p223
sVKeyWord
p224
Vguf
p225
sVRemarkName
p226
V\u8c37\u5bcc\u5112
p227
sVPYInitial
p228
VGY
p229
sVChatRoomId
p230
I0
sVIsOwner
p231
I0
sVHideInputBarFlag
p232
I0
sVEncryChatRoomId
p233
g48
sVAttrStatus
p234
I110695
sVSnsFlag
p235
I49
sVMemberCount
p236
I0
sVOwnerUin
p237
I0
sVAlias
p238
g48
sVSignature
p239
V\u2605\u4eba\u4e0d\u53ef\u6709\u50b2\u6c14 \u4e0d\u53ef\u65e0\u50b2\u9aa8\u2606
p240
sVContactFlag
p241
I1
sVNickName
p242
V\u8c37\u96e8
p243
sVRemarkPYQuanPin
p244
Vgufuru
p245
sVHeadImgUrl
p246
V/cgi-bin/mmwebwx-bin/webwxgeticon?seq=626960328&username=@1d4c15741848b8cc33756bf3db44a87b&skey=@crypt_870a16cf_8c26e3b8f2f48a5406ce444d0927cfd8
p247
sVSex
p248
I1
sVStarFriend
p249
I0
sVStatues
p250
I0
sa(dp251
VUserName
p252
V@f472bc57635aabe7ae212e37e5967efac6d62f7f0d40a93aca8eba00f7fd0a41
p253
sVCity
p254
V\u5927\u8fde
p255
sVDisplayName
p256
g48
sVUniFriend
p257
I0
sVMemberList
p258
(lp259
sVPYQuanPin
p260
Vdanxiaohongchen
p261
sVRemarkPYInitial
p262
VSDX
p263
sVUin
p264
I0
sVAppAccountFlag
p265
I0
sVVerifyFlag
p266
I0
sVProvince
p267
V\u8fbd\u5b81
p268
sVKeyWord
p269
g48
sVRemarkName
p270
V\u5c1a\u51ac\u96ea
p271
sVPYInitial
p272
VDXHC
p273
sVChatRoomId
p274
I0
sVIsOwner
p275
I0
sVHideInputBarFlag
p276
I0
sVEncryChatRoomId
p277
g48
sVAttrStatus
p278
I135205
sVSnsFlag
p279
I17
sVMemberCount
p280
I0
sVOwnerUin
p281
I0
sVAlias
p282
g48
sVSignature
p283
V\u968f\u5fc3\u6240\u6b32\uff0c\u968f\u9047\u800c\u5b89\u3002\u000a\u4e5d\u5929\u4e4b\u4e0a\uff0c\u6211\u8ba9\u4f60\uff1b\u000a\u4e5d\u6cc9\u4e4b\u4e0b\uff0c\u6211\u7b49\u4f60\u3002
p284
sVContactFlag
p285
I1
sVNickName
p286
V\u6de1\u7b11\u7ea2\u5c18
p287
sVRemarkPYQuanPin
p288
Vshangdongxue
p289
sVHeadImgUrl
p290
V/cgi-bin/mmwebwx-bin/webwxgeticon?seq=629040671&username=@f472bc57635aabe7ae212e37e5967efac6d62f7f0d40a93aca8eba00f7fd0a41&skey=@crypt_870a16cf_8c26e3b8f2f48a5406ce444d0927cfd8
p291
sVSex
p292
I2
sVStarFriend
p293
I0
sVStatues
p294
I0
sa(dp295
VUserName
p296
V@07a4a5707f42845060ac06fb236015ed974f07d053a14155b77e1e6860db099c
p297
sVCity
p298
V\u5927\u8fde
p299
sVDisplayName
p300
g48
sVUniFriend
p301
I0
sVMemberList
p302
(lp303
sVPYQuanPin
p304
Vjianjiandandan
p305
sVRemarkPYInitial
p306
VLG
p307
sVUin
p308
I0
sVAppAccountFlag
p309
I0
sVVerifyFlag
p310
I0
sVProvince
p311
V\u8fbd\u5b81
p312
sVKeyWord
p313
g48
sVRemarkName
p314
V\u8001\u59d1
p315
sVPYInitial
p316
VJJDD
p317
sVChatRoomId
p318
I0
sVIsOwner
p319
I0
sVHideInputBarFlag
p320
I0
sVEncryChatRoomId
p321
g48
sVAttrStatus
p322
L2147487781L
sVSnsFlag
p323
I1
sVMemberCount
p324
I0
sVOwnerUin
p325
I0
sVAlias
p326
g48
sVSignature
p327
g48
sVContactFlag
p328
I1
sVNickName
p329
V\u7b80\u7b80\u4e39\u4e39
p330
sVRemarkPYQuanPin
p331
Vlaogu
p332
sVHeadImgUrl
p333
V/cgi-bin/mmwebwx-bin/webwxgeticon?seq=643035702&username=@07a4a5707f42845060ac06fb236015ed974f07d053a14155b77e1e6860db099c&skey=@crypt_870a16cf_8c26e3b8f2f48a5406ce444d0927cfd8
p334
sVSex
p335
I2
sVStarFriend
p336
I0
sVStatues
p337
I0
sa(dp338
VUserName
p339
V@c933ba2ce6830c4775052bee1bfa87e66291b3ad255e2c50214546f47196af50
p340
sVCity
p341
V\u671d\u9633
p342
sVDisplayName
p343
g48
sVUniFriend
p344
I0
sVMemberList
p345
(lp346
sVPYQuanPin
p347
Vchangfen
p348
sVRemarkPYInitial
p349
VSG
p350
sVUin
p351
I0
sVAppAccountFlag
p352
I0
sVVerifyFlag
p353
I0
sVProvince
p354
V\u5317\u4eac
p355
sVKeyWord
p356
g48
sVRemarkName
p357
V\u4e09\u59d1
p358
sVPYInitial
p359
VCF
p360
sVChatRoomId
p361
I0
sVIsOwner
p362
I0
sVHideInputBarFlag
p363
I0
sVEncryChatRoomId
p364
g48
sVAttrStatus
p365
I102469
sVSnsFlag
p366
I1
sVMemberCount
p367
I0
sVOwnerUin
p368
I0
sVAlias
p369
g48
sVSignature
p370
g48
sVContactFlag
p371
I1
sVNickName
p372
V\u957f\u82ac
p373
sVRemarkPYQuanPin
p374
Vsangu
p375
sVHeadImgUrl
p376
V/cgi-bin/mmwebwx-bin/webwxgeticon?seq=660409582&username=@c933ba2ce6830c4775052bee1bfa87e66291b3ad255e2c50214546f47196af50&skey=@crypt_870a16cf_8c26e3b8f2f48a5406ce444d0927cfd8
p377
sVSex
p378
I1
sVStarFriend
p379
I0
sVStatues
p380
I0
sa(dp381
VUserName
p382
V@29b5ec2f1b97773a095fad166e7d910da387956a7d98546c9a8cedf5dd9698f5
p383
sVCity
p384
V\u5927\u8fde
p385
sVDisplayName
p386
g48
sVUniFriend
p387
I0
sVMemberList
p388
(lp389
sVPYQuanPin
p390
Vliuyunzhi
p391
sVRemarkPYInitial
p392
g48
sVUin
p393
I0
sVAppAccountFlag
p394
I0
sVVerifyFlag
p395
I0
sVProvince
p396
V\u8fbd\u5b81
p397
sVKeyWord
p398
g48
sVRemarkName
p399
g48
sVPYInitial
p400
VLYZ
p401
sVChatRoomId
p402
I0
sVIsOwner
p403
I0
sVHideInputBarFlag
p404
I0
sVEncryChatRoomId
p405
g48
sVAttrStatus
p406
I135207
sVSnsFlag
p407
I17
sVMemberCount
p408
I0
sVOwnerUin
p409
I0
sVAlias
p410
g48
sVSignature
p411
V\u6ca1\u6709\u52c7\u6c14\u7684\u4eba\uff0c\u53ea\u80fd\u662f\u4e00\u6b21\u53c8\u4e00\u6b21\u7684\u9519\u8fc7\u3002
p412
sVContactFlag
p413
I1
sVNickName
p414
V\u5218\u82b8\u5fd7
p415
sVRemarkPYQuanPin
p416
g48
sVHeadImgUrl
p417
V/cgi-bin/mmwebwx-bin/webwxgeticon?seq=648823860&username=@29b5ec2f1b97773a095fad166e7d910da387956a7d98546c9a8cedf5dd9698f5&skey=@crypt_870a16cf_8c26e3b8f2f48a5406ce444d0927cfd8
p418
sVSex
p419
I1
sVStarFriend
p420
I0
sVStatues
p421
I0
sa(dp422
VUserName
p423
V@bb9ee32922978cdac0ef0615f1a43e758631808a07e374bfe74d865b5f19776a
p424
sVCity
p425
V\u5927\u8fde
p426
sVDisplayName
p427
g48
sVUniFriend
p428
I0
sVMemberList
p429
(lp430
sVPYQuanPin
p431
Vxiaobao
p432
sVRemarkPYInitial
p433
g48
sVUin
p434
I0
sVAppAccountFlag
p435
I0
sVVerifyFlag
p436
I0
sVProvince
p437
V\u8fbd\u5b81
p438
sVKeyWord
p439
g48
sVRemarkName
p440
g48
sVPYInitial
p441
VXB
p442
sVChatRoomId
p443
I0
sVIsOwner
p444
I0
sVHideInputBarFlag
p445
I0
sVEncryChatRoomId
p446
g48
sVAttrStatus
p447
I1211
sVSnsFlag
p448
I16
sVMemberCount
p449
I0
sVOwnerUin
p450
I0
sVAlias
p451
g48
sVSignature
p452
V\u4eba\u751f\u7684\u65c5\u9014\u6709\u592a\u591a\u7684\u76f8\u9047\uff0c\u4f46\u6211\u53ea\u7b49\u5019\u4f60\u2026\u2026
p453
sVContactFlag
p454
I1
sVNickName
p455
V\u2606\u5c0f\u5b9d\u2121
p456
sVRemarkPYQuanPin
p457
g48
sVHeadImgUrl
p458
V/cgi-bin/mmwebwx-bin/webwxgeticon?seq=1170465&username=@bb9ee32922978cdac0ef0615f1a43e758631808a07e374bfe74d865b5f19776a&skey=@crypt_870a16cf_8c26e3b8f2f48a5406ce444d0927cfd8
p459
sVSex
p460
I1
sVStarFriend
p461
I0
sVStatues
p462
I0
sa(dp463
VUserName
p464
V@c74a96ab19d8183503920d20b75d7b1c
p465
sVCity
p466
V\u4e30\u53f0
p467
sVDisplayName
p468
g48
sVUniFriend
p469
I0
sVMemberList
p470
(lp471
sVPYQuanPin
p472
Vsnow
p473
sVRemarkPYInitial
p474
VZX
p475
sVUin
p476
I0
sVAppAccountFlag
p477
I0
sVVerifyFlag
p478
I0
sVProvince
p479
V\u5317\u4eac
p480
sVKeyWord
p481
Vyux
p482
sVRemarkName
p483
V\u5f20\u96ea
p484
sVPYInitial
p485
VSNOW
p486
sVChatRoomId
p487
I0
sVIsOwner
p488
I0
sVHideInputBarFlag
p489
I0
sVEncryChatRoomId
p490
g48
sVAttrStatus
p491
I100775
sVSnsFlag
p492
I49
sVMemberCount
p493
I0
sVOwnerUin
p494
I0
sVAlias
p495
g48
sVSignature
p496
V\u7761\u89c9\u7761\u5230\u81ea\u7136\u9192\uff08\u5bb6\u6709\u5e05\u54e5\uff09
p497
sVContactFlag
p498
I1
sVNickName
p499
Vsnow
p500
sVRemarkPYQuanPin
p501
Vzhangxue
p502
sVHeadImgUrl
p503
V/cgi-bin/mmwebwx-bin/webwxgeticon?seq=660401662&username=@c74a96ab19d8183503920d20b75d7b1c&skey=@crypt_870a16cf_8c26e3b8f2f48a5406ce444d0927cfd8
p504
sVSex
p505
I2
sVStarFriend
p506
I0
sVStatues
p507
I0
sa(dp508
VUserName
p509
V@a4d5c56d67827a29fa919e3e9b3f7c54
p510
sVCity
p511
V\u6d77\u6dc0
p512
sVDisplayName
p513
g48
sVUniFriend
p514
I0
sVMemberList
p515
(lp516
sVPYQuanPin
p517
Vpipi
p518
sVRemarkPYInitial
p519
g48
sVUin
p520
I0
sVAppAccountFlag
p521
I0
sVVerifyFlag
p522
I0
sVProvince
p523
V\u5317\u4eac
p524
sVKeyWord
p525
Vgao
p526
sVRemarkName
p527
g48
sVPYInitial
p528
VPP
p529
sVChatRoomId
p530
I0
sVIsOwner
p531
I0
sVHideInputBarFlag
p532
I0
sVEncryChatRoomId
p533
g48
sVAttrStatus
p534
I33789887
sVSnsFlag
p535
I17
sVMemberCount
p536
I0
sVOwnerUin
p537
I0
sVAlias
p538
g48
sVSignature
p539
g48
sVContactFlag
p540
I1
sVNickName
p541
V\u76ae\u76ae
p542
sVRemarkPYQuanPin
p543
g48
sVHeadImgUrl
p544
V/cgi-bin/mmwebwx-bin/webwxgeticon?seq=660417582&username=@a4d5c56d67827a29fa919e3e9b3f7c54&skey=@crypt_870a16cf_8c26e3b8f2f48a5406ce444d0927cfd8
p545
sVSex
p546
I1
sVStarFriend
p547
I0
sVStatues
p548
I0
sa(dp549
VUserName
p550
V@311e92e864dbee296ecd36489934704390589280f461b08bbc1275e4b4d34e5b
p551
sVCity
p552
V\u4fdd\u5b9a
p553
sVDisplayName
p554
g48
sVUniFriend
p555
I0
sVMemberList
p556
(lp557
sVPYQuanPin
p558
Vthewonder
p559
sVRemarkPYInitial
p560
VQJ
p561
sVUin
p562
I0
sVAppAccountFlag
p563
I0
sVVerifyFlag
p564
I0
sVProvince
p565
V\u6cb3\u5317
p566
sVKeyWord
p567
g48
sVRemarkName
p568
V\u9f50\u7eaa
p569
sVPYInitial
p570
VTHEWONDER
p571
sVChatRoomId
p572
I0
sVIsOwner
p573
I0
sVHideInputBarFlag
p574
I0
sVEncryChatRoomId
p575
g48
sVAttrStatus
p576
I4197
sVSnsFlag
p577
I1
sVMemberCount
p578
I0
sVOwnerUin
p579
I0
sVAlias
p580
g48
sVSignature
p581
V18531241146
p582
sVContactFlag
p583
I1
sVNickName
p584
Vthe wonder
p585
sVRemarkPYQuanPin
p586
Vqiji
p587
sVHeadImgUrl
p588
V/cgi-bin/mmwebwx-bin/webwxgeticon?seq=641995109&username=@311e92e864dbee296ecd36489934704390589280f461b08bbc1275e4b4d34e5b&skey=@crypt_870a16cf_8c26e3b8f2f48a5406ce444d0927cfd8
p589
sVSex
p590
I1
sVStarFriend
p591
I0
sVStatues
p592
I0
sa(dp593
VUserName
p594
V@0d5c56f6e8949eb2391e6e4f06230ee276c996ec178cd38fd9afd86b54c0388b
p595
sVCity
p596
V\u5927\u8fde
p597
sVDisplayName
p598
g48
sVUniFriend
p599
I0
sVMemberList
p600
(lp601
sVPYQuanPin
p602
Vsheng
p603
sVRemarkPYInitial
p604
VYYS
p605
sVUin
p606
I0
sVAppAccountFlag
p607
I0
sVVerifyFlag
p608
I0
sVProvince
p609
V\u8fbd\u5b81
p610
sVKeyWord
p611
g48
sVRemarkName
p612
V\u4e8e\u8dc3\u751f
p613
sVPYInitial
p614
VS
p615
sVChatRoomId
p616
I0
sVIsOwner
p617
I0
sVHideInputBarFlag
p618
I0
sVEncryChatRoomId
p619
g48
sVAttrStatus
p620
I137317
sVSnsFlag
p621
I17
sVMemberCount
p622
I0
sVOwnerUin
p623
I0
sVAlias
p624
g48
sVSignature
p625
V\u614e\u72ec
p626
sVContactFlag
p627
I1
sVNickName
p628
V\u5347
p629
sVRemarkPYQuanPin
p630
Vyuyuesheng
p631
sVHeadImgUrl
p632
V/cgi-bin/mmwebwx-bin/webwxgeticon?seq=660425030&username=@0d5c56f6e8949eb2391e6e4f06230ee276c996ec178cd38fd9afd86b54c0388b&skey=@crypt_870a16cf_8c26e3b8f2f48a5406ce444d0927cfd8
p633
sVSex
p634
I1
sVStarFriend
p635
I0
sVStatues
p636
I0
sa(dp637
VUserName
p638
V@da713e31b6198ea6a29c466aeb8b50ef5a3533168d4b60a04f29293fb6e58f7a
p639
sVCity
p640
V\u671d\u9633
p641
sVDisplayName
p642
g48
sVUniFriend
p643
I0
sVMemberList
p644
(lp645
sVPYQuanPin
p646
Vjiayouernv
p647
sVRemarkPYInitial
p648
VLS
p649
sVUin
p650
I0
sVAppAccountFlag
p651
I0
sVVerifyFlag
p652
I0
sVProvince
p653
V\u5317\u4eac
p654
sVKeyWord
p655
g48
sVRemarkName
p656
V\u8001\u53d4
p657
sVPYInitial
p658
VJYEN
p659
sVChatRoomId
p660
I0
sVIsOwner
p661
I0
sVHideInputBarFlag
p662
I0
sVEncryChatRoomId
p663
g48
sVAttrStatus
p664
I102501
sVSnsFlag
p665
I17
sVMemberCount
p666
I0
sVOwnerUin
p667
I0
sVAlias
p668
g48
sVSignature
p669
V\u6212\u6307\u7ed9\u4f60\u6234\u5728\u4e86\u65e0\u540d\u6307\u5c31\u8981\u548c\u4f60\u76f8\u5b88\u4e00\u8f88\u5b50
p670
sVContactFlag
p671
I1
sVNickName
p672
V\u5bb6\u6709\u513f\u5973
p673
sVRemarkPYQuanPin
p674
Vlaoshu
p675
sVHeadImgUrl
p676
V/cgi-bin/mmwebwx-bin/webwxgeticon?seq=648843215&username=@da713e31b6198ea6a29c466aeb8b50ef5a3533168d4b60a04f29293fb6e58f7a&skey=@crypt_870a16cf_8c26e3b8f2f48a5406ce444d0927cfd8
p677
sVSex
p678
I1
sVStarFriend
p679
I0
sVStatues
p680
I0
sa(dp681
VUserName
p682
V@141093e8cd675b9e2d5dd549968e9702
p683
sVCity
p684
V\u5927\u8fde
p685
sVDisplayName
p686
g48
sVUniFriend
p687
I0
sVMemberList
p688
(lp689
sVPYQuanPin
p690
Vqigehaomingzhennan
p691
sVRemarkPYInitial
p692
VLG
p693
sVUin
p694
I0
sVAppAccountFlag
p695
I0
sVVerifyFlag
p696
I0
sVProvince
p697
V\u8fbd\u5b81
p698
sVKeyWord
p699
Vxia
p700
sVRemarkName
p701
V\u9f99\u54e5
p702
sVPYInitial
p703
VQGHMZN
p704
sVChatRoomId
p705
I0
sVIsOwner
p706
I0
sVHideInputBarFlag
p707
I0
sVEncryChatRoomId
p708
g48
sVAttrStatus
p709
L2147726839L
sVSnsFlag
p710
I49
sVMemberCount
p711
I0
sVOwnerUin
p712
I0
sVAlias
p713
g48
sVSignature
p714
V\u4f60\u82e5\u5b89\u597d\uff0c\u4fbf\u662f\u6674\u5929\u3002\u60c5\u4e0d\u77e5\u6240\u8d77\uff0c\u4e00\u5f80\u800c\u6df1\u3002
p715
sVContactFlag
p716
I1
sVNickName
p717
V\u8d77\u4e2a\u597d\u540d\u771f\u96be
p718
sVRemarkPYQuanPin
p719
Vlongge
p720
sVHeadImgUrl
p721
V/cgi-bin/mmwebwx-bin/webwxgeticon?seq=648784334&username=@141093e8cd675b9e2d5dd549968e9702&skey=@crypt_870a16cf_8c26e3b8f2f48a5406ce444d0927cfd8
p722
sVSex
p723
I1
sVStarFriend
p724
I0
sVStatues
p725
I0
sa(dp726
VUserName
p727
V@b0d834693a35c15f214ad2e1e160b5d8
p728
sVCity
p729
V\u4e1c\u57ce
p730
sVDisplayName
p731
g48
sVUniFriend
p732
I0
sVMemberList
p733
(lp734
sVPYQuanPin
p735
Vlvyou
p736
sVRemarkPYInitial
p737
VLY
p738
sVUin
p739
I0
sVAppAccountFlag
p740
I0
sVVerifyFlag
p741
I0
sVProvince
p742
V\u5317\u4eac
p743
sVKeyWord
p744
Vtou
p745
sVRemarkName
p746
V\u5415\u6e38
p747
sVPYInitial
p748
VLY
p749
sVChatRoomId
p750
I0
sVIsOwner
p751
I0
sVHideInputBarFlag
p752
I0
sVEncryChatRoomId
p753
g48
sVAttrStatus
p754
I17010791
sVSnsFlag
p755
I17
sVMemberCount
p756
I0
sVOwnerUin
p757
I0
sVAlias
p758
g48
sVSignature
p759
V\u505a\u6700\u597d\u7684\u81ea\u5df1
p760
sVContactFlag
p761
I1
sVNickName
p762
V\u5415\u6e38
p763
sVRemarkPYQuanPin
p764
Vlvyou
p765
sVHeadImgUrl
p766
V/cgi-bin/mmwebwx-bin/webwxgeticon?seq=648840869&username=@b0d834693a35c15f214ad2e1e160b5d8&skey=@crypt_870a16cf_8c26e3b8f2f48a5406ce444d0927cfd8
p767
sVSex
p768
I1
sVStarFriend
p769
I0
sVStatues
p770
I0
sa(dp771
VUserName
p772
V@4569e5474da84c61e33b32764c264bc6797d54de30f2bb7cd927f69d8c7a65dc
p773
sVCity
p774
V\u671d\u9633
p775
sVDisplayName
p776
g48
sVUniFriend
p777
I0
sVMemberList
p778
(lp779
sVPYQuanPin
p780
Vweilai
p781
sVRemarkPYInitial
p782
VES
p783
sVUin
p784
I0
sVAppAccountFlag
p785
I0
sVVerifyFlag
p786
I0
sVProvince
p787
V\u5317\u4eac
p788
sVKeyWord
p789
g48
sVRemarkName
p790
V\u4e8c\u53d4
p791
sVPYInitial
p792
VWL
p793
sVChatRoomId
p794
I0
sVIsOwner
p795
I0
sVHideInputBarFlag
p796
I0
sVEncryChatRoomId
p797
g48
sVAttrStatus
p798
I45157
sVSnsFlag
p799
I17
sVMemberCount
p800
I0
sVOwnerUin
p801
I0
sVAlias
p802
g48
sVSignature
p803
V\u840c
p804
sVContactFlag
p805
I1
sVNickName
p806
V\u672a\u6765
p807
sVRemarkPYQuanPin
p808
Vershu
p809
sVHeadImgUrl
p810
V/cgi-bin/mmwebwx-bin/webwxgeticon?seq=643030137&username=@4569e5474da84c61e33b32764c264bc6797d54de30f2bb7cd927f69d8c7a65dc&skey=@crypt_870a16cf_8c26e3b8f2f48a5406ce444d0927cfd8
p811
sVSex
p812
I1
sVStarFriend
p813
I0
sVStatues
p814
I0
sa(dp815
VUserName
p816
V@d19f1b86f809af9b5c701f13537b9e0996fbc11c968c08bb1b461f5a320f8a66
p817
sVCity
p818
V\u5927\u8fde
p819
sVDisplayName
p820
g48
sVUniFriend
p821
I0
sVMemberList
p822
(lp823
sVPYQuanPin
p824
Vzisu
p825
sVRemarkPYInitial
p826
VJJ
p827
sVUin
p828
I0
sVAppAccountFlag
p829
I0
sVVerifyFlag
p830
I0
sVProvince
p831
V\u8fbd\u5b81
p832
sVKeyWord
p833
g48
sVRemarkName
p834
V\u4fca\u59d0
p835
sVPYInitial
p836
VZS
p837
sVChatRoomId
p838
I0
sVIsOwner
p839
I0
sVHideInputBarFlag
p840
I0
sVEncryChatRoomId
p841
g48
sVAttrStatus
p842
I103205
sVSnsFlag
p843
I1
sVMemberCount
p844
I0
sVOwnerUin
p845
I0
sVAlias
p846
g48
sVSignature
p847
g48
sVContactFlag
p848
I1
sVNickName
p849
V\u7d2b\u82cf
p850
sVRemarkPYQuanPin
p851
Vjunjie
p852
sVHeadImgUrl
p853
V/cgi-bin/mmwebwx-bin/webwxgeticon?seq=636998733&username=@d19f1b86f809af9b5c701f13537b9e0996fbc11c968c08bb1b461f5a320f8a66&skey=@crypt_870a16cf_8c26e3b8f2f48a5406ce444d0927cfd8
p854
sVSex
p855
I2
sVStarFriend
p856
I0
sVStatues
p857
I0
sa(dp858
VUserName
p859
V@695f03306efa0466912d1ba85311e9745f777f26fe03b27af4e881643f950545
p860
sVCity
p861
V\u5927\u8fde
p862
sVDisplayName
p863
g48
sVUniFriend
p864
I0
sVMemberList
p865
(lp866
sVPYQuanPin
p867
Vweixiaodanshang
p868
sVRemarkPYInitial
p869
VMFT
p870
sVUin
p871
I0
sVAppAccountFlag
p872
I0
sVVerifyFlag
p873
I0
sVProvince
p874
V\u8fbd\u5b81
p875
sVKeyWord
p876
g48
sVRemarkName
p877
V\u95e8\u798f\u6d9b
p878
sVPYInitial
p879
VWXDS
p880
sVChatRoomId
p881
I0
sVIsOwner
p882
I0
sVHideInputBarFlag
p883
I0
sVEncryChatRoomId
p884
g48
sVAttrStatus
p885
I4133
sVSnsFlag
p886
I17
sVMemberCount
p887
I0
sVOwnerUin
p888
I0
sVAlias
p889
g48
sVSignature
p890
g48
sVContactFlag
p891
I1
sVNickName
p892
V\u5fae\u7b11  \u3001\u6de1\u4f24
p893
sVRemarkPYQuanPin
p894
Vmenfutao
p895
sVHeadImgUrl
p896
V/cgi-bin/mmwebwx-bin/webwxgeticon?seq=660449234&username=@695f03306efa0466912d1ba85311e9745f777f26fe03b27af4e881643f950545&skey=@crypt_870a16cf_8c26e3b8f2f48a5406ce444d0927cfd8
p897
sVSex
p898
I1
sVStarFriend
p899
I0
sVStatues
p900
I0
sa(dp901
VUserName
p902
V@da64b6dd18e98800e4d48c7836b10ab90af6dd3d05ae15840378a460a76b28e3
p903
sVCity
p904
V\u6c88\u9633
p905
sVDisplayName
p906
g48
sVUniFriend
p907
I0
sVMemberList
p908
(lp909
sVPYQuanPin
p910
Vtao
p911
sVRemarkPYInitial
p912
VNCT
p913
sVUin
p914
I0
sVAppAccountFlag
p915
I0
sVVerifyFlag
p916
I0
sVProvince
p917
V\u8fbd\u5b81
p918
sVKeyWord
p919
g48
sVRemarkName
p920
V\u502a\u7a0b\u6d9b
p921
sVPYInitial
p922
VT
p923
sVChatRoomId
p924
I0
sVIsOwner
p925
I0
sVHideInputBarFlag
p926
I0
sVEncryChatRoomId
p927
g48
sVAttrStatus
p928
I102437
sVSnsFlag
p929
I17
sVMemberCount
p930
I0
sVOwnerUin
p931
I0
sVAlias
p932
g48
sVSignature
p933
V\u6211\u7ed9\u4f60\u7684\u7231\uff0c\u4f60\u4e22\u5230\u4e86\u54ea\u91cc\u3002
p934
sVContactFlag
p935
I1
sVNickName
p936
V\u6d9b
p937
sVRemarkPYQuanPin
p938
Vnichengtao
p939
sVHeadImgUrl
p940
V/cgi-bin/mmwebwx-bin/webwxgeticon?seq=660452557&username=@da64b6dd18e98800e4d48c7836b10ab90af6dd3d05ae15840378a460a76b28e3&skey=@crypt_870a16cf_8c26e3b8f2f48a5406ce444d0927cfd8
p941
sVSex
p942
I1
sVStarFriend
p943
I0
sVStatues
p944
I0
sa(dp945
VUserName
p946
V@bc5d45bbc7eee7a53aec7a5b7a41f9020636101658dac85f44e08227ab662d2c
p947
sVCity
p948
g48
sVDisplayName
p949
g48
sVUniFriend
p950
I0
sVMemberList
p951
(lp952
sVPYQuanPin
p953
Vshenxiaocheng
p954
sVRemarkPYInitial
p955
VSC
p956
sVUin
p957
I0
sVAppAccountFlag
p958
I0
sVVerifyFlag
p959
I0
sVProvince
p960
VBarcelona
p961
sVKeyWord
p962
g48
sVRemarkName
p963
V\u6c88\u6210
p964
sVPYInitial
p965
VSXC
p966
sVChatRoomId
p967
I0
sVIsOwner
p968
I0
sVHideInputBarFlag
p969
I0
sVEncryChatRoomId
p970
g48
sVAttrStatus
p971
I16978151
sVSnsFlag
p972
I17
sVMemberCount
p973
I0
sVOwnerUin
p974
I0
sVAlias
p975
g48
sVSignature
p976
V\u4e00\u5373\u662f\u591a\uff0c\u591a\u5373\u662f\u4e00\u3002
p977
sVContactFlag
p978
I1
sVNickName
p979
V\u795e\u5c0f\u6a59
p980
sVRemarkPYQuanPin
p981
Vshencheng
p982
sVHeadImgUrl
p983
V/cgi-bin/mmwebwx-bin/webwxgeticon?seq=648850245&username=@bc5d45bbc7eee7a53aec7a5b7a41f9020636101658dac85f44e08227ab662d2c&skey=@crypt_870a16cf_8c26e3b8f2f48a5406ce444d0927cfd8
p984
sVSex
p985
I1
sVStarFriend
p986
I0
sVStatues
p987
I0
sa(dp988
VUserName
p989
V@dfab83152ff070916f3095347afe0c2bbc701859a68eeb0c1e5dde301336df07
p990
sVCity
p991
V\u5927\u8fde
p992
sVDisplayName
p993
g48
sVUniFriend
p994
I0
sVMemberList
p995
(lp996
sVPYQuanPin
p997
Vxiaodong
p998
sVRemarkPYInitial
p999
VWXD
p1000
sVUin
p1001
I0
sVAppAccountFlag
p1002
I0
sVVerifyFlag
p1003
I0
sVProvince
p1004
V\u8fbd\u5b81
p1005
sVKeyWord
p1006
g48
sVRemarkName
p1007
V\u738b\u6653\u4e1c
p1008
sVPYInitial
p1009
VXD
p1010
sVChatRoomId
p1011
I0
sVIsOwner
p1012
I0
sVHideInputBarFlag
p1013
I0
sVEncryChatRoomId
p1014
g48
sVAttrStatus
p1015
I16888933
sVSnsFlag
p1016
I49
sVMemberCount
p1017
I0
sVOwnerUin
p1018
I0
sVAlias
p1019
g48
sVSignature
p1020
V\u4e16\u4e0a\u6ca1\u6709\u51b7\u7537   \u000a   \u53ea\u662f\u4ed6\u6696\u7684\u4e0d\u662f\u4f60
p1021
sVContactFlag
p1022
I1
sVNickName
p1023
V\u6653\u4e1c
p1024
sVRemarkPYQuanPin
p1025
Vwangxiaodong
p1026
sVHeadImgUrl
p1027
V/cgi-bin/mmwebwx-bin/webwxgeticon?seq=648792790&username=@dfab83152ff070916f3095347afe0c2bbc701859a68eeb0c1e5dde301336df07&skey=@crypt_870a16cf_8c26e3b8f2f48a5406ce444d0927cfd8
p1028
sVSex
p1029
I2
sVStarFriend
p1030
I0
sVStatues
p1031
I0
sa(dp1032
VUserName
p1033
V@e5bcc2a0b1f2d25db7a2966f18ac7b55
p1034
sVCity
p1035
V\u6c88\u9633
p1036
sVDisplayName
p1037
g48
sVUniFriend
p1038
I0
sVMemberList
p1039
(lp1040
sVPYQuanPin
p1041
Vhewoquchengdudejietouchihuoguobaspanclassemojiemoji2755spanspanclassemojiemoji1f49espan
p1042
sVRemarkPYInitial
p1043
VWN
p1044
sVUin
p1045
I0
sVAppAccountFlag
p1046
I0
sVVerifyFlag
p1047
I0
sVProvince
p1048
V\u8fbd\u5b81
p1049
sVKeyWord
p1050
VM10
p1051
sVRemarkName
p1052
V\u5434\u6960
p1053
sVPYInitial
p1054
VHWQCDDJTCHGBSPANCLASSEMOJIEMOJI2755SPANSPANCLASSEMOJIEMOJI1F49ESPAN
p1055
sVChatRoomId
p1056
I0
sVIsOwner
p1057
I0
sVHideInputBarFlag
p1058
I0
sVEncryChatRoomId
p1059
g48
sVAttrStatus
p1060
I4135
sVSnsFlag
p1061
I17
sVMemberCount
p1062
I0
sVOwnerUin
p1063
I0
sVAlias
p1064
g48
sVSignature
p1065
V\u8c22\u8c22\u4f60\u4eec\uff0c\u7231\u6211\u7684\u6bcf\u4e2a\u4eba
p1066
sVContactFlag
p1067
I1
sVNickName
p1068
V\u548c\u6211\u53bb\u6210\u90fd\u7684\u8857\u5934\u5403\u706b\u9505\u5427\u2755\U0001f49e
p1069
sVRemarkPYQuanPin
p1070
Vwunan
p1071
sVHeadImgUrl
p1072
V/cgi-bin/mmwebwx-bin/webwxgeticon?seq=660465088&username=@e5bcc2a0b1f2d25db7a2966f18ac7b55&skey=@crypt_870a16cf_8c26e3b8f2f48a5406ce444d0927cfd8
p1073
sVSex
p1074
I2
sVStarFriend
p1075
I0
sVStatues
p1076
I0
sa(dp1077
VUserName
p1078
V@a5fd5c56a5ef74e37e6f8941f6be0cd1
p1079
sVCity
p1080
V\u6c88\u9633
p1081
sVDisplayName
p1082
g48
sVUniFriend
p1083
I0
sVMemberList
p1084
(lp1085
sVPYQuanPin
p1086
Vyuer
p1087
sVRemarkPYInitial
p1088
VYF
p1089
sVUin
p1090
I0
sVAppAccountFlag
p1091
I0
sVVerifyFlag
p1092
I0
sVProvince
p1093
V\u8fbd\u5b81
p1094
sVKeyWord
p1095
Vyuy
p1096
sVRemarkName
p1097
V\u6c38\u798f
p1098
sVPYInitial
p1099
VYE
p1100
sVChatRoomId
p1101
I0
sVIsOwner
p1102
I0
sVHideInputBarFlag
p1103
I0
sVEncryChatRoomId
p1104
g48
sVAttrStatus
p1105
I33656933
sVSnsFlag
p1106
I49
sVMemberCount
p1107
I0
sVOwnerUin
p1108
I0
sVAlias
p1109
g48
sVSignature
p1110
V\u4f60\u62e5\u6709\u4e00\u4e2a\u4ec0\u4e48\u6837\u7684\u5fc3\u6001\uff0c\u5c31\u4f1a\u770b\u5230\u4e00\u4e2a\u4ec0\u4e48\u6837\u7684\u4e16\u754c(\u2606_\u2606)
p1111
sVContactFlag
p1112
I1
sVNickName
p1113
V\u9c7c\u513f
p1114
sVRemarkPYQuanPin
p1115
Vyongfu
p1116
sVHeadImgUrl
p1117
V/cgi-bin/mmwebwx-bin/webwxgeticon?seq=660468075&username=@a5fd5c56a5ef74e37e6f8941f6be0cd1&skey=@crypt_870a16cf_8c26e3b8f2f48a5406ce444d0927cfd8
p1118
sVSex
p1119
I1
sVStarFriend
p1120
I0
sVStatues
p1121
I0
sa(dp1122
VUserName
p1123
V@75fc689ad5bc9e28555ff8612cb46683f8e766cdafd63d81d999c09f563dfaeb
p1124
sVCity
p1125
V\u5927\u8fde
p1126
sVDisplayName
p1127
g48
sVUniFriend
p1128
I0
sVMemberList
p1129
(lp1130
sVPYQuanPin
p1131
Vxiaojiujiu
p1132
sVRemarkPYInitial
p1133
VWS
p1134
sVUin
p1135
I0
sVAppAccountFlag
p1136
I0
sVVerifyFlag
p1137
I0
sVProvince
p1138
V\u8fbd\u5b81
p1139
sVKeyWord
p1140
g48
sVRemarkName
p1141
V\u738b\u677e
p1142
sVPYInitial
p1143
VXJJ
p1144
sVChatRoomId
p1145
I0
sVIsOwner
p1146
I0
sVHideInputBarFlag
p1147
I0
sVEncryChatRoomId
p1148
g48
sVAttrStatus
p1149
I99431
sVSnsFlag
p1150
I145
sVMemberCount
p1151
I0
sVOwnerUin
p1152
I0
sVAlias
p1153
g48
sVSignature
p1154
g48
sVContactFlag
p1155
I1
sVNickName
p1156
V\u25b2\u5c0f\u4e5d\u4e5d\u3001
p1157
sVRemarkPYQuanPin
p1158
Vwangsong
p1159
sVHeadImgUrl
p1160
V/cgi-bin/mmwebwx-bin/webwxgeticon?seq=660443273&username=@75fc689ad5bc9e28555ff8612cb46683f8e766cdafd63d81d999c09f563dfaeb&skey=@crypt_870a16cf_8c26e3b8f2f48a5406ce444d0927cfd8
p1161
sVSex
p1162
I2
sVStarFriend
p1163
I0
sVStatues
p1164
I0
sa(dp1165
VUserName
p1166
V@2a7d9cebce51a0d5003956adf1fd5f3e14d0dbb99f21ea99904b9ef1c23b7653
p1167
sVCity
p1168
V\u5927\u8fde
p1169
sVDisplayName
p1170
g48
sVUniFriend
p1171
I0
sVMemberList
p1172
(lp1173
sVPYQuanPin
p1174
Vbinggunyigenliangmaowu
p1175
sVRemarkPYInitial
p1176
VZXS
p1177
sVUin
p1178
I0
sVAppAccountFlag
p1179
I0
sVVerifyFlag
p1180
I0
sVProvince
p1181
V\u8fbd\u5b81
p1182
sVKeyWord
p1183
g48
sVRemarkName
p1184
V\u5f20\u65b0\u6c34
p1185
sVPYInitial
p1186
VBGYGLMW
p1187
sVChatRoomId
p1188
I0
sVIsOwner
p1189
I0
sVHideInputBarFlag
p1190
I0
sVEncryChatRoomId
p1191
g48
sVAttrStatus
p1192
I33665125
sVSnsFlag
p1193
I145
sVMemberCount
p1194
I0
sVOwnerUin
p1195
I0
sVAlias
p1196
g48
sVSignature
p1197
V\u8eab\u5728\u4ed6\u4e61\uff0c\u5fc3\u5728\u8def\u4e0a\u3002\u3002\u3002
p1198
sVContactFlag
p1199
I5
sVNickName
p1200
V\u51b0\u68cd\u4e00\u6839\u4e24\u6bdb\u4e94\u3002
p1201
sVRemarkPYQuanPin
p1202
Vzhangxinshui
p1203
sVHeadImgUrl
p1204
V/cgi-bin/mmwebwx-bin/webwxgeticon?seq=660446033&username=@2a7d9cebce51a0d5003956adf1fd5f3e14d0dbb99f21ea99904b9ef1c23b7653&skey=@crypt_870a16cf_8c26e3b8f2f48a5406ce444d0927cfd8
p1205
sVSex
p1206
I1
sVStarFriend
p1207
I0
sVStatues
p1208
I0
sa(dp1209
VUserName
p1210
V@b22e9c195292ad44334152349feed6968c16355f1a3f776e7771c6f2b7dd5e43
p1211
sVCity
p1212
V\u5927\u8fde
p1213
sVDisplayName
p1214
g48
sVUniFriend
p1215
I0
sVMemberList
p1216
(lp1217
sVPYQuanPin
p1218
Vshangshanreshui
p1219
sVRemarkPYInitial
p1220
VYM
p1221
sVUin
p1222
I0
sVAppAccountFlag
p1223
I0
sVVerifyFlag
p1224
I0
sVProvince
p1225
V\u8fbd\u5b81
p1226
sVKeyWord
p1227
g48
sVRemarkName
p1228
V\u4e8e\u654f
p1229
sVPYInitial
p1230
VSSRS
p1231
sVChatRoomId
p1232
I0
sVIsOwner
p1233
I0
sVHideInputBarFlag
p1234
I0
sVEncryChatRoomId
p1235
g48
sVAttrStatus
p1236
I200957
sVSnsFlag
p1237
I177
sVMemberCount
p1238
I0
sVOwnerUin
p1239
I0
sVAlias
p1240
g48
sVSignature
p1241
V\u6148\u60b2\u559c\u820d
p1242
sVContactFlag
p1243
I1
sVNickName
p1244
V\u4e0a\u5584\u82e5\u6c34
p1245
sVRemarkPYQuanPin
p1246
Vyumin
p1247
sVHeadImgUrl
p1248
V/cgi-bin/mmwebwx-bin/webwxgeticon?seq=660467693&username=@b22e9c195292ad44334152349feed6968c16355f1a3f776e7771c6f2b7dd5e43&skey=@crypt_870a16cf_8c26e3b8f2f48a5406ce444d0927cfd8
p1249
sVSex
p1250
I2
sVStarFriend
p1251
I0
sVStatues
p1252
I0
sa(dp1253
VUserName
p1254
V@1405dd3e506f63efb8c6bf41d394bb624cc290312621bc47a35ccdf6ee97ea31
p1255
sVCity
p1256
g48
sVDisplayName
p1257
g48
sVUniFriend
p1258
I0
sVMemberList
p1259
(lp1260
sVPYQuanPin
p1261
Vwuganshaonv
p1262
sVRemarkPYInitial
p1263
VZMY
p1264
sVUin
p1265
I0
sVAppAccountFlag
p1266
I0
sVVerifyFlag
p1267
I0
sVProvince
p1268
g48
sVKeyWord
p1269
g48
sVRemarkName
p1270
V\u8d75\u7f8e\u5a9b
p1271
sVPYInitial
p1272
VWGSN
p1273
sVChatRoomId
p1274
I0
sVIsOwner
p1275
I0
sVHideInputBarFlag
p1276
I0
sVEncryChatRoomId
p1277
g48
sVAttrStatus
p1278
I102653
sVSnsFlag
p1279
I1
sVMemberCount
p1280
I0
sVOwnerUin
p1281
I0
sVAlias
p1282
g48
sVSignature
p1283
V\u6211\u662f\u4e16\u754c\u7684\u6591\u6593\u4f53/ \u81ea\u5df1\u7684\u6781\u7b80\u4e3b\u4e49/
p1284
sVContactFlag
p1285
I1
sVNickName
p1286
V\u65e0\u611f\u5c11\u5973
p1287
sVRemarkPYQuanPin
p1288
Vzhaomeiyuan
p1289
sVHeadImgUrl
p1290
V/cgi-bin/mmwebwx-bin/webwxgeticon?seq=660471378&username=@1405dd3e506f63efb8c6bf41d394bb624cc290312621bc47a35ccdf6ee97ea31&skey=@crypt_870a16cf_8c26e3b8f2f48a5406ce444d0927cfd8
p1291
sVSex
p1292
I2
sVStarFriend
p1293
I0
sVStatues
p1294
I0
sa(dp1295
VUserName
p1296
V@52478c93a631d82dadf1a316b565fd2dfdd7155ffed9bcc5dc485a21906dc712
p1297
sVCity
p1298
V\u5927\u8fde
p1299
sVDisplayName
p1300
g48
sVUniFriend
p1301
I0
sVMemberList
p1302
(lp1303
sVPYQuanPin
p1304
Vwuxiaogui
p1305
sVRemarkPYInitial
p1306
VWGZ
p1307
sVUin
p1308
I0
sVAppAccountFlag
p1309
I0
sVVerifyFlag
p1310
I0
sVProvince
p1311
V\u8fbd\u5b81
p1312
sVKeyWord
p1313
g48
sVRemarkName
p1314
V\u5434\u56fd\u58ee
p1315
sVPYInitial
p1316
VWXG
p1317
sVChatRoomId
p1318
I0
sVIsOwner
p1319
I0
sVHideInputBarFlag
p1320
I0
sVEncryChatRoomId
p1321
g48
sVAttrStatus
p1322
I16879653
sVSnsFlag
p1323
I17
sVMemberCount
p1324
I0
sVOwnerUin
p1325
I0
sVAlias
p1326
g48
sVSignature
p1327
V\u8d4f\u6d6e\u6c89\u53d8\u5316\uff0c\u89c2\u5c81\u6708\u9759\u597d\u3002
p1328
sVContactFlag
p1329
I1
sVNickName
p1330
V\u4e4c\u5c0f\u9f9f
p1331
sVRemarkPYQuanPin
p1332
Vwuguozhuang
p1333
sVHeadImgUrl
p1334
V/cgi-bin/mmwebwx-bin/webwxgeticon?seq=660471913&username=@52478c93a631d82dadf1a316b565fd2dfdd7155ffed9bcc5dc485a21906dc712&skey=@crypt_870a16cf_8c26e3b8f2f48a5406ce444d0927cfd8
p1335
sVSex
p1336
I1
sVStarFriend
p1337
I0
sVStatues
p1338
I0
sa(dp1339
VUserName
p1340
V@aaec9946a9e0ab511f8f6acdb552a799e0be3545e89280ff8ea79f6f576561ad
p1341
sVCity
p1342
V\u5927\u8fde
p1343
sVDisplayName
p1344
g48
sVUniFriend
p1345
I0
sVMemberList
p1346
(lp1347
sVPYQuanPin
p1348
VJason
p1349
sVRemarkPYInitial
p1350
g48
sVUin
p1351
I0
sVAppAccountFlag
p1352
I0
sVVerifyFlag
p1353
I0
sVProvince
p1354
V\u8fbd\u5b81
p1355
sVKeyWord
p1356
g48
sVRemarkName
p1357
g48
sVPYInitial
p1358
VJASON
p1359
sVChatRoomId
p1360
I0
sVIsOwner
p1361
I0
sVHideInputBarFlag
p1362
I0
sVEncryChatRoomId
p1363
g48
sVAttrStatus
p1364
I4283
sVSnsFlag
p1365
I16
sVMemberCount
p1366
I0
sVOwnerUin
p1367
I0
sVAlias
p1368
g48
sVSignature
p1369
g48
sVContactFlag
p1370
I1
sVNickName
p1371
VJason
p1372
sVRemarkPYQuanPin
p1373
g48
sVHeadImgUrl
p1374
V/cgi-bin/mmwebwx-bin/webwxgeticon?seq=620901478&username=@aaec9946a9e0ab511f8f6acdb552a799e0be3545e89280ff8ea79f6f576561ad&skey=@crypt_870a16cf_8c26e3b8f2f48a5406ce444d0927cfd8
p1375
sVSex
p1376
I1
sVStarFriend
p1377
I0
sVStatues
p1378
I0
sa(dp1379
VUserName
p1380
V@211e75559cf6a8917c22d64a3ea29dfb7ed55e632a9c7d2439595d9639fc865f
p1381
sVCity
p1382
g48
sVDisplayName
p1383
g48
sVUniFriend
p1384
I0
sVMemberList
p1385
(lp1386
sVPYQuanPin
p1387
Vchangxiu
p1388
sVRemarkPYInitial
p1389
VEG
p1390
sVUin
p1391
I0
sVAppAccountFlag
p1392
I0
sVVerifyFlag
p1393
I0
sVProvince
p1394
g48
sVKeyWord
p1395
g48
sVRemarkName
p1396
V\u4e8c\u59d1
p1397
sVPYInitial
p1398
VCX
p1399
sVChatRoomId
p1400
I0
sVIsOwner
p1401
I0
sVHideInputBarFlag
p1402
I0
sVEncryChatRoomId
p1403
g48
sVAttrStatus
p1404
I4133
sVSnsFlag
p1405
I0
sVMemberCount
p1406
I0
sVOwnerUin
p1407
I0
sVAlias
p1408
g48
sVSignature
p1409
g48
sVContactFlag
p1410
I1
sVNickName
p1411
V\u957f\u79c0
p1412
sVRemarkPYQuanPin
p1413
Vergu
p1414
sVHeadImgUrl
p1415
V/cgi-bin/mmwebwx-bin/webwxgeticon?seq=648834811&username=@211e75559cf6a8917c22d64a3ea29dfb7ed55e632a9c7d2439595d9639fc865f&skey=@crypt_870a16cf_8c26e3b8f2f48a5406ce444d0927cfd8
p1416
sVSex
p1417
I1
sVStarFriend
p1418
I0
sVStatues
p1419
I0
sa(dp1420
VUserName
p1421
V@3a1f8cdef2ad831f126cad15c5612d08ea6973a8a9dfb781209a9a3029336b19
p1422
sVCity
p1423
V\u671d\u9633
p1424
sVDisplayName
p1425
g48
sVUniFriend
p1426
I0
sVMemberList
p1427
(lp1428
sVPYQuanPin
p1429
V?dandanspanclassemojiemoji1f4a4span
p1430
sVRemarkPYInitial
p1431
VDD
p1432
sVUin
p1433
I0
sVAppAccountFlag
p1434
I0
sVVerifyFlag
p1435
I0
sVProvince
p1436
V\u5317\u4eac
p1437
sVKeyWord
p1438
g48
sVRemarkName
p1439
V\u4e39\u4e39
p1440
sVPYInitial
p1441
V?DDSPANCLASSEMOJIEMOJI1F4A4SPAN
p1442
sVChatRoomId
p1443
I0
sVIsOwner
p1444
I0
sVHideInputBarFlag
p1445
I0
sVEncryChatRoomId
p1446
g48
sVAttrStatus
p1447
I102437
sVSnsFlag
p1448
I1
sVMemberCount
p1449
I0
sVOwnerUin
p1450
I0
sVAlias
p1451
g48
sVSignature
p1452
V\u63a7\u5236\u60c5\u7eea\uff0c\u522b\u6d6a\u8d39\u4e86\u3002
p1453
sVContactFlag
p1454
I1
sVNickName
p1455
V\U0001f608\u4e39\u4e39\U0001f4a4
p1456
sVRemarkPYQuanPin
p1457
Vdandan
p1458
sVHeadImgUrl
p1459
V/cgi-bin/mmwebwx-bin/webwxgeticon?seq=660476661&username=@3a1f8cdef2ad831f126cad15c5612d08ea6973a8a9dfb781209a9a3029336b19&skey=@crypt_870a16cf_8c26e3b8f2f48a5406ce444d0927cfd8
p1460
sVSex
p1461
I2
sVStarFriend
p1462
I0
sVStatues
p1463
I0
sa(dp1464
VUserName
p1465
V@81563b51b62092ed3fcc241e6cd525088933dbd01629f6c09e54dc9e51c746e7
p1466
sVCity
p1467
V\u79e6\u7687\u5c9b
p1468
sVDisplayName
p1469
g48
sVUniFriend
p1470
I0
sVMemberList
p1471
(lp1472
sVPYQuanPin
p1473
Vwangxiaoyu
p1474
sVRemarkPYInitial
p1475
VWXY
p1476
sVUin
p1477
I0
sVAppAccountFlag
p1478
I0
sVVerifyFlag
p1479
I0
sVProvince
p1480
V\u6cb3\u5317
p1481
sVKeyWord
p1482
g48
sVRemarkName
p1483
V\u738b\u6653\u96e8
p1484
sVPYInitial
p1485
VWXY
p1486
sVChatRoomId
p1487
I0
sVIsOwner
p1488
I0
sVHideInputBarFlag
p1489
I0
sVEncryChatRoomId
p1490
g48
sVAttrStatus
p1491
I135653
sVSnsFlag
p1492
I1
sVMemberCount
p1493
I0
sVOwnerUin
p1494
I0
sVAlias
p1495
g48
sVSignature
p1496
V\u54c7\u5440\u5440\u5440\u2026\u2026
p1497
sVContactFlag
p1498
I1
sVNickName
p1499
V\u738b\u6653\u96e8
p1500
sVRemarkPYQuanPin
p1501
Vwangxiaoyu
p1502
sVHeadImgUrl
p1503
V/cgi-bin/mmwebwx-bin/webwxgeticon?seq=660443249&username=@81563b51b62092ed3fcc241e6cd525088933dbd01629f6c09e54dc9e51c746e7&skey=@crypt_870a16cf_8c26e3b8f2f48a5406ce444d0927cfd8
p1504
sVSex
p1505
I1
sVStarFriend
p1506
I0
sVStatues
p1507
I0
sa(dp1508
VUserName
p1509
V@7312e6eb33a88afb90b413748b22b408b71cebf39becd50c5e1d81d4358a2621
p1510
sVCity
p1511
V\u5927\u8fde
p1512
sVDisplayName
p1513
g48
sVUniFriend
p1514
I0
sVMemberList
p1515
(lp1516
sVPYQuanPin
p1517
Vyouzihenyouren
p1518
sVRemarkPYInitial
p1519
VXX
p1520
sVUin
p1521
I0
sVAppAccountFlag
p1522
I0
sVVerifyFlag
p1523
I0
sVProvince
p1524
V\u8fbd\u5b81
p1525
sVKeyWord
p1526
g48
sVRemarkName
p1527
V\u946b\u946b
p1528
sVPYInitial
p1529
VYZHYR
p1530
sVChatRoomId
p1531
I0
sVIsOwner
p1532
I0
sVHideInputBarFlag
p1533
I0
sVEncryChatRoomId
p1534
g48
sVAttrStatus
p1535
I4197
sVSnsFlag
p1536
I0
sVMemberCount
p1537
I0
sVOwnerUin
p1538
I0
sVAlias
p1539
g48
sVSignature
p1540
V\u6d6e\u751f\u957f\u6068\u6b22\u5a31\u5c11\uff0c\u80af\u7231\u5343\u91d1\u8f7b\u4e00\u7b11.
p1541
sVContactFlag
p1542
I1
sVNickName
p1543
V\u67da\u5b50\u5f88\u8bf1\u4eba.
p1544
sVRemarkPYQuanPin
p1545
Vxinxin
p1546
sVHeadImgUrl
p1547
V/cgi-bin/mmwebwx-bin/webwxgeticon?seq=660443551&username=@7312e6eb33a88afb90b413748b22b408b71cebf39becd50c5e1d81d4358a2621&skey=@crypt_870a16cf_8c26e3b8f2f48a5406ce444d0927cfd8
p1548
sVSex
p1549
I1
sVStarFriend
p1550
I0
sVStatues
p1551
I0
sa(dp1552
VUserName
p1553
V@649ba4162d38cd85b68b57064ed88785
p1554
sVCity
p1555
V\u660c\u5e73
p1556
sVDisplayName
p1557
g48
sVUniFriend
p1558
I0
sVMemberList
p1559
(lp1560
sVPYQuanPin
p1561
Vhanzhexin
p1562
sVRemarkPYInitial
p1563
VHRX
p1564
sVUin
p1565
I0
sVAppAccountFlag
p1566
I0
sVVerifyFlag
p1567
I0
sVProvince
p1568
V\u5317\u4eac
p1569
sVKeyWord
p1570
Vxia
p1571
sVRemarkName
p1572
V\u97e9\u65e5\u946b
p1573
sVPYInitial
p1574
VHZX
p1575
sVChatRoomId
p1576
I0
sVIsOwner
p1577
I0
sVHideInputBarFlag
p1578
I0
sVEncryChatRoomId
p1579
g48
sVAttrStatus
p1580
I104487
sVSnsFlag
p1581
I177
sVMemberCount
p1582
I0
sVOwnerUin
p1583
I0
sVAlias
p1584
g48
sVSignature
p1585
V\u6daf
p1586
sVContactFlag
p1587
I1
sVNickName
p1588
V\u97e9\u54f2\u4fe1
p1589
sVRemarkPYQuanPin
p1590
Vhanrixin
p1591
sVHeadImgUrl
p1592
V/cgi-bin/mmwebwx-bin/webwxgeticon?seq=660461943&username=@649ba4162d38cd85b68b57064ed88785&skey=@crypt_870a16cf_8c26e3b8f2f48a5406ce444d0927cfd8
p1593
sVSex
p1594
I1
sVStarFriend
p1595
I0
sVStatues
p1596
I0
sa(dp1597
VUserName
p1598
V@fc15cfad6843772b90293a018b7d78abb318ba08ee52880664ba66e8ee3a9940
p1599
sVCity
p1600
V\u671d\u9633
p1601
sVDisplayName
p1602
g48
sVUniFriend
p1603
I0
sVMemberList
p1604
(lp1605
sVPYQuanPin
p1606
VANDY
p1607
sVRemarkPYInitial
p1608
VCM
p1609
sVUin
p1610
I0
sVAppAccountFlag
p1611
I0
sVVerifyFlag
p1612
I0
sVProvince
p1613
V\u5317\u4eac
p1614
sVKeyWord
p1615
g48
sVRemarkName
p1616
V\u5d14\u660e
p1617
sVPYInitial
p1618
VANDY
p1619
sVChatRoomId
p1620
I0
sVIsOwner
p1621
I0
sVHideInputBarFlag
p1622
I0
sVEncryChatRoomId
p1623
g48
sVAttrStatus
p1624
I104549
sVSnsFlag
p1625
I17
sVMemberCount
p1626
I0
sVOwnerUin
p1627
I0
sVAlias
p1628
g48
sVSignature
p1629
VIf it feel easy. Don't do it. Don't let the world spoil you.
p1630
sVContactFlag
p1631
I1
sVNickName
p1632
VANDY
p1633
sVRemarkPYQuanPin
p1634
Vcuiming
p1635
sVHeadImgUrl
p1636
V/cgi-bin/mmwebwx-bin/webwxgeticon?seq=648836924&username=@fc15cfad6843772b90293a018b7d78abb318ba08ee52880664ba66e8ee3a9940&skey=@crypt_870a16cf_8c26e3b8f2f48a5406ce444d0927cfd8
p1637
sVSex
p1638
I1
sVStarFriend
p1639
I0
sVStatues
p1640
I0
sa(dp1641
VUserName
p1642
V@0087f6d3056f75b60b5e74d03505c563
p1643
sVCity
p1644
V\u5927\u8fde
p1645
sVDisplayName
p1646
g48
sVUniFriend
p1647
I0
sVMemberList
p1648
(lp1649
sVPYQuanPin
p1650
Vbenben
p1651
sVRemarkPYInitial
p1652
VKJ
p1653
sVUin
p1654
I0
sVAppAccountFlag
p1655
I0
sVVerifyFlag
p1656
I0
sVProvince
p1657
V\u8fbd\u5b81
p1658
sVKeyWord
p1659
Vben
p1660
sVRemarkName
p1661
V\u5764\u59d0
p1662
sVPYInitial
p1663
VBB
p1664
sVChatRoomId
p1665
I0
sVIsOwner
p1666
I0
sVHideInputBarFlag
p1667
I0
sVEncryChatRoomId
p1668
g48
sVAttrStatus
p1669
I233575
sVSnsFlag
p1670
I17
sVMemberCount
p1671
I0
sVOwnerUin
p1672
I0
sVAlias
p1673
g48
sVSignature
p1674
g48
sVContactFlag
p1675
I1
sVNickName
p1676
V\u7b28\u7b28
p1677
sVRemarkPYQuanPin
p1678
Vkunjie
p1679
sVHeadImgUrl
p1680
V/cgi-bin/mmwebwx-bin/webwxgeticon?seq=648781266&username=@0087f6d3056f75b60b5e74d03505c563&skey=@crypt_870a16cf_8c26e3b8f2f48a5406ce444d0927cfd8
p1681
sVSex
p1682
I2
sVStarFriend
p1683
I0
sVStatues
p1684
I0
sa(dp1685
VUserName
p1686
V@74f70dfc271e531ec2c577fb5628b036c7f9b126bb9476b5e90d4bff3de58ab5
p1687
sVCity
p1688
g48
sVDisplayName
p1689
g48
sVUniFriend
p1690
I0
sVMemberList
p1691
(lp1692
sVPYQuanPin
p1693
Vspanclassemojiemoji1f31fspan
p1694
sVRemarkPYInitial
p1695
VZZ
p1696
sVUin
p1697
I0
sVAppAccountFlag
p1698
I0
sVVerifyFlag
p1699
I0
sVProvince
p1700
g48
sVKeyWord
p1701
g48
sVRemarkName
p1702
V\u5f20\u9707
p1703
sVPYInitial
p1704
VSPANCLASSEMOJIEMOJI1F31FSPAN
p1705
sVChatRoomId
p1706
I0
sVIsOwner
p1707
I0
sVHideInputBarFlag
p1708
I0
sVEncryChatRoomId
p1709
g48
sVAttrStatus
p1710
I136123
sVSnsFlag
p1711
I1
sVMemberCount
p1712
I0
sVOwnerUin
p1713
I0
sVAlias
p1714
g48
sVSignature
p1715
g48
sVContactFlag
p1716
I1
sVNickName
p1717
V\U0001f31f
p1718
sVRemarkPYQuanPin
p1719
Vzhangzhen
p1720
sVHeadImgUrl
p1721
V/cgi-bin/mmwebwx-bin/webwxgeticon?seq=660480251&username=@74f70dfc271e531ec2c577fb5628b036c7f9b126bb9476b5e90d4bff3de58ab5&skey=@crypt_870a16cf_8c26e3b8f2f48a5406ce444d0927cfd8
p1722
sVSex
p1723
I1
sVStarFriend
p1724
I0
sVStatues
p1725
I0
sa(dp1726
VUserName
p1727
V@3f47c21886df0cd1bcc1cecbc5a9cca26b7d329aca539472a7d89498cfb828bd
p1728
sVCity
p1729
V\u6c88\u9633
p1730
sVDisplayName
p1731
g48
sVUniFriend
p1732
I0
sVMemberList
p1733
(lp1734
sVPYQuanPin
p1735
Vbakexiaolizi
p1736
sVRemarkPYInitial
p1737
VWHN
p1738
sVUin
p1739
I0
sVAppAccountFlag
p1740
I0
sVVerifyFlag
p1741
I0
sVProvince
p1742
V\u8fbd\u5b81
p1743
sVKeyWord
p1744
g48
sVRemarkName
p1745
V\u738b\u660a\u6960
p1746
sVPYInitial
p1747
VBKXLZ
p1748
sVChatRoomId
p1749
I0
sVIsOwner
p1750
I0
sVHideInputBarFlag
p1751
I0
sVEncryChatRoomId
p1752
g48
sVAttrStatus
p1753
I233575
sVSnsFlag
p1754
I17
sVMemberCount
p1755
I0
sVOwnerUin
p1756
I0
sVAlias
p1757
g48
sVSignature
p1758
V\u6700\u6015\u4f60\u4ec0\u4e48\u90fd\u4e0d\u505a\uff0c\u8fd8\u9a97\u81ea\u5df1\u4e0d\u60f3\u8981.........
p1759
sVContactFlag
p1760
I1
sVNickName
p1761
V\u516b\u9897\u5c0f\u6817\u5b50
p1762
sVRemarkPYQuanPin
p1763
Vwanghaonan
p1764
sVHeadImgUrl
p1765
V/cgi-bin/mmwebwx-bin/webwxgeticon?seq=660451251&username=@3f47c21886df0cd1bcc1cecbc5a9cca26b7d329aca539472a7d89498cfb828bd&skey=@crypt_870a16cf_8c26e3b8f2f48a5406ce444d0927cfd8
p1766
sVSex
p1767
I2
sVStarFriend
p1768
I0
sVStatues
p1769
I0
sa(dp1770
VUserName
p1771
V@5ee199edcdd628d45c81aabf33e15995
p1772
sVCity
p1773
V\u5927\u8fde
p1774
sVDisplayName
p1775
g48
sVUniFriend
p1776
I0
sVMemberList
p1777
(lp1778
sVPYQuanPin
p1779
Vduxing
p1780
sVRemarkPYInitial
p1781
VLFZ
p1782
sVUin
p1783
I0
sVAppAccountFlag
p1784
I0
sVVerifyFlag
p1785
I0
sVProvince
p1786
V\u8fbd\u5b81
p1787
sVKeyWord
p1788
VWOn
p1789
sVRemarkName
p1790
V\u5218\u5bcc\u58ee
p1791
sVPYInitial
p1792
VDX
p1793
sVChatRoomId
p1794
I0
sVIsOwner
p1795
I0
sVHideInputBarFlag
p1796
I0
sVEncryChatRoomId
p1797
g48
sVAttrStatus
p1798
I110695
sVSnsFlag
p1799
I17
sVMemberCount
p1800
I0
sVOwnerUin
p1801
I0
sVAlias
p1802
g48
sVSignature
p1803
V\u7532\u4e4b\u718a\u638c\uff0c\u4e59\u4e4b\u7812\u971c
p1804
sVContactFlag
p1805
I1
sVNickName
p1806
V\u72ec\u9192.
p1807
sVRemarkPYQuanPin
p1808
Vliufuzhuang
p1809
sVHeadImgUrl
p1810
V/cgi-bin/mmwebwx-bin/webwxgeticon?seq=660484377&username=@5ee199edcdd628d45c81aabf33e15995&skey=@crypt_870a16cf_8c26e3b8f2f48a5406ce444d0927cfd8
p1811
sVSex
p1812
I1
sVStarFriend
p1813
I0
sVStatues
p1814
I0
sa(dp1815
VUserName
p1816
V@6cbb02b2f575c62cddc542420af66fab24678aa5561fa7da341aaa8f625b5c2b
p1817
sVCity
p1818
V\u978d\u5c71
p1819
sVDisplayName
p1820
g48
sVUniFriend
p1821
I0
sVMemberList
p1822
(lp1823
sVPYQuanPin
p1824
Vyexuhuigenghao
p1825
sVRemarkPYInitial
p1826
VXH
p1827
sVUin
p1828
I0
sVAppAccountFlag
p1829
I0
sVVerifyFlag
p1830
I0
sVProvince
p1831
V\u8fbd\u5b81
p1832
sVKeyWord
p1833
g48
sVRemarkName
p1834
V\u5f90\u6167
p1835
sVPYInitial
p1836
VYXHGH
p1837
sVChatRoomId
p1838
I0
sVIsOwner
p1839
I0
sVHideInputBarFlag
p1840
I0
sVEncryChatRoomId
p1841
g48
sVAttrStatus
p1842
I235709
sVSnsFlag
p1843
I17
sVMemberCount
p1844
I0
sVOwnerUin
p1845
I0
sVAlias
p1846
g48
sVSignature
p1847
V\u739b\u838e\u59ae\u5a1c\u9762\u819c\u4ee3\u7406\uff0c\u6709\u9700\u8981\u7528\u9762\u819c\u7684\u53ef\u4ee5\u2795\u6211
p1848
sVContactFlag
p1849
I1
sVNickName
p1850
V\u4e5f\u5f90\u3001\u6167\u66f4\u597d
p1851
sVRemarkPYQuanPin
p1852
Vxuhui
p1853
sVHeadImgUrl
p1854
V/cgi-bin/mmwebwx-bin/webwxgeticon?seq=660446602&username=@6cbb02b2f575c62cddc542420af66fab24678aa5561fa7da341aaa8f625b5c2b&skey=@crypt_870a16cf_8c26e3b8f2f48a5406ce444d0927cfd8
p1855
sVSex
p1856
I2
sVStarFriend
p1857
I0
sVStatues
p1858
I0
sa(dp1859
VUserName
p1860
V@5545bf1e262dddfb9667773848d5e41e
p1861
sVCity
p1862
V\u5927\u8fde
p1863
sVDisplayName
p1864
g48
sVUniFriend
p1865
I0
sVMemberList
p1866
(lp1867
sVPYQuanPin
p1868
Vdong
p1869
sVRemarkPYInitial
p1870
VXXD
p1871
sVUin
p1872
I0
sVAppAccountFlag
p1873
I0
sVVerifyFlag
p1874
I0
sVProvince
p1875
V\u8fbd\u5b81
p1876
sVKeyWord
p1877
Vdal
p1878
sVRemarkName
p1879
V\u5f90\u559c\u4e1c
p1880
sVPYInitial
p1881
VD
p1882
sVChatRoomId
p1883
I0
sVIsOwner
p1884
I0
sVHideInputBarFlag
p1885
I0
sVEncryChatRoomId
p1886
g48
sVAttrStatus
p1887
I33656935
sVSnsFlag
p1888
I177
sVMemberCount
p1889
I0
sVOwnerUin
p1890
I0
sVAlias
p1891
g48
sVSignature
p1892
V\u6709\u65f6\uff0c\u53bb\u6cbb\u6108\uff1b\u5e38\u5e38\uff0c\u53bb\u5e2e\u52a9\uff1b\u603b\u662f\uff0c\u53bb\u5b89\u6170
p1893
sVContactFlag
p1894
I5
sVNickName
p1895
V\u6771
p1896
sVRemarkPYQuanPin
p1897
Vxuxidong
p1898
sVHeadImgUrl
p1899
V/cgi-bin/mmwebwx-bin/webwxgeticon?seq=660464958&username=@5545bf1e262dddfb9667773848d5e41e&skey=@crypt_870a16cf_8c26e3b8f2f48a5406ce444d0927cfd8
p1900
sVSex
p1901
I1
sVStarFriend
p1902
I0
sVStatues
p1903
I0
sa(dp1904
VUserName
p1905
V@d478feb9f3b3ba1706bca6b49f25ee3ada8a574f9590552121e36e47ed909520
p1906
sVCity
p1907
V\u5546\u6d1b
p1908
sVDisplayName
p1909
g48
sVUniFriend
p1910
I0
sVMemberList
p1911
(lp1912
sVPYQuanPin
p1913
Vzhangjian
p1914
sVRemarkPYInitial
p1915
VZJ
p1916
sVUin
p1917
I0
sVAppAccountFlag
p1918
I0
sVVerifyFlag
p1919
I0
sVProvince
p1920
V\u9655\u897f
p1921
sVKeyWord
p1922
g48
sVRemarkName
p1923
V\u5f20\u5065
p1924
sVPYInitial
p1925
VZJ
p1926
sVChatRoomId
p1927
I0
sVIsOwner
p1928
I0
sVHideInputBarFlag
p1929
I0
sVEncryChatRoomId
p1930
g48
sVAttrStatus
p1931
I30311
sVSnsFlag
p1932
I145
sVMemberCount
p1933
I0
sVOwnerUin
p1934
I0
sVAlias
p1935
g48
sVSignature
p1936
V\u98ce\u96e8\u517c\u7a0b\uff0c\u4f55\u60e7\u8def\u8fdc\uff01
p1937
sVContactFlag
p1938
I1
sVNickName
p1939
V\u5f20\u5065
p1940
sVRemarkPYQuanPin
p1941
Vzhangjian
p1942
sVHeadImgUrl
p1943
V/cgi-bin/mmwebwx-bin/webwxgeticon?seq=660409928&username=@d478feb9f3b3ba1706bca6b49f25ee3ada8a574f9590552121e36e47ed909520&skey=@crypt_870a16cf_8c26e3b8f2f48a5406ce444d0927cfd8
p1944
sVSex
p1945
I1
sVStarFriend
p1946
I0
sVStatues
p1947
I0
sa(dp1948
VUserName
p1949
V@8e047b1f7946f7033bf73d1c0e599e3fe0ceca887c11a5befe570ca7b07d0486
p1950
sVCity
p1951
V\u5927\u8fde
p1952
sVDisplayName
p1953
g48
sVUniFriend
p1954
I0
sVMemberList
p1955
(lp1956
sVPYQuanPin
p1957
Vyantofengjing
p1958
sVRemarkPYInitial
p1959
VAY
p1960
sVUin
p1961
I0
sVAppAccountFlag
p1962
I0
sVVerifyFlag
p1963
I0
sVProvince
p1964
V\u8fbd\u5b81
p1965
sVKeyWord
p1966
g48
sVRemarkName
p1967
V\u827e\u598d
p1968
sVPYInitial
p1969
VYTOFJ
p1970
sVChatRoomId
p1971
I0
sVIsOwner
p1972
I0
sVHideInputBarFlag
p1973
I0
sVEncryChatRoomId
p1974
g48
sVAttrStatus
p1975
I111077
sVSnsFlag
p1976
I17
sVMemberCount
p1977
I0
sVOwnerUin
p1978
I0
sVAlias
p1979
g48
sVSignature
p1980
V\u559c\u60a6\u51fa\u4e8e\u5de7\u5408\uff0c\u773c\u6cea\u4f55\u5fc5\u56fa\u6267
p1981
sVContactFlag
p1982
I1
sVNickName
p1983
V\u598d to \u98ce\u666f
p1984
sVRemarkPYQuanPin
p1985
Vaiyan
p1986
sVHeadImgUrl
p1987
V/cgi-bin/mmwebwx-bin/webwxgeticon?seq=660475445&username=@8e047b1f7946f7033bf73d1c0e599e3fe0ceca887c11a5befe570ca7b07d0486&skey=@crypt_870a16cf_8c26e3b8f2f48a5406ce444d0927cfd8
p1988
sVSex
p1989
I2
sVStarFriend
p1990
I0
sVStatues
p1991
I0
sa(dp1992
VUserName
p1993
V@52a6feaf6e0dbfb9321380f4e71b501b
p1994
sVCity
p1995
V\u73e0\u6d77
p1996
sVDisplayName
p1997
g48
sVUniFriend
p1998
I0
sVMemberList
p1999
(lp2000
sVPYQuanPin
p2001
Vjuanzilanwenfushi
p2002
sVRemarkPYInitial
p2003
VLXJ
p2004
sVUin
p2005
I0
sVAppAccountFlag
p2006
I0
sVVerifyFlag
p2007
I0
sVProvince
p2008
V\u5e7f\u4e1c
p2009
sVKeyWord
p2010
Vjua
p2011
sVRemarkName
p2012
V\u5218\u6653\u5a1f
p2013
sVPYInitial
p2014
VJZLWFS
p2015
sVChatRoomId
p2016
I0
sVIsOwner
p2017
I0
sVHideInputBarFlag
p2018
I0
sVEncryChatRoomId
p2019
g48
sVAttrStatus
p2020
I12391
sVSnsFlag
p2021
I17
sVMemberCount
p2022
I0
sVOwnerUin
p2023
I0
sVAlias
p2024
g48
sVSignature
p2025
V\u5ba0\u8fb1\u4e0d\u60ca\uff0c\u53bb\u7559\u65e0\u610f
p2026
sVContactFlag
p2027
I1
sVNickName
p2028
V\u5a1f\u5b50\u5170\u7eb9\u670d\u9970
p2029
sVRemarkPYQuanPin
p2030
Vliuxiaojuan
p2031
sVHeadImgUrl
p2032
V/cgi-bin/mmwebwx-bin/webwxgeticon?seq=660476553&username=@52a6feaf6e0dbfb9321380f4e71b501b&skey=@crypt_870a16cf_8c26e3b8f2f48a5406ce444d0927cfd8
p2033
sVSex
p2034
I1
sVStarFriend
p2035
I0
sVStatues
p2036
I0
sa(dp2037
VUserName
p2038
V@4d7f2cdf715a4d09f238ba3ed1f1808f42a8c5e1786c7c5208a18ea5fc29d332
p2039
sVCity
p2040
V\u5b81\u6ce2
p2041
sVDisplayName
p2042
g48
sVUniFriend
p2043
I0
sVMemberList
p2044
(lp2045
sVPYQuanPin
p2046
Vwuyou
p2047
sVRemarkPYInitial
p2048
VWY
p2049
sVUin
p2050
I0
sVAppAccountFlag
p2051
I0
sVVerifyFlag
p2052
I0
sVProvince
p2053
V\u6d59\u6c5f
p2054
sVKeyWord
p2055
g48
sVRemarkName
p2056
V\u5434\u4f18
p2057
sVPYInitial
p2058
VWY
p2059
sVChatRoomId
p2060
I0
sVIsOwner
p2061
I0
sVHideInputBarFlag
p2062
I0
sVEncryChatRoomId
p2063
g48
sVAttrStatus
p2064
I104805
sVSnsFlag
p2065
I17
sVMemberCount
p2066
I0
sVOwnerUin
p2067
I0
sVAlias
p2068
g48
sVSignature
p2069
V\u6211\u81ea\u77e5\u6211\u6240\u62e5\u6709\u90fd\u662f\u4fa5\u5e78\uff0c\u5931\u53bb\u7684\u90fd\u662f\u4eba\u751f
p2070
sVContactFlag
p2071
I5
sVNickName
p2072
V\u65e0\u5fe7
p2073
sVRemarkPYQuanPin
p2074
Vwuyou
p2075
sVHeadImgUrl
p2076
V/cgi-bin/mmwebwx-bin/webwxgeticon?seq=660491985&username=@4d7f2cdf715a4d09f238ba3ed1f1808f42a8c5e1786c7c5208a18ea5fc29d332&skey=@crypt_870a16cf_8c26e3b8f2f48a5406ce444d0927cfd8
p2077
sVSex
p2078
I1
sVStarFriend
p2079
I0
sVStatues
p2080
I0
sa(dp2081
VUserName
p2082
V@1cee8f0933a4098821318706db4e6c3b8757ddff4fa7c6867b634f9e49b1c12f
p2083
sVCity
p2084
VEdinburgh
p2085
sVDisplayName
p2086
g48
sVUniFriend
p2087
I0
sVMemberList
p2088
(lp2089
sVPYQuanPin
p2090
Vwumaer
p2091
sVRemarkPYInitial
p2092
VLGL
p2093
sVUin
p2094
I0
sVAppAccountFlag
p2095
I0
sVVerifyFlag
p2096
I0
sVProvince
p2097
VScotland
p2098
sVKeyWord
p2099
g48
sVRemarkName
p2100
V\u5218\u8d35\u6765
p2101
sVPYInitial
p2102
VWME
p2103
sVChatRoomId
p2104
I0
sVIsOwner
p2105
I0
sVHideInputBarFlag
p2106
I0
sVEncryChatRoomId
p2107
g48
sVAttrStatus
p2108
I16799741
sVSnsFlag
p2109
I17
sVMemberCount
p2110
I0
sVOwnerUin
p2111
I0
sVAlias
p2112
g48
sVSignature
p2113
V\u57cb\u9aa8\u5c82\u987b\u6851\u6893\u5730\uff0c\u4eba\u751f\u4f55\u5904\u4e0d\u9752\u5c71\u3002
p2114
sVContactFlag
p2115
I1
sVNickName
p2116
V\u4e94\u9ebb\u513f
p2117
sVRemarkPYQuanPin
p2118
Vliuguilai
p2119
sVHeadImgUrl
p2120
V/cgi-bin/mmwebwx-bin/webwxgeticon?seq=660493070&username=@1cee8f0933a4098821318706db4e6c3b8757ddff4fa7c6867b634f9e49b1c12f&skey=@crypt_870a16cf_8c26e3b8f2f48a5406ce444d0927cfd8
p2121
sVSex
p2122
I1
sVStarFriend
p2123
I0
sVStatues
p2124
I0
sa(dp2125
VUserName
p2126
V@b0c969203d5b20215c2b692c8574e9faee53742d12ff4760c75e06a26dad88d0
p2127
sVCity
p2128
V\u671d\u9633
p2129
sVDisplayName
p2130
g48
sVUniFriend
p2131
I0
sVMemberList
p2132
(lp2133
sVPYQuanPin
p2134
Vwoaiwojiapengguang13051593538
p2135
sVRemarkPYInitial
p2136
VWAWJPG13051593538
p2137
sVUin
p2138
I0
sVAppAccountFlag
p2139
I0
sVVerifyFlag
p2140
I0
sVProvince
p2141
V\u5317\u4eac
p2142
sVKeyWord
p2143
g48
sVRemarkName
p2144
V\u6211\u7231\u6211\u5bb6\u5f6d\u5e7f13051593538
p2145
sVPYInitial
p2146
VWAWJPG13051593538
p2147
sVChatRoomId
p2148
I0
sVIsOwner
p2149
I0
sVHideInputBarFlag
p2150
I0
sVEncryChatRoomId
p2151
g48
sVAttrStatus
p2152
I102437
sVSnsFlag
p2153
I17
sVMemberCount
p2154
I0
sVOwnerUin
p2155
I0
sVAlias
p2156
g48
sVSignature
p2157
V\u7231\u7b11\u7684\u4eba\u8fd0\u6c14\u4e0d\u4f1a\u592a\u5dee
p2158
sVContactFlag
p2159
I3
sVNickName
p2160
V\u6211\u7231\u6211\u5bb6\u5f6d\u5e7f13051593538
p2161
sVRemarkPYQuanPin
p2162
Vwoaiwojiapengguang13051593538
p2163
sVHeadImgUrl
p2164
V/cgi-bin/mmwebwx-bin/webwxgeticon?seq=660491842&username=@b0c969203d5b20215c2b692c8574e9faee53742d12ff4760c75e06a26dad88d0&skey=@crypt_870a16cf_8c26e3b8f2f48a5406ce444d0927cfd8
p2165
sVSex
p2166
I1
sVStarFriend
p2167
I0
sVStatues
p2168
I0
sa(dp2169
VUserName
p2170
V@38f98776c6c4ce05596086996ba4dc3b172de21ab698e725d81cd2539d27bc17
p2171
sVCity
p2172
V\u5927\u8fde
p2173
sVDisplayName
p2174
g48
sVUniFriend
p2175
I0
sVMemberList
p2176
(lp2177
sVPYQuanPin
p2178
Vchengcheng
p2179
sVRemarkPYInitial
p2180
VSCC
p2181
sVUin
p2182
I0
sVAppAccountFlag
p2183
I0
sVVerifyFlag
p2184
I0
sVProvince
p2185
V\u8fbd\u5b81
p2186
sVKeyWord
p2187
Vson
p2188
sVRemarkName
p2189
V\u5b8b\u7a0b\u7a0b
p2190
sVPYInitial
p2191
VCC
p2192
sVChatRoomId
p2193
I0
sVIsOwner
p2194
I0
sVHideInputBarFlag
p2195
I0
sVEncryChatRoomId
p2196
g48
sVAttrStatus
p2197
I98751
sVSnsFlag
p2198
I17
sVMemberCount
p2199
I0
sVOwnerUin
p2200
I0
sVAlias
p2201
g48
sVSignature
p2202
g48
sVContactFlag
p2203
I1
sVNickName
p2204
V\u7a0b\u7a0b
p2205
sVRemarkPYQuanPin
p2206
Vsongchengcheng
p2207
sVHeadImgUrl
p2208
V/cgi-bin/mmwebwx-bin/webwxgeticon?seq=660466155&username=@38f98776c6c4ce05596086996ba4dc3b172de21ab698e725d81cd2539d27bc17&skey=@crypt_870a16cf_8c26e3b8f2f48a5406ce444d0927cfd8
p2209
sVSex
p2210
I2
sVStarFriend
p2211
I0
sVStatues
p2212
I0
sa(dp2213
VUserName
p2214
V@99149e2ff8bcfbf27571e84bec79d6de
p2215
sVCity
p2216
V\u54c8\u5c14\u6ee8
p2217
sVDisplayName
p2218
g48
sVUniFriend
p2219
I0
sVMemberList
p2220
(lp2221
sVPYQuanPin
p2222
Vjinjidebamu
p2223
sVRemarkPYInitial
p2224
VFTL
p2225
sVUin
p2226
I0
sVAppAccountFlag
p2227
I0
sVVerifyFlag
p2228
I0
sVProvince
p2229
V\u9ed1\u9f99\u6c5f
p2230
sVKeyWord
p2231
VWol
p2232
sVRemarkName
p2233
V\u8303\u94c1\u6797
p2234
sVPYInitial
p2235
VJJDBM
p2236
sVChatRoomId
p2237
I0
sVIsOwner
p2238
I0
sVHideInputBarFlag
p2239
I0
sVEncryChatRoomId
p2240
g48
sVAttrStatus
p2241
I33654887
sVSnsFlag
p2242
I145
sVMemberCount
p2243
I0
sVOwnerUin
p2244
I0
sVAlias
p2245
g48
sVSignature
p2246
V\u8c01\u4f1a\u73cd\u60dc\u6211\u7684\u611f\u60c5
p2247
sVContactFlag
p2248
I1
sVNickName
p2249
V\u8fdb\u51fb\u7684\u516b\u6728
p2250
sVRemarkPYQuanPin
p2251
Vfantielin
p2252
sVHeadImgUrl
p2253
V/cgi-bin/mmwebwx-bin/webwxgeticon?seq=660491783&username=@99149e2ff8bcfbf27571e84bec79d6de&skey=@crypt_870a16cf_8c26e3b8f2f48a5406ce444d0927cfd8
p2254
sVSex
p2255
I1
sVStarFriend
p2256
I0
sVStatues
p2257
I0
sa(dp2258
VUserName
p2259
V@093b92787f5b179da4a8d3984aeef245
p2260
sVCity
p2261
V\u6000\u67d4
p2262
sVDisplayName
p2263
g48
sVUniFriend
p2264
I0
sVMemberList
p2265
(lp2266
sVPYQuanPin
p2267
Vlaizai
p2268
sVRemarkPYInitial
p2269
VWL
p2270
sVUin
p2271
I0
sVAppAccountFlag
p2272
I0
sVVerifyFlag
p2273
I0
sVProvince
p2274
V\u5317\u4eac
p2275
sVKeyWord
p2276
Vwl4
p2277
sVRemarkName
p2278
V\u9b4f\u6765
p2279
sVPYInitial
p2280
VLZ
p2281
sVChatRoomId
p2282
I0
sVIsOwner
p2283
I0
sVHideInputBarFlag
p2284
I0
sVEncryChatRoomId
p2285
g48
sVAttrStatus
p2286
I98407
sVSnsFlag
p2287
I49
sVMemberCount
p2288
I0
sVOwnerUin
p2289
I0
sVAlias
p2290
g48
sVSignature
p2291
V\u4e0d\u662f\u4e0d\u80fd\uff0c\u53ea\u662f\u4e0d\u60f3\uff01
p2292
sVContactFlag
p2293
I1
sVNickName
p2294
V\u6765\u4ed4
p2295
sVRemarkPYQuanPin
p2296
Vweilai
p2297
sVHeadImgUrl
p2298
V/cgi-bin/mmwebwx-bin/webwxgeticon?seq=660414552&username=@093b92787f5b179da4a8d3984aeef245&skey=@crypt_870a16cf_8c26e3b8f2f48a5406ce444d0927cfd8
p2299
sVSex
p2300
I1
sVStarFriend
p2301
I0
sVStatues
p2302
I0
sa(dp2303
VUserName
p2304
V@cdc96b9a30685b44106928db7bd2ed2df497fb00202b0a72b102ec152fbb9cb9
p2305
sVCity
p2306
V\u5eca\u574a
p2307
sVDisplayName
p2308
g48
sVUniFriend
p2309
I0
sVMemberList
p2310
(lp2311
sVPYQuanPin
p2312
Vgaorongxuan
p2313
sVRemarkPYInitial
p2314
VGRX
p2315
sVUin
p2316
I0
sVAppAccountFlag
p2317
I0
sVVerifyFlag
p2318
I0
sVProvince
p2319
V\u6cb3\u5317
p2320
sVKeyWord
p2321
g48
sVRemarkName
p2322
V\u9ad8\u8363\u8f69
p2323
sVPYInitial
p2324
VGRX
p2325
sVChatRoomId
p2326
I0
sVIsOwner
p2327
I0
sVHideInputBarFlag
p2328
I0
sVEncryChatRoomId
p2329
g48
sVAttrStatus
p2330
I33624103
sVSnsFlag
p2331
I17
sVMemberCount
p2332
I0
sVOwnerUin
p2333
I0
sVAlias
p2334
g48
sVSignature
p2335
Vtouch the untoucheable, break the unbreakable
p2336
sVContactFlag
p2337
I1
sVNickName
p2338
V\u9ad8\u8363\u8f69
p2339
sVRemarkPYQuanPin
p2340
Vgaorongxuan
p2341
sVHeadImgUrl
p2342
V/cgi-bin/mmwebwx-bin/webwxgeticon?seq=660470265&username=@cdc96b9a30685b44106928db7bd2ed2df497fb00202b0a72b102ec152fbb9cb9&skey=@crypt_870a16cf_8c26e3b8f2f48a5406ce444d0927cfd8
p2343
sVSex
p2344
I1
sVStarFriend
p2345
I0
sVStatues
p2346
I0
sa(dp2347
VUserName
p2348
V@b6dade9642460cadf21b0d25c00e99288289289903edb2125803652aee2a1a81
p2349
sVCity
p2350
g48
sVDisplayName
p2351
g48
sVUniFriend
p2352
I0
sVMemberList
p2353
(lp2354
sVPYQuanPin
p2355
Vkunya
p2356
sVRemarkPYInitial
p2357
VZJK
p2358
sVUin
p2359
I0
sVAppAccountFlag
p2360
I0
sVVerifyFlag
p2361
I0
sVProvince
p2362
g48
sVKeyWord
p2363
g48
sVRemarkName
p2364
V\u5f20\u656c\u7428
p2365
sVPYInitial
p2366
VKY
p2367
sVChatRoomId
p2368
I0
sVIsOwner
p2369
I0
sVHideInputBarFlag
p2370
I0
sVEncryChatRoomId
p2371
g48
sVAttrStatus
p2372
I100385
sVSnsFlag
p2373
I145
sVMemberCount
p2374
I0
sVOwnerUin
p2375
I0
sVAlias
p2376
g48
sVSignature
p2377
V\u540e\u6d77\u6709\u6811\u7684\u9662\u5b50\uff0c\u590f\u4ee3\u6709\u5de5\u7684\u7389\uff0c\u6b64\u65f6\u6b64\u523b\u7684\u4e91\uff0c\u4e8c\u5341\u6765\u5c81\u7684\u4f60\u3002
p2378
sVContactFlag
p2379
I1
sVNickName
p2380
V\u7428\u5440
p2381
sVRemarkPYQuanPin
p2382
Vzhangjingkun
p2383
sVHeadImgUrl
p2384
V/cgi-bin/mmwebwx-bin/webwxgeticon?seq=660450598&username=@b6dade9642460cadf21b0d25c00e99288289289903edb2125803652aee2a1a81&skey=@crypt_870a16cf_8c26e3b8f2f48a5406ce444d0927cfd8
p2385
sVSex
p2386
I2
sVStarFriend
p2387
I0
sVStatues
p2388
I0
sa(dp2389
VUserName
p2390
V@14eb5cfdc58c8818cb20ac4a4cc6a0ac
p2391
sVCity
p2392
V\u5927\u8fde
p2393
sVDisplayName
p2394
g48
sVUniFriend
p2395
I0
sVMemberList
p2396
(lp2397
sVPYQuanPin
p2398
Vdapeng
p2399
sVRemarkPYInitial
p2400
VQSP
p2401
sVUin
p2402
I0
sVAppAccountFlag
p2403
I0
sVVerifyFlag
p2404
I0
sVProvince
p2405
V\u8fbd\u5b81
p2406
sVKeyWord
p2407
Vqsp
p2408
sVRemarkName
p2409
V\u66f2\u4e66\u9e4f
p2410
sVPYInitial
p2411
VDP
p2412
sVChatRoomId
p2413
I0
sVIsOwner
p2414
I0
sVHideInputBarFlag
p2415
I0
sVEncryChatRoomId
p2416
g48
sVAttrStatus
p2417
I102903
sVSnsFlag
p2418
I17
sVMemberCount
p2419
I0
sVOwnerUin
p2420
I0
sVAlias
p2421
g48
sVSignature
p2422
V\u516c\u5b50\u4e16\u65e0\u53cc\uff0c\u4f55\u5fc5\u610f\u8fc7\u5f80
p2423
sVContactFlag
p2424
I5
sVNickName
p2425
V\u5927\u9e4f
p2426
sVRemarkPYQuanPin
p2427
Vqushupeng
p2428
sVHeadImgUrl
p2429
V/cgi-bin/mmwebwx-bin/webwxgeticon?seq=660491753&username=@14eb5cfdc58c8818cb20ac4a4cc6a0ac&skey=@crypt_870a16cf_8c26e3b8f2f48a5406ce444d0927cfd8
p2430
sVSex
p2431
I1
sVStarFriend
p2432
I0
sVStatues
p2433
I0
sa(dp2434
VUserName
p2435
V@022fc5c91d190678d609fbd1451b4650477501caf7f7d6e486755de79c7d098e
p2436
sVCity
p2437
V\u5927\u8fde
p2438
sVDisplayName
p2439
g48
sVUniFriend
p2440
I0
sVMemberList
p2441
(lp2442
sVPYQuanPin
p2443
Vmuampzi
p2444
sVRemarkPYInitial
p2445
VLGB
p2446
sVUin
p2447
I0
sVAppAccountFlag
p2448
I0
sVVerifyFlag
p2449
I0
sVProvince
p2450
V\u8fbd\u5b81
p2451
sVKeyWord
p2452
g48
sVRemarkName
p2453
V\u674e\u56fd\u658c
p2454
sVPYInitial
p2455
VMAMPZ
p2456
sVChatRoomId
p2457
I0
sVIsOwner
p2458
I0
sVHideInputBarFlag
p2459
I0
sVEncryChatRoomId
p2460
g48
sVAttrStatus
p2461
I102693
sVSnsFlag
p2462
I1
sVMemberCount
p2463
I0
sVOwnerUin
p2464
I0
sVAlias
p2465
g48
sVSignature
p2466
V<span class="emoji emoji1f236"></span>\ufe0f\u4f60\u8db3\u77e3
p2467
sVContactFlag
p2468
I1
sVNickName
p2469
V\u6728&amp;\u5b50
p2470
sVRemarkPYQuanPin
p2471
Vliguobin
p2472
sVHeadImgUrl
p2473
V/cgi-bin/mmwebwx-bin/webwxgeticon?seq=660452301&username=@022fc5c91d190678d609fbd1451b4650477501caf7f7d6e486755de79c7d098e&skey=@crypt_870a16cf_8c26e3b8f2f48a5406ce444d0927cfd8
p2474
sVSex
p2475
I2
sVStarFriend
p2476
I0
sVStatues
p2477
I0
sa(dp2478
VUserName
p2479
V@1b530bc7f4a916fb0da17da024bd94ad45cdb18d2122b9b3ddc6c5b3ceb3f19e
p2480
sVCity
p2481
g48
sVDisplayName
p2482
g48
sVUniFriend
p2483
I0
sVMemberList
p2484
(lp2485
sVPYQuanPin
p2486
Vleyou
p2487
sVRemarkPYInitial
p2488
VNN
p2489
sVUin
p2490
I0
sVAppAccountFlag
p2491
I0
sVVerifyFlag
p2492
I0
sVProvince
p2493
VParis
p2494
sVKeyWord
p2495
g48
sVRemarkName
p2496
V\u5b81\u5b81
p2497
sVPYInitial
p2498
VLY
p2499
sVChatRoomId
p2500
I0
sVIsOwner
p2501
I0
sVHideInputBarFlag
p2502
I0
sVEncryChatRoomId
p2503
g48
sVAttrStatus
p2504
I231333
sVSnsFlag
p2505
I49
sVMemberCount
p2506
I0
sVOwnerUin
p2507
I0
sVAlias
p2508
g48
sVSignature
p2509
V\u8d70\u7740\uff0c\u7b11\u7740\u2026\u2026
p2510
sVContactFlag
p2511
I1
sVNickName
p2512
V\u4e86  \u53c8
p2513
sVRemarkPYQuanPin
p2514
Vningning
p2515
sVHeadImgUrl
p2516
V/cgi-bin/mmwebwx-bin/webwxgeticon?seq=660468493&username=@1b530bc7f4a916fb0da17da024bd94ad45cdb18d2122b9b3ddc6c5b3ceb3f19e&skey=@crypt_870a16cf_8c26e3b8f2f48a5406ce444d0927cfd8
p2517
sVSex
p2518
I2
sVStarFriend
p2519
I0
sVStatues
p2520
I0
sa(dp2521
VUserName
p2522
V@302d5d881a9bb70f91cc6e261e4d8e4edcadaa86b7d90d69c4641615b165dc6a
p2523
sVCity
p2524
g48
sVDisplayName
p2525
g48
sVUniFriend
p2526
I0
sVMemberList
p2527
(lp2528
sVPYQuanPin
p2529
Vchunhuaqiushi
p2530
sVRemarkPYInitial
p2531
VLB
p2532
sVUin
p2533
I0
sVAppAccountFlag
p2534
I0
sVVerifyFlag
p2535
I0
sVProvince
p2536
g48
sVKeyWord
p2537
g48
sVRemarkName
p2538
V\u8001\u6bd5
p2539
sVPYInitial
p2540
VCHQS
p2541
sVChatRoomId
p2542
I0
sVIsOwner
p2543
I0
sVHideInputBarFlag
p2544
I0
sVEncryChatRoomId
p2545
g48
sVAttrStatus
p2546
I110629
sVSnsFlag
p2547
I17
sVMemberCount
p2548
I0
sVOwnerUin
p2549
I0
sVAlias
p2550
g48
sVSignature
p2551
V\u76f8\u89c1\u4ea6\u662f\u7f18\u5206\uff0c\u60dc\u7f18\uff0c\u968f\u7f18\uff01
p2552
sVContactFlag
p2553
I5
sVNickName
p2554
V\u6625\u534e\u79cb\u5b9e
p2555
sVRemarkPYQuanPin
p2556
Vlaobi
p2557
sVHeadImgUrl
p2558
V/cgi-bin/mmwebwx-bin/webwxgeticon?seq=660417113&username=@302d5d881a9bb70f91cc6e261e4d8e4edcadaa86b7d90d69c4641615b165dc6a&skey=@crypt_870a16cf_8c26e3b8f2f48a5406ce444d0927cfd8
p2559
sVSex
p2560
I1
sVStarFriend
p2561
I0
sVStatues
p2562
I0
sa(dp2563
VUserName
p2564
V@8469100e818ff7081bcfc2ed532712ee513634a6a3181ee3e7ff02790e917d89
p2565
sVCity
p2566
g48
sVDisplayName
p2567
g48
sVUniFriend
p2568
I0
sVMemberList
p2569
(lp2570
sVPYQuanPin
p2571
Vsunmeng
p2572
sVRemarkPYInitial
p2573
VSM
p2574
sVUin
p2575
I0
sVAppAccountFlag
p2576
I0
sVVerifyFlag
p2577
I0
sVProvince
p2578
g48
sVKeyWord
p2579
g48
sVRemarkName
p2580
V\u5b59\u8499
p2581
sVPYInitial
p2582
VSM
p2583
sVChatRoomId
p2584
I0
sVIsOwner
p2585
I0
sVHideInputBarFlag
p2586
I0
sVEncryChatRoomId
p2587
g48
sVAttrStatus
p2588
I102501
sVSnsFlag
p2589
I145
sVMemberCount
p2590
I0
sVOwnerUin
p2591
I0
sVAlias
p2592
g48
sVSignature
p2593
g48
sVContactFlag
p2594
I1
sVNickName
p2595
V\u5b59\u8499
p2596
sVRemarkPYQuanPin
p2597
Vsunmeng
p2598
sVHeadImgUrl
p2599
V/cgi-bin/mmwebwx-bin/webwxgeticon?seq=660494629&username=@8469100e818ff7081bcfc2ed532712ee513634a6a3181ee3e7ff02790e917d89&skey=@crypt_870a16cf_8c26e3b8f2f48a5406ce444d0927cfd8
p2600
sVSex
p2601
I1
sVStarFriend
p2602
I0
sVStatues
p2603
I0
sa(dp2604
VUserName
p2605
V@4fc3309fcdbc4d6a36fe6e4aecd4121b71f91ed6ae40bb9f9b849ac9afe1b46d
p2606
sVCity
p2607
g48
sVDisplayName
p2608
g48
sVUniFriend
p2609
I0
sVMemberList
p2610
(lp2611
sVPYQuanPin
p2612
Vjipaifan
p2613
sVRemarkPYInitial
p2614
VLXP
p2615
sVUin
p2616
I0
sVAppAccountFlag
p2617
I0
sVVerifyFlag
p2618
I0
sVProvince
p2619
V\u5317\u4eac
p2620
sVKeyWord
p2621
g48
sVRemarkName
p2622
V\u674e\u6b23\u5e73
p2623
sVPYInitial
p2624
VJPF
p2625
sVChatRoomId
p2626
I0
sVIsOwner
p2627
I0
sVHideInputBarFlag
p2628
I0
sVEncryChatRoomId
p2629
g48
sVAttrStatus
p2630
I135717
sVSnsFlag
p2631
I17
sVMemberCount
p2632
I0
sVOwnerUin
p2633
I0
sVAlias
p2634
g48
sVSignature
p2635
g48
sVContactFlag
p2636
I1
sVNickName
p2637
V\u9e21\u6392\u996d
p2638
sVRemarkPYQuanPin
p2639
Vlixinping
p2640
sVHeadImgUrl
p2641
V/cgi-bin/mmwebwx-bin/webwxgeticon?seq=660492402&username=@4fc3309fcdbc4d6a36fe6e4aecd4121b71f91ed6ae40bb9f9b849ac9afe1b46d&skey=@crypt_870a16cf_8c26e3b8f2f48a5406ce444d0927cfd8
p2642
sVSex
p2643
I1
sVStarFriend
p2644
I0
sVStatues
p2645
I0
sa(dp2646
VUserName
p2647
V@59511baa6bc3437eb1aee48b4937ccff
p2648
sVCity
p2649
V\u4e1c\u57ce
p2650
sVDisplayName
p2651
g48
sVUniFriend
p2652
I0
sVMemberList
p2653
(lp2654
sVPYQuanPin
p2655
Vsunny
p2656
sVRemarkPYInitial
p2657
VYG
p2658
sVUin
p2659
I0
sVAppAccountFlag
p2660
I0
sVVerifyFlag
p2661
I0
sVProvince
p2662
V\u5317\u4eac
p2663
sVKeyWord
p2664
Vsun
p2665
sVRemarkName
p2666
V\u6768\u5149
p2667
sVPYInitial
p2668
VSUNNY
p2669
sVChatRoomId
p2670
I0
sVIsOwner
p2671
I0
sVHideInputBarFlag
p2672
I0
sVEncryChatRoomId
p2673
g48
sVAttrStatus
p2674
I68199
sVSnsFlag
p2675
I49
sVMemberCount
p2676
I0
sVOwnerUin
p2677
I0
sVAlias
p2678
g48
sVSignature
p2679
g48
sVContactFlag
p2680
I1
sVNickName
p2681
Vsunny
p2682
sVRemarkPYQuanPin
p2683
Vyangguang
p2684
sVHeadImgUrl
p2685
V/cgi-bin/mmwebwx-bin/webwxgeticon?seq=660492414&username=@59511baa6bc3437eb1aee48b4937ccff&skey=@crypt_870a16cf_8c26e3b8f2f48a5406ce444d0927cfd8
p2686
sVSex
p2687
I1
sVStarFriend
p2688
I0
sVStatues
p2689
I0
sa(dp2690
VUserName
p2691
V@f9bc4bc0636fafdf560466cb0a08b92946c0633c9ceba267b85c0bbeb5b8e7e1
p2692
sVCity
p2693
g48
sVDisplayName
p2694
g48
sVUniFriend
p2695
I0
sVMemberList
p2696
(lp2697
sVPYQuanPin
p2698
Vmeihaoshenghuo
p2699
sVRemarkPYInitial
p2700
VLM
p2701
sVUin
p2702
I0
sVAppAccountFlag
p2703
I0
sVVerifyFlag
p2704
I0
sVProvince
p2705
g48
sVKeyWord
p2706
g48
sVRemarkName
p2707
V\u8001\u5988
p2708
sVPYInitial
p2709
VMHSH
p2710
sVChatRoomId
p2711
I0
sVIsOwner
p2712
I0
sVHideInputBarFlag
p2713
I0
sVEncryChatRoomId
p2714
g48
sVAttrStatus
p2715
I6501
sVSnsFlag
p2716
I1
sVMemberCount
p2717
I0
sVOwnerUin
p2718
I0
sVAlias
p2719
g48
sVSignature
p2720
g48
sVContactFlag
p2721
I1
sVNickName
p2722
V\u7f8e\u597d\u751f\u6d3b
p2723
sVRemarkPYQuanPin
p2724
Vlaoma
p2725
sVHeadImgUrl
p2726
V/cgi-bin/mmwebwx-bin/webwxgeticon?seq=648849129&username=@f9bc4bc0636fafdf560466cb0a08b92946c0633c9ceba267b85c0bbeb5b8e7e1&skey=@crypt_870a16cf_8c26e3b8f2f48a5406ce444d0927cfd8
p2727
sVSex
p2728
I0
sVStarFriend
p2729
I0
sVStatues
p2730
I0
sa(dp2731
VUserName
p2732
V@5318a5a7bdf77ac89d8de8fa1e03555db99890a289e42f8679981b21bd1d9519
p2733
sVCity
p2734
V\u6c88\u9633
p2735
sVDisplayName
p2736
g48
sVUniFriend
p2737
I0
sVMemberList
p2738
(lp2739
sVPYQuanPin
p2740
Vsowhat
p2741
sVRemarkPYInitial
p2742
VLFC
p2743
sVUin
p2744
I0
sVAppAccountFlag
p2745
I0
sVVerifyFlag
p2746
I0
sVProvince
p2747
V\u8fbd\u5b81
p2748
sVKeyWord
p2749
g48
sVRemarkName
p2750
V\u5218\u51e4\u5448
p2751
sVPYInitial
p2752
VSOWHAT
p2753
sVChatRoomId
p2754
I0
sVIsOwner
p2755
I0
sVHideInputBarFlag
p2756
I0
sVEncryChatRoomId
p2757
g48
sVAttrStatus
p2758
I104957
sVSnsFlag
p2759
I1
sVMemberCount
p2760
I0
sVOwnerUin
p2761
I0
sVAlias
p2762
g48
sVSignature
p2763
V\u4e16\u754c\u90a3\u4e48\u810f\uff0c\u8c01\u6709\u8d44\u683c\u8bf4\u60b2\u4f24~
p2764
sVContactFlag
p2765
I1
sVNickName
p2766
Vso what~
p2767
sVRemarkPYQuanPin
p2768
Vliufengcheng
p2769
sVHeadImgUrl
p2770
V/cgi-bin/mmwebwx-bin/webwxgeticon?seq=660495440&username=@5318a5a7bdf77ac89d8de8fa1e03555db99890a289e42f8679981b21bd1d9519&skey=@crypt_870a16cf_8c26e3b8f2f48a5406ce444d0927cfd8
p2771
sVSex
p2772
I2
sVStarFriend
p2773
I0
sVStatues
p2774
I0
sa(dp2775
VUserName
p2776
V@8e63c3cbb87a344b38ae7d97dce570d2908a1ecaaf996cd673b31819ea4f8519
p2777
sVCity
p2778
g48
sVDisplayName
p2779
g48
sVUniFriend
p2780
I0
sVMemberList
p2781
(lp2782
sVPYQuanPin
p2783
Vshuizemulan
p2784
sVRemarkPYInitial
p2785
VLS
p2786
sVUin
p2787
I0
sVAppAccountFlag
p2788
I0
sVVerifyFlag
p2789
I0
sVProvince
p2790
VParis
p2791
sVKeyWord
p2792
g48
sVRemarkName
p2793
V\u8001\u5a76
p2794
sVPYInitial
p2795
VSZML
p2796
sVChatRoomId
p2797
I0
sVIsOwner
p2798
I0
sVHideInputBarFlag
p2799
I0
sVEncryChatRoomId
p2800
g48
sVAttrStatus
p2801
I39741
sVSnsFlag
p2802
I17
sVMemberCount
p2803
I0
sVOwnerUin
p2804
I0
sVAlias
p2805
g48
sVSignature
p2806
V\u751f\u5982\u590f\u82b1\u4e4b\u7eda\u70c2\uff0c\u6b7b\u5982\u79cb\u53f6\u4e4b\u9759\u7f8e
p2807
sVContactFlag
p2808
I1
sVNickName
p2809
V\u6c34\u6cfd\u6728\u5170
p2810
sVRemarkPYQuanPin
p2811
Vlaoshen
p2812
sVHeadImgUrl
p2813
V/cgi-bin/mmwebwx-bin/webwxgeticon?seq=660480619&username=@8e63c3cbb87a344b38ae7d97dce570d2908a1ecaaf996cd673b31819ea4f8519&skey=@crypt_870a16cf_8c26e3b8f2f48a5406ce444d0927cfd8
p2814
sVSex
p2815
I2
sVStarFriend
p2816
I0
sVStatues
p2817
I0
sa(dp2818
VUserName
p2819
V@002f0b18e945ff09e677ff30ea46f0d6
p2820
sVCity
p2821
V\u6c88\u9633
p2822
sVDisplayName
p2823
g48
sVUniFriend
p2824
I0
sVMemberList
p2825
(lp2826
sVPYQuanPin
p2827
Vdisanrenchen
p2828
sVRemarkPYInitial
p2829
VQZJ
p2830
sVUin
p2831
I0
sVAppAccountFlag
p2832
I0
sVVerifyFlag
p2833
I0
sVProvince
p2834
V\u8fbd\u5b81
p2835
sVKeyWord
p2836
Vqzj
p2837
sVRemarkName
p2838
V\u9f50\u5fd7\u4f73
p2839
sVPYInitial
p2840
VDSRC
p2841
sVChatRoomId
p2842
I0
sVIsOwner
p2843
I0
sVHideInputBarFlag
p2844
I0
sVEncryChatRoomId
p2845
g48
sVAttrStatus
p2846
I2151
sVSnsFlag
p2847
I17
sVMemberCount
p2848
I0
sVOwnerUin
p2849
I0
sVAlias
p2850
g48
sVSignature
p2851
g48
sVContactFlag
p2852
I1
sVNickName
p2853
V\u7b2c\u4e09\u4eba\u79f0
p2854
sVRemarkPYQuanPin
p2855
Vqizhijia
p2856
sVHeadImgUrl
p2857
V/cgi-bin/mmwebwx-bin/webwxgeticon?seq=660495637&username=@002f0b18e945ff09e677ff30ea46f0d6&skey=@crypt_870a16cf_8c26e3b8f2f48a5406ce444d0927cfd8
p2858
sVSex
p2859
I1
sVStarFriend
p2860
I0
sVStatues
p2861
I0
sa(dp2862
VUserName
p2863
V@2d7fcb9cc746336582ff9f545378a4fa4c0016de091b8042f22302c3109fe176
p2864
sVCity
p2865
g48
sVDisplayName
p2866
g48
sVUniFriend
p2867
I0
sVMemberList
p2868
(lp2869
sVPYQuanPin
p2870
Vhudiezhongjiufeibuguocanghai
p2871
sVRemarkPYInitial
p2872
VSDX
p2873
sVUin
p2874
I0
sVAppAccountFlag
p2875
I0
sVVerifyFlag
p2876
I0
sVProvince
p2877
VOsaka
p2878
sVKeyWord
p2879
g48
sVRemarkName
p2880
V\u5c1a\u51ac\u96ea
p2881
sVPYInitial
p2882
VHDZJFBGCH
p2883
sVChatRoomId
p2884
I0
sVIsOwner
p2885
I0
sVHideInputBarFlag
p2886
I0
sVEncryChatRoomId
p2887
g48
sVAttrStatus
p2888
I102663
sVSnsFlag
p2889
I17
sVMemberCount
p2890
I0
sVOwnerUin
p2891
I0
sVAlias
p2892
g48
sVSignature
p2893
V\u4e0d\u518d\u7b49\u5f85\u68a6\u91cc\u82b1\u5f00....                    \u80fd\u62d2\u7edd\u5f97\u90fd\u4e0d\u53eb\u8bf1\u60d1
p2894
sVContactFlag
p2895
I1
sVNickName
p2896
V\u8774\u8776\u7ec8\u7a76\u98de\u4e0d\u8fc7\u6ca7\u6d77
p2897
sVRemarkPYQuanPin
p2898
Vshangdongxue
p2899
sVHeadImgUrl
p2900
V/cgi-bin/mmwebwx-bin/webwxgeticon?seq=660452662&username=@2d7fcb9cc746336582ff9f545378a4fa4c0016de091b8042f22302c3109fe176&skey=@crypt_870a16cf_8c26e3b8f2f48a5406ce444d0927cfd8
p2901
sVSex
p2902
I2
sVStarFriend
p2903
I0
sVStatues
p2904
I0
sa(dp2905
VUserName
p2906
V@bc798ebf817fae579c86357344b0e61b
p2907
sVCity
p2908
V\u5927\u8fde
p2909
sVDisplayName
p2910
g48
sVUniFriend
p2911
I0
sVMemberList
p2912
(lp2913
sVPYQuanPin
p2914
Vjiji
p2915
sVRemarkPYInitial
p2916
VSZ
p2917
sVUin
p2918
I0
sVAppAccountFlag
p2919
I0
sVVerifyFlag
p2920
I0
sVProvince
p2921
V\u8fbd\u5b81
p2922
sVKeyWord
p2923
Verj
p2924
sVRemarkName
p2925
V\u5b59\u5586
p2926
sVPYInitial
p2927
VJJ
p2928
sVChatRoomId
p2929
I0
sVIsOwner
p2930
I0
sVHideInputBarFlag
p2931
I0
sVEncryChatRoomId
p2932
g48
sVAttrStatus
p2933
I202279
sVSnsFlag
p2934
I17
sVMemberCount
p2935
I0
sVOwnerUin
p2936
I0
sVAlias
p2937
g48
sVSignature
p2938
V\u52aa\u529b\u5230\u65e0\u80fd\u4e3a\u529b\uff0c\u62fc\u640f\u5230\u611f\u52a8\u81ea\u5df1\uff01
p2939
sVContactFlag
p2940
I5
sVNickName
p2941
V\u5409     \u5409
p2942
sVRemarkPYQuanPin
p2943
Vsunzhe
p2944
sVHeadImgUrl
p2945
V/cgi-bin/mmwebwx-bin/webwxgeticon?seq=660496844&username=@bc798ebf817fae579c86357344b0e61b&skey=@crypt_870a16cf_8c26e3b8f2f48a5406ce444d0927cfd8
p2946
sVSex
p2947
I2
sVStarFriend
p2948
I0
sVStatues
p2949
I0
sa(dp2950
VUserName
p2951
V@cc937040cb934b56ad9d800f2fcebad4bc3c1592b5a8956e929cdda15a8159a1
p2952
sVCity
p2953
V\u5927\u8fde
p2954
sVDisplayName
p2955
g48
sVUniFriend
p2956
I0
sVMemberList
p2957
(lp2958
sVPYQuanPin
p2959
Vhechengui
p2960
sVRemarkPYInitial
p2961
g48
sVUin
p2962
I0
sVAppAccountFlag
p2963
I0
sVVerifyFlag
p2964
I0
sVProvince
p2965
V\u8fbd\u5b81
p2966
sVKeyWord
p2967
g48
sVRemarkName
p2968
g48
sVPYInitial
p2969
VHCG
p2970
sVChatRoomId
p2971
I0
sVIsOwner
p2972
I0
sVHideInputBarFlag
p2973
I0
sVEncryChatRoomId
p2974
g48
sVAttrStatus
p2975
I102501
sVSnsFlag
p2976
I17
sVMemberCount
p2977
I0
sVOwnerUin
p2978
I0
sVAlias
p2979
g48
sVSignature
p2980
g48
sVContactFlag
p2981
I1
sVNickName
p2982
V\u8d6b\u8fb0\u6842
p2983
sVRemarkPYQuanPin
p2984
g48
sVHeadImgUrl
p2985
V/cgi-bin/mmwebwx-bin/webwxgeticon?seq=660466222&username=@cc937040cb934b56ad9d800f2fcebad4bc3c1592b5a8956e929cdda15a8159a1&skey=@crypt_870a16cf_8c26e3b8f2f48a5406ce444d0927cfd8
p2986
sVSex
p2987
I1
sVStarFriend
p2988
I0
sVStatues
p2989
I0
sa(dp2990
VUserName
p2991
V@fff62c09a277ac1aa0a618e46427586c
p2992
sVCity
p2993
V\u4e1c\u57ce
p2994
sVDisplayName
p2995
g48
sVUniFriend
p2996
I0
sVMemberList
p2997
(lp2998
sVPYQuanPin
p2999
Vzhihuzhetui
p3000
sVRemarkPYInitial
p3001
g48
sVUin
p3002
I0
sVAppAccountFlag
p3003
I0
sVVerifyFlag
p3004
I0
sVProvince
p3005
V\u5317\u4eac
p3006
sVKeyWord
p3007
Vzzx
p3008
sVRemarkName
p3009
g48
sVPYInitial
p3010
VZHZT
p3011
sVChatRoomId
p3012
I0
sVIsOwner
p3013
I0
sVHideInputBarFlag
p3014
I0
sVEncryChatRoomId
p3015
g48
sVAttrStatus
p3016
L2147588991L
sVSnsFlag
p3017
I49
sVMemberCount
p3018
I0
sVOwnerUin
p3019
I0
sVAlias
p3020
g48
sVSignature
p3021
VI\u2019m beautiful in my way
p3022
sVContactFlag
p3023
I3
sVNickName
p3024
V\u4e4b\u4e4e\u8005\u817f
p3025
sVRemarkPYQuanPin
p3026
g48
sVHeadImgUrl
p3027
V/cgi-bin/mmwebwx-bin/webwxgeticon?seq=660495903&username=@fff62c09a277ac1aa0a618e46427586c&skey=@crypt_870a16cf_8c26e3b8f2f48a5406ce444d0927cfd8
p3028
sVSex
p3029
I1
sVStarFriend
p3030
I0
sVStatues
p3031
I0
sasS'chatroomList'
p3032
(lp3033
(dp3034
VUserName
p3035
V@@26195444a2914f045ed76897c6ca8e9dc22574c1c9a414f3ddc9af85f7578fb2
p3036
sVCity
p3037
g48
sVDisplayName
p3038
g48
sVUniFriend
p3039
I0
sS'self'
p3040
(dp3041
g36
g31
sg38
g41
sg40
g41
sg42
I0
sg67
I0
sg43
(lp3042
sg45
g48
sg47
g48
sg77
I1835068021
sg50
I0
sg51
I0
sg52
g41
sg54
g41
sg55
g48
sg56
g48
sg59
I0
sg60
I0
sg61
I1
sg62
g41
sg63
I0
sg65
I145
sg66
I0
sg64
I1
sg68
g41
sg69
V\u5982\u679c\u4e0d\u80fd\u5403\u5b83\u3001\u4e0d\u80fd\u559d\u5b83\u3001\u4e0d\u80fd\u62bd\u5b83\u3001\u4e0d\u80fd\u5438\u5b83\uff0c\u90a3\u5c31\u5e72\u6b7b\u5b83\uff01
p3043
sg71
I0
sg72
VDAREDEVIL
p3044
sg74
g48
sg75
V/cgi-bin/mmwebwx-bin/webwxgeticon?seq=462114891&username=@fb8d83980126e377a656313574ca6c23203565c6b3f821939173bc243e971816&skey=@crypt_870a16cf_8c26e3b8f2f48a5406ce444d0927cfd8
p3045
sg49
I1
sg78
I0
sg79
I0
ssVMemberList
p3046
(lp3047
sVPYQuanPin
p3048
Vjibanlalala
p3049
sVRemarkPYInitial
p3050
g48
sVSex
p3051
I0
sVAppAccountFlag
p3052
I0
sVVerifyFlag
p3053
I0
sVProvince
p3054
g48
sVKeyWord
p3055
g48
sVRemarkName
p3056
g48
sVPYInitial
p3057
VJBLLL
p3058
sVIsOwner
p3059
I0
sVChatRoomId
p3060
I0
sVHideInputBarFlag
p3061
I0
sVEncryChatRoomId
p3062
g48
sVAttrStatus
p3063
I0
sVSnsFlag
p3064
I0
sVMemberCount
p3065
I0
sVOwnerUin
p3066
I0
sVAlias
p3067
g48
sVSignature
p3068
g48
sVContactFlag
p3069
I1
sVNickName
p3070
V\u7f81\u7eca~\u005c(\u2267\u25bd\u2266)/~\u5566\u5566\u5566
p3071
sVRemarkPYQuanPin
p3072
g48
sVHeadImgUrl
p3073
V/cgi-bin/mmwebwx-bin/webwxgetheadimg?seq=639320757&username=@@26195444a2914f045ed76897c6ca8e9dc22574c1c9a414f3ddc9af85f7578fb2&skey=@crypt_870a16cf_8c26e3b8f2f48a5406ce444d0927cfd8
p3074
sVUin
p3075
I0
sVStarFriend
p3076
I0
sVStatues
p3077
I0
sS'isAdmin'
p3078
Nsa(dp3079
VUserName
p3080
V@@fa90d08ce97195077c773ee65d5995c940de35a74ada96696d7f151ef02db6b1
p3081
sVCity
p3082
g48
sVDisplayName
p3083
g48
sVUniFriend
p3084
I0
sg3040
(dp3085
g36
g31
sg38
g41
sg40
g41
sg42
I0
sg67
I0
sg43
(lp3086
sg45
g48
sg47
g48
sg77
I1835068021
sg50
I0
sg51
I0
sg52
g41
sg54
g41
sg55
g48
sg56
g48
sg59
I0
sg60
I0
sg61
I1
sg62
g41
sg63
I0
sg65
I145
sg66
I0
sg64
I1
sg68
g41
sg69
g3043
sg71
I0
sg72
g3044
sg74
g48
sg75
g3045
sg49
I1
sg78
I0
sg79
I0
ssVMemberList
p3087
(lp3088
sVPYQuanPin
p3089
Vdashifoyoueryuan98
p3090
sVRemarkPYInitial
p3091
g48
sVSex
p3092
I0
sVAppAccountFlag
p3093
I0
sVVerifyFlag
p3094
I0
sVProvince
p3095
g48
sVKeyWord
p3096
g48
sVRemarkName
p3097
g48
sVPYInitial
p3098
VDSFYEY98
p3099
sVIsOwner
p3100
I0
sVChatRoomId
p3101
I0
sVHideInputBarFlag
p3102
I0
sVEncryChatRoomId
p3103
g48
sVAttrStatus
p3104
I0
sVSnsFlag
p3105
I0
sVMemberCount
p3106
I0
sVOwnerUin
p3107
I0
sVAlias
p3108
g48
sVSignature
p3109
g48
sVContactFlag
p3110
I1
sVNickName
p3111
V\u5927\u77f3\u4f5b\u5e7c\u513f\u56ed(98)
p3112
sVRemarkPYQuanPin
p3113
g48
sVHeadImgUrl
p3114
V/cgi-bin/mmwebwx-bin/webwxgetheadimg?seq=648809581&username=@@fa90d08ce97195077c773ee65d5995c940de35a74ada96696d7f151ef02db6b1&skey=@crypt_870a16cf_8c26e3b8f2f48a5406ce444d0927cfd8
p3115
sVUin
p3116
I0
sVStarFriend
p3117
I0
sVStatues
p3118
I0
sg3078
Nsa(dp3119
VUserName
p3120
V@@06a8d55c8263f8756e4b663a0f1fcf149ec98c9106e5ca65219838e990e5be96
p3121
sVCity
p3122
g48
sVDisplayName
p3123
g48
sVUniFriend
p3124
I0
sg3040
(dp3125
g36
g31
sg38
g41
sg40
g41
sg42
I0
sg67
I0
sg43
(lp3126
sg45
g48
sg47
g48
sg77
I1835068021
sg50
I0
sg51
I0
sg52
g41
sg54
g41
sg55
g48
sg56
g48
sg59
I0
sg60
I0
sg61
I1
sg62
g41
sg63
I0
sg65
I145
sg66
I0
sg64
I1
sg68
g41
sg69
g3043
sg71
I0
sg72
g3044
sg74
g48
sg75
g3045
sg49
I1
sg78
I0
sg79
I0
ssVMemberList
p3127
(lp3128
sVPYQuanPin
p3129
Vshifoyierdui
p3130
sVRemarkPYInitial
p3131
g48
sVSex
p3132
I0
sVAppAccountFlag
p3133
I0
sVVerifyFlag
p3134
I0
sVProvince
p3135
g48
sVKeyWord
p3136
g48
sVRemarkName
p3137
g48
sVPYInitial
p3138
VSFYED
p3139
sVIsOwner
p3140
I0
sVChatRoomId
p3141
I0
sVHideInputBarFlag
p3142
I0
sVEncryChatRoomId
p3143
g48
sVAttrStatus
p3144
I0
sVSnsFlag
p3145
I0
sVMemberCount
p3146
I0
sVOwnerUin
p3147
I0
sVAlias
p3148
g48
sVSignature
p3149
g48
sVContactFlag
p3150
I1
sVNickName
p3151
V\u77f3\u4f5b\u4e00\u4e8c\u961f
p3152
sVRemarkPYQuanPin
p3153
g48
sVHeadImgUrl
p3154
V/cgi-bin/mmwebwx-bin/webwxgetheadimg?seq=648809583&username=@@06a8d55c8263f8756e4b663a0f1fcf149ec98c9106e5ca65219838e990e5be96&skey=@crypt_870a16cf_8c26e3b8f2f48a5406ce444d0927cfd8
p3155
sVUin
p3156
I0
sVStarFriend
p3157
I0
sVStatues
p3158
I0
sg3078
Nsa(dp3159
VUserName
p3160
V@@8038e34438663e2ebaba83adc6e940a2744dc5e320a84d9f77ba79f259528751
p3161
sVCity
p3162
g48
sVDisplayName
p3163
g48
sVUniFriend
p3164
I0
sg3040
(dp3165
g36
g31
sg38
g41
sg40
g41
sg42
I0
sg67
I0
sg43
(lp3166
sg45
g48
sg47
g48
sg77
I1835068021
sg50
I0
sg51
I0
sg52
g41
sg54
g41
sg55
g48
sg56
g48
sg59
I0
sg60
I0
sg61
I1
sg62
g41
sg63
I0
sg65
I145
sg66
I0
sg64
I1
sg68
g41
sg69
g3043
sg71
I0
sg72
g3044
sg74
g48
sg75
g3045
sg49
I1
sg78
I0
sg79
I0
ssVMemberList
p3167
(lp3168
sVPYQuanPin
p3169
Vgongxinhehuadongshujubeijingtongshiqun
p3170
sVRemarkPYInitial
p3171
g48
sVSex
p3172
I0
sVAppAccountFlag
p3173
I0
sVVerifyFlag
p3174
I0
sVProvince
p3175
g48
sVKeyWord
p3176
g48
sVRemarkName
p3177
g48
sVPYInitial
p3178
VGXHHDSJBJTSQ
p3179
sVIsOwner
p3180
I0
sVChatRoomId
p3181
I0
sVHideInputBarFlag
p3182
I0
sVEncryChatRoomId
p3183
g48
sVAttrStatus
p3184
I0
sVSnsFlag
p3185
I0
sVMemberCount
p3186
I0
sVOwnerUin
p3187
I0
sVAlias
p3188
g48
sVSignature
p3189
g48
sVContactFlag
p3190
I1
sVNickName
p3191
V\u516c\u4fe1\u548c\u534e\u4e1c\u6570\u636e\u5317\u4eac\u540c\u4e8b\u7fa4
p3192
sVRemarkPYQuanPin
p3193
g48
sVHeadImgUrl
p3194
V/cgi-bin/mmwebwx-bin/webwxgetheadimg?seq=648848866&username=@@8038e34438663e2ebaba83adc6e940a2744dc5e320a84d9f77ba79f259528751&skey=@crypt_870a16cf_8c26e3b8f2f48a5406ce444d0927cfd8
p3195
sVUin
p3196
I0
sVStarFriend
p3197
I0
sVStatues
p3198
I0
sg3078
Nsa(dp3199
VUserName
p3200
V@@2af718b088708d8c116bfe0ac809125356de2a1477458c0a7df8ebdefde2abae
p3201
sVCity
p3202
g48
sVDisplayName
p3203
g48
sVUniFriend
p3204
I0
sg3040
(dp3205
g36
g31
sg38
g41
sg40
g41
sg42
I0
sg67
I0
sg43
(lp3206
sg45
g48
sg47
g48
sg77
I1835068021
sg50
I0
sg51
I0
sg52
g41
sg54
g41
sg55
g48
sg56
g48
sg59
I0
sg60
I0
sg61
I1
sg62
g41
sg63
I0
sg65
I145
sg66
I0
sg64
I1
sg68
g41
sg69
g3043
sg71
I0
sg72
g3044
sg74
g48
sg75
g3045
sg49
I1
sg78
I0
sg79
I0
ssVMemberList
p3207
(lp3208
sVPYQuanPin
p3209
Vqingqian12womendegushi
p3210
sVRemarkPYInitial
p3211
g48
sVSex
p3212
I0
sVAppAccountFlag
p3213
I0
sVVerifyFlag
p3214
I0
sVProvince
p3215
g48
sVKeyWord
p3216
g48
sVRemarkName
p3217
g48
sVPYInitial
p3218
VQQ12WMDGS
p3219
sVIsOwner
p3220
I0
sVChatRoomId
p3221
I0
sVHideInputBarFlag
p3222
I0
sVEncryChatRoomId
p3223
g48
sVAttrStatus
p3224
I0
sVSnsFlag
p3225
I0
sVMemberCount
p3226
I0
sVOwnerUin
p3227
I0
sVAlias
p3228
g48
sVSignature
p3229
g48
sVContactFlag
p3230
I1
sVNickName
p3231
V\u60c5\u727512\u6211\u4eec\u7684\u6545\u4e8b
p3232
sVRemarkPYQuanPin
p3233
g48
sVHeadImgUrl
p3234
V/cgi-bin/mmwebwx-bin/webwxgetheadimg?seq=660478389&username=@@2af718b088708d8c116bfe0ac809125356de2a1477458c0a7df8ebdefde2abae&skey=@crypt_870a16cf_8c26e3b8f2f48a5406ce444d0927cfd8
p3235
sVUin
p3236
I0
sVStarFriend
p3237
I0
sVStatues
p3238
I0
sg3078
Nsa(dp3239
VUserName
p3240
V@@b576a0a658461dfa3d31e840d1f5b4eb80db92bacdedf8cdd7da92d1be455178
p3241
sVCity
p3242
g48
sVDisplayName
p3243
g48
sVUniFriend
p3244
I0
sg3040
(dp3245
g36
g31
sg38
g41
sg40
g41
sg42
I0
sg67
I0
sg43
(lp3246
sg45
g48
sg47
g48
sg77
I1835068021
sg50
I0
sg51
I0
sg52
g41
sg54
g41
sg55
g48
sg56
g48
sg59
I0
sg60
I0
sg61
I1
sg62
g41
sg63
I0
sg65
I145
sg66
I0
sg64
I1
sg68
g41
sg69
g3043
sg71
I0
sg72
g3044
sg74
g48
sg75
g3045
sg49
I1
sg78
I0
sg79
I0
ssVMemberList
p3247
(lp3248
sVPYQuanPin
p3249
Vbaobaoqun
p3250
sVRemarkPYInitial
p3251
g48
sVSex
p3252
I0
sVAppAccountFlag
p3253
I0
sVVerifyFlag
p3254
I0
sVProvince
p3255
g48
sVKeyWord
p3256
g48
sVRemarkName
p3257
g48
sVPYInitial
p3258
VBBQ
p3259
sVIsOwner
p3260
I0
sVChatRoomId
p3261
I0
sVHideInputBarFlag
p3262
I0
sVEncryChatRoomId
p3263
g48
sVAttrStatus
p3264
I0
sVSnsFlag
p3265
I0
sVMemberCount
p3266
I0
sVOwnerUin
p3267
I0
sVAlias
p3268
g48
sVSignature
p3269
g48
sVContactFlag
p3270
I1
sVNickName
p3271
V\u5b9d\u5b9d\u7fa4
p3272
sVRemarkPYQuanPin
p3273
g48
sVHeadImgUrl
p3274
V/cgi-bin/mmwebwx-bin/webwxgetheadimg?seq=660452119&username=@@b576a0a658461dfa3d31e840d1f5b4eb80db92bacdedf8cdd7da92d1be455178&skey=@crypt_870a16cf_8c26e3b8f2f48a5406ce444d0927cfd8
p3275
sVUin
p3276
I0
sVStarFriend
p3277
I0
sVStatues
p3278
I1
sg3078
Nsa(dp3279
VUserName
p3280
V@@e513ea5445220b0ddb357b3c9a5b86bcd915aca03281b5c3b85f93763f187e27
p3281
sVCity
p3282
g48
sVDisplayName
p3283
g48
sVUniFriend
p3284
I0
sg3040
(dp3285
g36
g31
sg38
g41
sg40
g41
sg42
I0
sg67
I0
sg43
(lp3286
sg45
g48
sg47
g48
sg77
I1835068021
sg50
I0
sg51
I0
sg52
g41
sg54
g41
sg55
g48
sg56
g48
sg59
I0
sg60
I0
sg61
I1
sg62
g41
sg63
I0
sg65
I145
sg66
I0
sg64
I1
sg68
g41
sg69
g3043
sg71
I0
sg72
g3044
sg74
g48
sg75
g3045
sg49
I1
sg78
I0
sg79
I0
ssVMemberList
p3287
(lp3288
sVPYQuanPin
p3289
Vspanclassemojiemoji1f3e1spanwearefamuleispanclassemojiemoji1f4b0span
p3290
sVRemarkPYInitial
p3291
g48
sVSex
p3292
I0
sVAppAccountFlag
p3293
I0
sVVerifyFlag
p3294
I0
sVProvince
p3295
g48
sVKeyWord
p3296
g48
sVRemarkName
p3297
g48
sVPYInitial
p3298
VSPANCLASSEMOJIEMOJI1F3E1SPANWEAREFMLSPANCLASSEMOJIEMOJI1F4B0SPAN
p3299
sVIsOwner
p3300
I0
sVChatRoomId
p3301
I0
sVHideInputBarFlag
p3302
I0
sVEncryChatRoomId
p3303
g48
sVAttrStatus
p3304
I0
sVSnsFlag
p3305
I0
sVMemberCount
p3306
I0
sVOwnerUin
p3307
I0
sVAlias
p3308
g48
sVSignature
p3309
g48
sVContactFlag
p3310
I1
sVNickName
p3311
V\U0001f3e1we are \u4f10\u6728\u7d2f\U0001f4b0
p3312
sVRemarkPYQuanPin
p3313
g48
sVHeadImgUrl
p3314
V/cgi-bin/mmwebwx-bin/webwxgetheadimg?seq=660433955&username=@@e513ea5445220b0ddb357b3c9a5b86bcd915aca03281b5c3b85f93763f187e27&skey=@crypt_870a16cf_8c26e3b8f2f48a5406ce444d0927cfd8
p3315
sVUin
p3316
I0
sVStarFriend
p3317
I0
sVStatues
p3318
I0
sg3078
Nsa(dp3319
VUserName
p3320
V@@52b7d5f2d4af2269c2584cf91bf67a2d6b845bffb0f3c5885558d18004a3babf
p3321
sVCity
p3322
g48
sVDisplayName
p3323
g48
sVUniFriend
p3324
I0
sg3040
(dp3325
g36
g31
sg38
g41
sg40
g41
sg42
I0
sg67
I0
sg43
(lp3326
sg45
g48
sg47
g48
sg77
I1835068021
sg50
I0
sg51
I0
sg52
g41
sg54
g41
sg55
g48
sg56
g48
sg59
I0
sg60
I0
sg61
I1
sg62
g41
sg63
I0
sg65
I145
sg66
I0
sg64
I1
sg68
g41
sg69
g3043
sg71
I0
sg72
g3044
sg74
g48
sg75
g3045
sg49
I1
sg78
I0
sg79
I0
ssVMemberList
p3327
(lp3328
sVPYQuanPin
p3329
Vqinyouqun
p3330
sVRemarkPYInitial
p3331
g48
sVSex
p3332
I0
sVAppAccountFlag
p3333
I0
sVVerifyFlag
p3334
I0
sVProvince
p3335
g48
sVKeyWord
p3336
g48
sVRemarkName
p3337
g48
sVPYInitial
p3338
VQYQ
p3339
sVIsOwner
p3340
I0
sVChatRoomId
p3341
I0
sVHideInputBarFlag
p3342
I0
sVEncryChatRoomId
p3343
g48
sVAttrStatus
p3344
I0
sVSnsFlag
p3345
I0
sVMemberCount
p3346
I0
sVOwnerUin
p3347
I0
sVAlias
p3348
g48
sVSignature
p3349
g48
sVContactFlag
p3350
I1
sVNickName
p3351
V\u4eb2\u53cb\u7fa4
p3352
sVRemarkPYQuanPin
p3353
g48
sVHeadImgUrl
p3354
V/cgi-bin/mmwebwx-bin/webwxgetheadimg?seq=660471519&username=@@52b7d5f2d4af2269c2584cf91bf67a2d6b845bffb0f3c5885558d18004a3babf&skey=@crypt_870a16cf_8c26e3b8f2f48a5406ce444d0927cfd8
p3355
sVUin
p3356
I0
sVStarFriend
p3357
I0
sVStatues
p3358
I0
sg3078
Nsa(dp3359
VUserName
p3360
V@@0091bf4706597d1157c95b29ffde5baf1c2ca8f5fe8297765e3e13b642d30a06
p3361
sVCity
p3362
g48
sVDisplayName
p3363
g48
sVUniFriend
p3364
I0
sg3040
(dp3365
g36
g31
sg38
g41
sg40
g41
sg42
I0
sg67
I0
sg43
(lp3366
sg45
g48
sg47
g48
sg77
I1835068021
sg50
I0
sg51
I0
sg52
g41
sg54
g41
sg55
g48
sg56
g48
sg59
I0
sg60
I0
sg61
I1
sg62
g41
sg63
I0
sg65
I145
sg66
I0
sg64
I1
sg68
g41
sg69
g3043
sg71
I0
sg72
g3044
sg74
g48
sg75
g3045
sg49
I1
sg78
I0
sg79
I0
ssVMemberList
p3367
(lp3368
sVPYQuanPin
p3369
VteamMiracle
p3370
sVRemarkPYInitial
p3371
g48
sVSex
p3372
I0
sVAppAccountFlag
p3373
I0
sVVerifyFlag
p3374
I0
sVProvince
p3375
g48
sVKeyWord
p3376
g48
sVRemarkName
p3377
g48
sVPYInitial
p3378
VTEAMMIRACLE
p3379
sVIsOwner
p3380
I0
sVChatRoomId
p3381
I0
sVHideInputBarFlag
p3382
I0
sVEncryChatRoomId
p3383
g48
sVAttrStatus
p3384
I0
sVSnsFlag
p3385
I0
sVMemberCount
p3386
I0
sVOwnerUin
p3387
I0
sVAlias
p3388
g48
sVSignature
p3389
g48
sVContactFlag
p3390
I1
sVNickName
p3391
Vteam Miracle
p3392
sVRemarkPYQuanPin
p3393
g48
sVHeadImgUrl
p3394
V/cgi-bin/mmwebwx-bin/webwxgetheadimg?seq=660428943&username=@@0091bf4706597d1157c95b29ffde5baf1c2ca8f5fe8297765e3e13b642d30a06&skey=@crypt_870a16cf_8c26e3b8f2f48a5406ce444d0927cfd8
p3395
sVUin
p3396
I0
sVStarFriend
p3397
I0
sVStatues
p3398
I0
sg3078
Nsa(dp3399
VUserName
p3400
V@@a0efc18939340beef3eefa4da3db7e2101ba920d6951a9b9f11ef00acc8480e0
p3401
sVCity
p3402
g48
sVDisplayName
p3403
g48
sVUniFriend
p3404
I0
sg3040
(dp3405
g36
g31
sg38
g41
sg40
g41
sg42
I0
sg67
I0
sg43
(lp3406
sg45
g48
sg47
g48
sg77
I1835068021
sg50
I0
sg51
I0
sg52
g41
sg54
g41
sg55
g48
sg56
g48
sg59
I0
sg60
I0
sg61
I1
sg62
g41
sg63
I0
sg65
I145
sg66
I0
sg64
I1
sg68
g41
sg69
g3043
sg71
I0
sg72
g3044
sg74
g48
sg75
g3045
sg49
I1
sg78
I0
sg79
I0
ssVMemberList
p3407
(lp3408
sVPYQuanPin
p3409
V?yishengxianyuyishengxianyu?
p3410
sVRemarkPYInitial
p3411
g48
sVSex
p3412
I0
sVAppAccountFlag
p3413
I0
sVVerifyFlag
p3414
I0
sVProvince
p3415
g48
sVKeyWord
p3416
g48
sVRemarkName
p3417
g48
sVPYInitial
p3418
V?YSXYYSXY?
p3419
sVIsOwner
p3420
I0
sVChatRoomId
p3421
I0
sVHideInputBarFlag
p3422
I0
sVEncryChatRoomId
p3423
g48
sVAttrStatus
p3424
I0
sVSnsFlag
p3425
I0
sVMemberCount
p3426
I0
sVOwnerUin
p3427
I0
sVAlias
p3428
g48
sVSignature
p3429
g48
sVContactFlag
p3430
I1
sVNickName
p3431
V\ua9c1 \u4e00\u58f0\u54b8\u9c7c\uff0c\u4e00\u751f\u54b8\u9c7c \ua9c2
p3432
sVRemarkPYQuanPin
p3433
g48
sVHeadImgUrl
p3434
V/cgi-bin/mmwebwx-bin/webwxgetheadimg?seq=660440927&username=@@a0efc18939340beef3eefa4da3db7e2101ba920d6951a9b9f11ef00acc8480e0&skey=@crypt_870a16cf_8c26e3b8f2f48a5406ce444d0927cfd8
p3435
sVUin
p3436
I0
sVStarFriend
p3437
I0
sVStatues
p3438
I0
sg3078
NsasS'nickName'
p3439
g3044
sS'mpList'
p3440
(lp3441
(dp3442
VUserName
p3443
V@fc6f9455d675cb1bc4fb45cb9f04f538
p3444
sVCity
p3445
V\u671d\u9633
p3446
sVDisplayName
p3447
g48
sVUniFriend
p3448
I0
sVMemberList
p3449
(lp3450
sVPYQuanPin
p3451
Vguojiarenwenlishi
p3452
sVRemarkPYInitial
p3453
g48
sVUin
p3454
I0
sVAppAccountFlag
p3455
I0
sVVerifyFlag
p3456
I24
sVProvince
p3457
V\u5317\u4eac
p3458
sVKeyWord
p3459
Vgh_
p3460
sVRemarkName
p3461
g48
sVPYInitial
p3462
VGJRWLS
p3463
sVChatRoomId
p3464
I0
sVIsOwner
p3465
I0
sVHideInputBarFlag
p3466
I0
sVEncryChatRoomId
p3467
g48
sVAttrStatus
p3468
I0
sVSnsFlag
p3469
I0
sVMemberCount
p3470
I0
sVOwnerUin
p3471
I0
sVAlias
p3472
g48
sVSignature
p3473
V\u4eba\u6c11\u65e5\u62a5\u793e\u4e3b\u7ba1\u4e3b\u529e\uff0c\u539f\u540d\u300a\u6587\u53f2\u53c2\u8003\u300b\uff0c\u201c\u771f\u76f8\u3001\u8da3\u5473\u3001\u826f\u77e5\u201d\uff0c\u4e3a\u5b66\u672f\u754c\u642d\u5efa\u8bdd\u8bed\u5e73\u53f0\uff0c\u4e3a\u65b0\u9510\u8005\u63d0\u4f9b\u601d\u60f3\u9635\u5730\uff0c\u4e3a\u6587\u53f2\u7231\u597d\u8005\u8425\u9020\u7cbe\u795e\u5bb6\u56ed\u3002
p3474
sVContactFlag
p3475
I3
sVNickName
p3476
V\u56fd\u5bb6\u4eba\u6587\u5386\u53f2
p3477
sVRemarkPYQuanPin
p3478
g48
sVHeadImgUrl
p3479
V/cgi-bin/mmwebwx-bin/webwxgeticon?seq=628401427&username=@fc6f9455d675cb1bc4fb45cb9f04f538&skey=@crypt_870a16cf_8c26e3b8f2f48a5406ce444d0927cfd8
p3480
sVSex
p3481
I0
sVStarFriend
p3482
I0
sVStatues
p3483
I0
sa(dp3484
VUserName
p3485
V@95ace5d1ee46c703ba1ee1f2008928bd
p3486
sVCity
p3487
g48
sVDisplayName
p3488
g48
sVUniFriend
p3489
I0
sVMemberList
p3490
(lp3491
sVPYQuanPin
p3492
VQAFzhongwenzhan
p3493
sVRemarkPYInitial
p3494
g48
sVUin
p3495
I0
sVAppAccountFlag
p3496
I0
sVVerifyFlag
p3497
I8
sVProvince
p3498
g48
sVKeyWord
p3499
Vgh_
p3500
sVRemarkName
p3501
g48
sVPYInitial
p3502
VQAFZWZ
p3503
sVChatRoomId
p3504
I0
sVIsOwner
p3505
I0
sVHideInputBarFlag
p3506
I0
sVEncryChatRoomId
p3507
g48
sVAttrStatus
p3508
I0
sVSnsFlag
p3509
I0
sVMemberCount
p3510
I0
sVOwnerUin
p3511
I0
sVAlias
p3512
g48
sVSignature
p3513
V\u56fd\u5185\u6700\u5177\u5f71\u54cd\u529b\u7684\u540c\u5fd7\u5f71\u89c6\u5b57\u5e55\u5236\u4f5c\u8bba\u575b\uff0c\u66f4\u591a\u7cbe\u5f69\u5185\u5bb9\u6b22\u8fce\u8bbf\u95ee\u5b98\u65b9\u7f51\u7ad9\uff1aqafone.co \u6216\u5173\u6ce8\u5b98\u65b9\u5fae\u535a\uff1aQAF\u4e2d\u6587\u7ad9\uff01
p3514
sVContactFlag
p3515
I3
sVNickName
p3516
VQAF\u4e2d\u6587\u7ad9
p3517
sVRemarkPYQuanPin
p3518
g48
sVHeadImgUrl
p3519
V/cgi-bin/mmwebwx-bin/webwxgeticon?seq=648780298&username=@95ace5d1ee46c703ba1ee1f2008928bd&skey=@crypt_870a16cf_8c26e3b8f2f48a5406ce444d0927cfd8
p3520
sVSex
p3521
I0
sVStarFriend
p3522
I0
sVStatues
p3523
I0
sa(dp3524
VUserName
p3525
V@36e81eb368d0e1f2041ed72b0b582bea
p3526
sVCity
p3527
g48
sVDisplayName
p3528
g48
sVUniFriend
p3529
I0
sVMemberList
p3530
(lp3531
sVPYQuanPin
p3532
Vzazheng
p3533
sVRemarkPYInitial
p3534
g48
sVUin
p3535
I0
sVAppAccountFlag
p3536
I0
sVVerifyFlag
p3537
I24
sVProvince
p3538
V\u5317\u4eac
p3539
sVKeyWord
p3540
Vgh_
p3541
sVRemarkName
p3542
g48
sVPYInitial
p3543
VZZ
p3544
sVChatRoomId
p3545
I0
sVIsOwner
p3546
I0
sVHideInputBarFlag
p3547
I0
sVEncryChatRoomId
p3548
g48
sVAttrStatus
p3549
I0
sVSnsFlag
p3550
I0
sVMemberCount
p3551
I0
sVOwnerUin
p3552
I0
sVAlias
p3553
g48
sVSignature
p3554
V\u8111\u6d1e\u6307\u5357\uff0c\u4eba\u751f\u6307\u5317\u3002
p3555
sVContactFlag
p3556
I3
sVNickName
p3557
V\u548b\u6574
p3558
sVRemarkPYQuanPin
p3559
g48
sVHeadImgUrl
p3560
V/cgi-bin/mmwebwx-bin/webwxgeticon?seq=628401439&username=@36e81eb368d0e1f2041ed72b0b582bea&skey=@crypt_870a16cf_8c26e3b8f2f48a5406ce444d0927cfd8
p3561
sVSex
p3562
I0
sVStarFriend
p3563
I0
sVStatues
p3564
I0
sa(dp3565
VUserName
p3566
V@7eb5c3df294d2ba058d30bbd656f461f
p3567
sVCity
p3568
V\u671d\u9633
p3569
sVDisplayName
p3570
g48
sVUniFriend
p3571
I0
sVMemberList
p3572
(lp3573
sVPYQuanPin
p3574
VGQshiyanshi
p3575
sVRemarkPYInitial
p3576
g48
sVUin
p3577
I0
sVAppAccountFlag
p3578
I0
sVVerifyFlag
p3579
I24
sVProvince
p3580
V\u5317\u4eac
p3581
sVKeyWord
p3582
Vgh_
p3583
sVRemarkName
p3584
g48
sVPYInitial
p3585
VGQSYS
p3586
sVChatRoomId
p3587
I0
sVIsOwner
p3588
I0
sVHideInputBarFlag
p3589
I0
sVEncryChatRoomId
p3590
g48
sVAttrStatus
p3591
I0
sVSnsFlag
p3592
I0
sVMemberCount
p3593
I0
sVOwnerUin
p3594
I0
sVAlias
p3595
g48
sVSignature
p3596
V\u6709\u578b\u6709\u6b3e\uff0c\u667a\u8da3\u4e0d\u51e1
p3597
sVContactFlag
p3598
I3
sVNickName
p3599
VGQ\u5b9e\u9a8c\u5ba4
p3600
sVRemarkPYQuanPin
p3601
g48
sVHeadImgUrl
p3602
V/cgi-bin/mmwebwx-bin/webwxgeticon?seq=632610432&username=@7eb5c3df294d2ba058d30bbd656f461f&skey=@crypt_870a16cf_8c26e3b8f2f48a5406ce444d0927cfd8
p3603
sVSex
p3604
I0
sVStarFriend
p3605
I0
sVStatues
p3606
I0
sa(dp3607
VUserName
p3608
V@df587eeb1f45620e93d1e55c9f919863e688ea14bc75524e5609ce34313b23e3
p3609
sVCity
p3610
g48
sVDisplayName
p3611
g48
sVUniFriend
p3612
I0
sVMemberList
p3613
(lp3614
sVPYQuanPin
p3615
Vlengxiaohuajingxuan
p3616
sVRemarkPYInitial
p3617
g48
sVUin
p3618
I0
sVAppAccountFlag
p3619
I0
sVVerifyFlag
p3620
I24
sVProvince
p3621
V\u5317\u4eac
p3622
sVKeyWord
p3623
g48
sVRemarkName
p3624
g48
sVPYInitial
p3625
VLXHJX
p3626
sVChatRoomId
p3627
I0
sVIsOwner
p3628
I0
sVHideInputBarFlag
p3629
I0
sVEncryChatRoomId
p3630
g48
sVAttrStatus
p3631
I98307
sVSnsFlag
p3632
I0
sVMemberCount
p3633
I0
sVOwnerUin
p3634
I0
sVAlias
p3635
g48
sVSignature
p3636
V\u641e\u7b11\u5927\u5947\u8469\uff0c\u5410\u69fd\u8001\u4e13\u5bb6\uff0c\u8ba4\u771f\u8bb2\u7b11\u8bdd\uff0c\u51b7\u54e5\u5e05\u6389\u6e23\uff01\u5fae\u535a\u4e0a\u7684\u641e\u7b11\u5927\u5496 @\u51b7\u7b11\u8bdd\u7cbe\u9009 \u5c31\u662f\u6211\uff0c\u522b\u65e0\u4e8c\u5bb6\uff01
p3637
sVContactFlag
p3638
I3
sVNickName
p3639
V\u51b7\u7b11\u8bdd\u7cbe\u9009
p3640
sVRemarkPYQuanPin
p3641
g48
sVHeadImgUrl
p3642
V/cgi-bin/mmwebwx-bin/webwxgeticon?seq=930052&username=@df587eeb1f45620e93d1e55c9f919863e688ea14bc75524e5609ce34313b23e3&skey=@crypt_870a16cf_8c26e3b8f2f48a5406ce444d0927cfd8
p3643
sVSex
p3644
I0
sVStarFriend
p3645
I0
sVStatues
p3646
I0
sa(dp3647
VUserName
p3648
V@d7260f91d53510eabc6a8df33abe4b0d
p3649
sVCity
p3650
V\u671d\u9633
p3651
sVDisplayName
p3652
g48
sVUniFriend
p3653
I0
sVMemberList
p3654
(lp3655
sVPYQuanPin
p3656
Vdoubandianying
p3657
sVRemarkPYInitial
p3658
g48
sVUin
p3659
I0
sVAppAccountFlag
p3660
I0
sVVerifyFlag
p3661
I24
sVProvince
p3662
V\u5317\u4eac
p3663
sVKeyWord
p3664
Vgh_
p3665
sVRemarkName
p3666
g48
sVPYInitial
p3667
VDBDY
p3668
sVChatRoomId
p3669
I0
sVIsOwner
p3670
I0
sVHideInputBarFlag
p3671
I0
sVEncryChatRoomId
p3672
g48
sVAttrStatus
p3673
I0
sVSnsFlag
p3674
I0
sVMemberCount
p3675
I0
sVOwnerUin
p3676
I0
sVAlias
p3677
g48
sVSignature
p3678
V\u53d1\u73b0\u597d\u7535\u5f71\uff0c\u5206\u4eab\u770b\u7535\u5f71\u7684\u4e50\u8da3\u3002
p3679
sVContactFlag
p3680
I3
sVNickName
p3681
V\u8c46\u74e3\u7535\u5f71
p3682
sVRemarkPYQuanPin
p3683
g48
sVHeadImgUrl
p3684
V/cgi-bin/mmwebwx-bin/webwxgeticon?seq=628401422&username=@d7260f91d53510eabc6a8df33abe4b0d&skey=@crypt_870a16cf_8c26e3b8f2f48a5406ce444d0927cfd8
p3685
sVSex
p3686
I0
sVStarFriend
p3687
I0
sVStatues
p3688
I0
sa(dp3689
VUserName
p3690
V@5c6e75928c3210ac317314f85ca6a137
p3691
sVCity
p3692
V\u897f\u57ce
p3693
sVDisplayName
p3694
g48
sVUniFriend
p3695
I0
sVMemberList
p3696
(lp3697
sVPYQuanPin
p3698
Vcankaoxiaoxi
p3699
sVRemarkPYInitial
p3700
g48
sVUin
p3701
I0
sVAppAccountFlag
p3702
I0
sVVerifyFlag
p3703
I24
sVProvince
p3704
V\u5317\u4eac
p3705
sVKeyWord
p3706
Vgh_
p3707
sVRemarkName
p3708
g48
sVPYInitial
p3709
VCKXX
p3710
sVChatRoomId
p3711
I0
sVIsOwner
p3712
I0
sVHideInputBarFlag
p3713
I0
sVEncryChatRoomId
p3714
g48
sVAttrStatus
p3715
I0
sVSnsFlag
p3716
I0
sVMemberCount
p3717
I0
sVOwnerUin
p3718
I0
sVAlias
p3719
g48
sVSignature
p3720
V\u7eb5\u89c8\u5916\u56fd\u5a92\u4f53\u6bcf\u65e5\u62a5\u9053\u7cbe\u9009
p3721
sVContactFlag
p3722
I3
sVNickName
p3723
V\u53c2\u8003\u6d88\u606f
p3724
sVRemarkPYQuanPin
p3725
g48
sVHeadImgUrl
p3726
V/cgi-bin/mmwebwx-bin/webwxgeticon?seq=635750147&username=@5c6e75928c3210ac317314f85ca6a137&skey=@crypt_870a16cf_8c26e3b8f2f48a5406ce444d0927cfd8
p3727
sVSex
p3728
I0
sVStarFriend
p3729
I0
sVStatues
p3730
I0
sa(dp3731
VUserName
p3732
V@d52ff2007b1ab916f4026693085048285c8a3928a21a527ba9a1f8cdc916ba1e
p3733
sVCity
p3734
V\u671d\u9633
p3735
sVDisplayName
p3736
g48
sVUniFriend
p3737
I0
sVMemberList
p3738
(lp3739
sVPYQuanPin
p3740
Vguokewang
p3741
sVRemarkPYInitial
p3742
g48
sVUin
p3743
I0
sVAppAccountFlag
p3744
I0
sVVerifyFlag
p3745
I24
sVProvince
p3746
V\u5317\u4eac
p3747
sVKeyWord
p3748
g48
sVRemarkName
p3749
g48
sVPYInitial
p3750
VGKW
p3751
sVChatRoomId
p3752
I0
sVIsOwner
p3753
I0
sVHideInputBarFlag
p3754
I0
sVEncryChatRoomId
p3755
g48
sVAttrStatus
p3756
I0
sVSnsFlag
p3757
I0
sVMemberCount
p3758
I0
sVOwnerUin
p3759
I0
sVAlias
p3760
g48
sVSignature
p3761
V\u679c\u58f3\u7f51\uff08Guokr.com\uff09\u662f\u5f00\u653e\u3001\u591a\u5143\u7684\u6cdb\u79d1\u6280\u5174\u8da3\u793e\u533a\u3002
p3762
sVContactFlag
p3763
I3
sVNickName
p3764
V\u679c\u58f3\u7f51
p3765
sVRemarkPYQuanPin
p3766
g48
sVHeadImgUrl
p3767
V/cgi-bin/mmwebwx-bin/webwxgeticon?seq=620904417&username=@d52ff2007b1ab916f4026693085048285c8a3928a21a527ba9a1f8cdc916ba1e&skey=@crypt_870a16cf_8c26e3b8f2f48a5406ce444d0927cfd8
p3768
sVSex
p3769
I0
sVStarFriend
p3770
I0
sVStatues
p3771
I0
sa(dp3772
VUserName
p3773
V@0b9cf265b1ca19a5012a52af62b9d5f5
p3774
sVCity
p3775
V\u6df1\u5733
p3776
sVDisplayName
p3777
g48
sVUniFriend
p3778
I0
sVMemberList
p3779
(lp3780
sVPYQuanPin
p3781
Vweixinhongbao
p3782
sVRemarkPYInitial
p3783
g48
sVUin
p3784
I0
sVAppAccountFlag
p3785
I0
sVVerifyFlag
p3786
I24
sVProvince
p3787
V\u5e7f\u4e1c
p3788
sVKeyWord
p3789
Vgh_
p3790
sVRemarkName
p3791
g48
sVPYInitial
p3792
VWXHB
p3793
sVChatRoomId
p3794
I0
sVIsOwner
p3795
I0
sVHideInputBarFlag
p3796
I0
sVEncryChatRoomId
p3797
g48
sVAttrStatus
p3798
I0
sVSnsFlag
p3799
I0
sVMemberCount
p3800
I0
sVOwnerUin
p3801
I0
sVAlias
p3802
g48
sVSignature
p3803
V\u5fae\u4fe1\u7ea2\u5305\u5b98\u65b9\u5e73\u53f0\uff0c\u4e3a\u4f60\u63d0\u4f9b\u5feb\u6377\u5b89\u5168\u597d\u73a9\u7684\u53d1\u7ea2\u5305\u670d\u52a1
p3804
sVContactFlag
p3805
I1
sVNickName
p3806
V\u5fae\u4fe1\u7ea2\u5305
p3807
sVRemarkPYQuanPin
p3808
g48
sVHeadImgUrl
p3809
V/cgi-bin/mmwebwx-bin/webwxgeticon?seq=621932586&username=@0b9cf265b1ca19a5012a52af62b9d5f5&skey=@crypt_870a16cf_8c26e3b8f2f48a5406ce444d0927cfd8
p3810
sVSex
p3811
I0
sVStarFriend
p3812
I0
sVStatues
p3813
I0
sa(dp3814
VUserName
p3815
V@3fe35dbc7e3b5c871352225fc577b293
p3816
sVCity
p3817
V\u671d\u9633
p3818
sVDisplayName
p3819
g48
sVUniFriend
p3820
I0
sVMemberList
p3821
(lp3822
sVPYQuanPin
p3823
Vdaxianggonghui
p3824
sVRemarkPYInitial
p3825
g48
sVUin
p3826
I0
sVAppAccountFlag
p3827
I0
sVVerifyFlag
p3828
I24
sVProvince
p3829
V\u5317\u4eac
p3830
sVKeyWord
p3831
Vgh_
p3832
sVRemarkName
p3833
g48
sVPYInitial
p3834
VDXGH
p3835
sVChatRoomId
p3836
I0
sVIsOwner
p3837
I0
sVHideInputBarFlag
p3838
I0
sVEncryChatRoomId
p3839
g48
sVAttrStatus
p3840
I0
sVSnsFlag
p3841
I0
sVMemberCount
p3842
I0
sVOwnerUin
p3843
I0
sVAlias
p3844
g48
sVSignature
p3845
V\u7cbe\u795e\u98df\u7cae\u3002
p3846
sVContactFlag
p3847
I3
sVNickName
p3848
V\u5927\u8c61\u516c\u4f1a
p3849
sVRemarkPYQuanPin
p3850
g48
sVHeadImgUrl
p3851
V/cgi-bin/mmwebwx-bin/webwxgeticon?seq=628400149&username=@3fe35dbc7e3b5c871352225fc577b293&skey=@crypt_870a16cf_8c26e3b8f2f48a5406ce444d0927cfd8
p3852
sVSex
p3853
I0
sVStarFriend
p3854
I0
sVStatues
p3855
I0
sa(dp3856
VUserName
p3857
V@440827f10ecdae29826cba4fd972b093302ad80b5311efb85c034bea211cc875
p3858
sVCity
p3859
V\u671d\u9633
p3860
sVDisplayName
p3861
g48
sVUniFriend
p3862
I0
sVMemberList
p3863
(lp3864
sVPYQuanPin
p3865
Vyidou
p3866
sVRemarkPYInitial
p3867
g48
sVUin
p3868
I0
sVAppAccountFlag
p3869
I0
sVVerifyFlag
p3870
I24
sVProvince
p3871
V\u5317\u4eac
p3872
sVKeyWord
p3873
g48
sVRemarkName
p3874
g48
sVPYInitial
p3875
VYD
p3876
sVChatRoomId
p3877
I0
sVIsOwner
p3878
I0
sVHideInputBarFlag
p3879
I0
sVEncryChatRoomId
p3880
g48
sVAttrStatus
p3881
I0
sVSnsFlag
p3882
I0
sVMemberCount
p3883
I0
sVOwnerUin
p3884
I0
sVAlias
p3885
g48
sVSignature
p3886
V\u65e5\u5e38\u751f\u6d3b\u4e2d\u7684\u767e\u79d1\u3001\u6587\u827a\u80cc\u540e\u7684\u5386\u53f2\uff0c\u70ed\u70b9\u6df1\u5904\u7684\u51b7\u77e5\u8bc6\u3002\u7528\u8f7b\u5e7d\u9ed8\u3001\u6709\u60c5\u8da3\u7684\u65b9\u5f0f\u4e00\u8d77\u6da8\u59ff\u52bf\u3001\u6b63\u4e09\u89c2\u3002
p3887
sVContactFlag
p3888
I3
sVNickName
p3889
V\u58f9\u8bfb
p3890
sVRemarkPYQuanPin
p3891
g48
sVHeadImgUrl
p3892
V/cgi-bin/mmwebwx-bin/webwxgeticon?seq=628400152&username=@440827f10ecdae29826cba4fd972b093302ad80b5311efb85c034bea211cc875&skey=@crypt_870a16cf_8c26e3b8f2f48a5406ce444d0927cfd8
p3893
sVSex
p3894
I0
sVStarFriend
p3895
I0
sVStatues
p3896
I0
sa(dp3897
VUserName
p3898
V@990a1f64c5343a409f5f52e8391bcec7
p3899
sVCity
p3900
V\u4e1c\u57ce
p3901
sVDisplayName
p3902
g48
sVUniFriend
p3903
I0
sVMemberList
p3904
(lp3905
sVPYQuanPin
p3906
Vxinjingbaoshupingzhoukan
p3907
sVRemarkPYInitial
p3908
g48
sVUin
p3909
I0
sVAppAccountFlag
p3910
I0
sVVerifyFlag
p3911
I24
sVProvince
p3912
V\u5317\u4eac
p3913
sVKeyWord
p3914
Vgh_
p3915
sVRemarkName
p3916
g48
sVPYInitial
p3917
VXJBSPZK
p3918
sVChatRoomId
p3919
I0
sVIsOwner
p3920
I0
sVHideInputBarFlag
p3921
I0
sVEncryChatRoomId
p3922
g48
sVAttrStatus
p3923
I0
sVSnsFlag
p3924
I0
sVMemberCount
p3925
I0
sVOwnerUin
p3926
I0
sVAlias
p3927
g48
sVSignature
p3928
V\u65b0\u4eac\u62a5\u4e66\u8bc4\u5468\u520a2003\u5e74\u521b\u520a\uff0c\u6bcf\u5468\u516d\u51fa\u7248\u53d1\u884c\uff0c\u53e3\u53f7\u662f\u201c\u9605\u8bfb\u9700\u8981\u4e3b\u5f20\u201d\u3002\u4e66\u8bc4\u5468\u520a\u6c14\u8d28\u662f\u4e25\u8083\u800c\u6709\u8da3\uff0c\u4e3b\u8981\u8bc4\u4ef7\u56fd\u5185\u5916\u51fa\u7248\u7684\u5927\u4f17\u7c7b\u4f18\u79c0\u56fe\u4e66\u3002
p3929
sVContactFlag
p3930
I3
sVNickName
p3931
V\u65b0\u4eac\u62a5\u4e66\u8bc4\u5468\u520a
p3932
sVRemarkPYQuanPin
p3933
g48
sVHeadImgUrl
p3934
V/cgi-bin/mmwebwx-bin/webwxgeticon?seq=632140146&username=@990a1f64c5343a409f5f52e8391bcec7&skey=@crypt_870a16cf_8c26e3b8f2f48a5406ce444d0927cfd8
p3935
sVSex
p3936
I0
sVStarFriend
p3937
I0
sVStatues
p3938
I0
sa(dp3939
VUserName
p3940
V@6384aebc67ba1fefeb66a76985cb7e21
p3941
sVCity
p3942
V\u6df1\u5733
p3943
sVDisplayName
p3944
g48
sVUniFriend
p3945
I0
sVMemberList
p3946
(lp3947
sVPYQuanPin
p3948
Vbuzhidoushu
p3949
sVRemarkPYInitial
p3950
g48
sVUin
p3951
I0
sVAppAccountFlag
p3952
I0
sVVerifyFlag
p3953
I8
sVProvince
p3954
V\u5e7f\u4e1c
p3955
sVKeyWord
p3956
Vgh_
p3957
sVRemarkName
p3958
g48
sVPYInitial
p3959
VBZDS
p3960
sVChatRoomId
p3961
I0
sVIsOwner
p3962
I0
sVHideInputBarFlag
p3963
I0
sVEncryChatRoomId
p3964
g48
sVAttrStatus
p3965
I0
sVSnsFlag
p3966
I0
sVMemberCount
p3967
I0
sVOwnerUin
p3968
I0
sVAlias
p3969
g48
sVSignature
p3970
V\u4e0d\u6b62\u8bfb\u4e66\uff0c\u8bfb\u4e66\u4e0d\u6b62\u3002\u55ef\u54fc\u3002
p3971
sVContactFlag
p3972
I3
sVNickName
p3973
V\u4e0d\u6b62\u8bfb\u4e66
p3974
sVRemarkPYQuanPin
p3975
g48
sVHeadImgUrl
p3976
V/cgi-bin/mmwebwx-bin/webwxgeticon?seq=629041612&username=@6384aebc67ba1fefeb66a76985cb7e21&skey=@crypt_870a16cf_8c26e3b8f2f48a5406ce444d0927cfd8
p3977
sVSex
p3978
I0
sVStarFriend
p3979
I0
sVStatues
p3980
I0
sa(dp3981
VUserName
p3982
V@47d9b509e338f59db8fab597e349a79a
p3983
sVCity
p3984
V\u4e5d\u9f99\u57ce\u533a
p3985
sVDisplayName
p3986
g48
sVUniFriend
p3987
I0
sVMemberList
p3988
(lp3989
sVPYQuanPin
p3990
Vjingcaidianying
p3991
sVRemarkPYInitial
p3992
g48
sVUin
p3993
I0
sVAppAccountFlag
p3994
I0
sVVerifyFlag
p3995
I8
sVProvince
p3996
V\u9999\u6e2f
p3997
sVKeyWord
p3998
Vgh_
p3999
sVRemarkName
p4000
g48
sVPYInitial
p4001
VJCDY
p4002
sVChatRoomId
p4003
I0
sVIsOwner
p4004
I0
sVHideInputBarFlag
p4005
I0
sVEncryChatRoomId
p4006
g48
sVAttrStatus
p4007
I0
sVSnsFlag
p4008
I0
sVMemberCount
p4009
I0
sVOwnerUin
p4010
I0
sVAlias
p4011
g48
sVSignature
p4012
V\u6c47\u96c6\u6700\u65b0\u7535\u5f71\u8d44\u8baf\u3001\u63a8\u8350\u5168\u7403\u597d\u7535\u5f71\u3001\u70ed\u95e8\u77ed\u7247\u3001\u5f71\u89c6\u539f\u58f0\u3002\u6bcf\u665a21\uff1a21\uff0c\u5f69\u5a18\u4e0e\u4f60\u4e0d\u89c1\u4e0d\u6563\u3002
p4013
sVContactFlag
p4014
I3
sVNickName
p4015
V\u7cbe\u5f69\u7535\u5f71
p4016
sVRemarkPYQuanPin
p4017
g48
sVHeadImgUrl
p4018
V/cgi-bin/mmwebwx-bin/webwxgeticon?seq=930897&username=@47d9b509e338f59db8fab597e349a79a&skey=@crypt_870a16cf_8c26e3b8f2f48a5406ce444d0927cfd8
p4019
sVSex
p4020
I0
sVStarFriend
p4021
I0
sVStatues
p4022
I0
sa(dp4023
VUserName
p4024
V@a9da9327fb18a37f52acc33a466e75c8
p4025
sVCity
p4026
V\u957f\u5b81
p4027
sVDisplayName
p4028
g48
sVUniFriend
p4029
I0
sVMemberList
p4030
(lp4031
sVPYQuanPin
p4032
Vduankushipin
p4033
sVRemarkPYInitial
p4034
g48
sVUin
p4035
I0
sVAppAccountFlag
p4036
I0
sVVerifyFlag
p4037
I24
sVProvince
p4038
V\u4e0a\u6d77
p4039
sVKeyWord
p4040
Vgh_
p4041
sVRemarkName
p4042
g48
sVPYInitial
p4043
VDKSP
p4044
sVChatRoomId
p4045
I0
sVIsOwner
p4046
I0
sVHideInputBarFlag
p4047
I0
sVEncryChatRoomId
p4048
g48
sVAttrStatus
p4049
I0
sVSnsFlag
p4050
I0
sVMemberCount
p4051
I0
sVOwnerUin
p4052
I0
sVAlias
p4053
g48
sVSignature
p4054
V\u53d1\u73b0\u3001\u5206\u4eab\u3001\u751f\u4ea7\u53c8\u77ed\u53c8\u9177\u7684\u89c6\u9891
p4055
sVContactFlag
p4056
I3
sVNickName
p4057
V\u77ed\u88e4\u89c6\u9891
p4058
sVRemarkPYQuanPin
p4059
g48
sVHeadImgUrl
p4060
V/cgi-bin/mmwebwx-bin/webwxgeticon?seq=628400155&username=@a9da9327fb18a37f52acc33a466e75c8&skey=@crypt_870a16cf_8c26e3b8f2f48a5406ce444d0927cfd8
p4061
sVSex
p4062
I0
sVStarFriend
p4063
I0
sVStatues
p4064
I0
sa(dp4065
VUserName
p4066
V@29f38c3a54b475fa37486d0b18824a2f
p4067
sVCity
p4068
V\u4e1c\u57ce
p4069
sVDisplayName
p4070
g48
sVUniFriend
p4071
I0
sVMemberList
p4072
(lp4073
sVPYQuanPin
p4074
Vcaihuoche
p4075
sVRemarkPYInitial
p4076
g48
sVUin
p4077
I0
sVAppAccountFlag
p4078
I0
sVVerifyFlag
p4079
I8
sVProvince
p4080
V\u5317\u4eac
p4081
sVKeyWord
p4082
Vgh_
p4083
sVRemarkName
p4084
g48
sVPYInitial
p4085
VCHC
p4086
sVChatRoomId
p4087
I0
sVIsOwner
p4088
I0
sVHideInputBarFlag
p4089
I0
sVEncryChatRoomId
p4090
g48
sVAttrStatus
p4091
I0
sVSnsFlag
p4092
I0
sVMemberCount
p4093
I0
sVOwnerUin
p4094
I0
sVAlias
p4095
g48
sVSignature
p4096
Vlooking ahead to the day you die .
p4097
sVContactFlag
p4098
I3
sVNickName
p4099
V\u731c\u706b\u8f66
p4100
sVRemarkPYQuanPin
p4101
g48
sVHeadImgUrl
p4102
V/cgi-bin/mmwebwx-bin/webwxgeticon?seq=633322225&username=@29f38c3a54b475fa37486d0b18824a2f&skey=@crypt_870a16cf_8c26e3b8f2f48a5406ce444d0927cfd8
p4103
sVSex
p4104
I0
sVStarFriend
p4105
I0
sVStatues
p4106
I0
sa(dp4107
VUserName
p4108
V@0608d7d11de839f14d840f19733bda4d
p4109
sVCity
p4110
V\u5e7f\u5dde
p4111
sVDisplayName
p4112
g48
sVUniFriend
p4113
I0
sVMemberList
p4114
(lp4115
sVPYQuanPin
p4116
VCITYZINE
p4117
sVRemarkPYInitial
p4118
g48
sVUin
p4119
I0
sVAppAccountFlag
p4120
I0
sVVerifyFlag
p4121
I24
sVProvince
p4122
V\u5e7f\u4e1c
p4123
sVKeyWord
p4124
Vgh_
p4125
sVRemarkName
p4126
g48
sVPYInitial
p4127
VCITYZINE
p4128
sVChatRoomId
p4129
I0
sVIsOwner
p4130
I0
sVHideInputBarFlag
p4131
I0
sVEncryChatRoomId
p4132
g48
sVAttrStatus
p4133
I0
sVSnsFlag
p4134
I0
sVMemberCount
p4135
I0
sVOwnerUin
p4136
I0
sVAlias
p4137
g48
sVSignature
p4138
V\u300a\u57ce\u5e02\u753b\u62a5\u300b\u5b98\u65b9\u8ba2\u9605\u53f7\uff0c\u5176\u4ed6\u90fd\u662f\u5047\u7684\u3002\u6211\u4eec\u628a\u8109\u57ce\u5e02\u9752\u5e74\u7684\u65b0\u9c9c\u5fd7\u8da3\uff0c\u5206\u4eab\u8df3\u8d77\u6765\u5c31\u591f\u5f97\u7740\u7684\u751f\u6d3b\u3002
p4139
sVContactFlag
p4140
I3
sVNickName
p4141
VCITYZINE
p4142
sVRemarkPYQuanPin
p4143
g48
sVHeadImgUrl
p4144
V/cgi-bin/mmwebwx-bin/webwxgeticon?seq=633322332&username=@0608d7d11de839f14d840f19733bda4d&skey=@crypt_870a16cf_8c26e3b8f2f48a5406ce444d0927cfd8
p4145
sVSex
p4146
I0
sVStarFriend
p4147
I0
sVStatues
p4148
I0
sa(dp4149
VUserName
p4150
V@54452095cb06ecd5fd70c067dfe989a8515deb10053c7fa3996cdc47823be999
p4151
sVCity
p4152
V\u671d\u9633
p4153
sVDisplayName
p4154
g48
sVUniFriend
p4155
I0
sVMemberList
p4156
(lp4157
sVPYQuanPin
p4158
Vguojiadelizhongwenwang
p4159
sVRemarkPYInitial
p4160
g48
sVUin
p4161
I0
sVAppAccountFlag
p4162
I0
sVVerifyFlag
p4163
I24
sVProvince
p4164
V\u5317\u4eac
p4165
sVKeyWord
p4166
g48
sVRemarkName
p4167
g48
sVPYInitial
p4168
VGJDLZWW
p4169
sVChatRoomId
p4170
I0
sVIsOwner
p4171
I0
sVHideInputBarFlag
p4172
I0
sVEncryChatRoomId
p4173
g48
sVAttrStatus
p4174
I98459
sVSnsFlag
p4175
I0
sVMemberCount
p4176
I0
sVOwnerUin
p4177
I0
sVAlias
p4178
g48
sVSignature
p4179
V\u4eba\u6587\u5730\u7406\u3001\u79d1\u5b66\u65b0\u77e5\u3001\u65c5\u884c\u63a2\u9669\u3001\u6444\u5f71\u5927\u7247\u2014\u2014\u8ba9\u9ec4\u6846\u7684\u4e16\u754c\u70b9\u4eae\u4f60\u7684\u89c6\u754c\uff01
p4180
sVContactFlag
p4181
I3
sVNickName
p4182
V\u56fd\u5bb6\u5730\u7406\u4e2d\u6587\u7f51
p4183
sVRemarkPYQuanPin
p4184
g48
sVHeadImgUrl
p4185
V/cgi-bin/mmwebwx-bin/webwxgeticon?seq=633320365&username=@54452095cb06ecd5fd70c067dfe989a8515deb10053c7fa3996cdc47823be999&skey=@crypt_870a16cf_8c26e3b8f2f48a5406ce444d0927cfd8
p4186
sVSex
p4187
I0
sVStarFriend
p4188
I0
sVStatues
p4189
I0
sa(dp4190
VUserName
p4191
V@aed4237e0501e2bdd11905d2975b05af
p4192
sVCity
p4193
V\u671d\u9633
p4194
sVDisplayName
p4195
g48
sVUniFriend
p4196
I0
sVMemberList
p4197
(lp4198
sVPYQuanPin
p4199
VWhat
p4200
sVRemarkPYInitial
p4201
g48
sVUin
p4202
I0
sVAppAccountFlag
p4203
I0
sVVerifyFlag
p4204
I8
sVProvince
p4205
V\u5317\u4eac
p4206
sVKeyWord
p4207
Vgh_
p4208
sVRemarkName
p4209
g48
sVPYInitial
p4210
VWHAT
p4211
sVChatRoomId
p4212
I0
sVIsOwner
p4213
I0
sVHideInputBarFlag
p4214
I0
sVEncryChatRoomId
p4215
g48
sVAttrStatus
p4216
I0
sVSnsFlag
p4217
I0
sVMemberCount
p4218
I0
sVOwnerUin
p4219
I0
sVAlias
p4220
g48
sVSignature
p4221
V\u4e00\u672c\u4e0d\u6b63\u7ecf\u7684\u5468\u66f4\u539f\u521b\u7f8e\u5267\u6742\u5fd7
p4222
sVContactFlag
p4223
I3
sVNickName
p4224
VWhat
p4225
sVRemarkPYQuanPin
p4226
g48
sVHeadImgUrl
p4227
V/cgi-bin/mmwebwx-bin/webwxgeticon?seq=633325369&username=@aed4237e0501e2bdd11905d2975b05af&skey=@crypt_870a16cf_8c26e3b8f2f48a5406ce444d0927cfd8
p4228
sVSex
p4229
I0
sVStarFriend
p4230
I0
sVStatues
p4231
I0
sa(dp4232
VUserName
p4233
V@75aeaa9b6c4bea9092ea571831c0b7fd
p4234
sVCity
p4235
V\u83cf\u6cfd
p4236
sVDisplayName
p4237
g48
sVUniFriend
p4238
I0
sVMemberList
p4239
(lp4240
sVPYQuanPin
p4241
Vqingniantegao
p4242
sVRemarkPYInitial
p4243
g48
sVUin
p4244
I0
sVAppAccountFlag
p4245
I0
sVVerifyFlag
p4246
I8
sVProvince
p4247
V\u5c71\u4e1c
p4248
sVKeyWord
p4249
Vgh_
p4250
sVRemarkName
p4251
g48
sVPYInitial
p4252
VQNTG
p4253
sVChatRoomId
p4254
I0
sVIsOwner
p4255
I0
sVHideInputBarFlag
p4256
I0
sVEncryChatRoomId
p4257
g48
sVAttrStatus
p4258
I0
sVSnsFlag
p4259
I0
sVMemberCount
p4260
I0
sVOwnerUin
p4261
I0
sVAlias
p4262
g48
sVSignature
p4263
V\u5168\u5b87\u5b99\u6700\u865a\u80d6\u7684\u6446\u6e21\u4eba\u3002
p4264
sVContactFlag
p4265
I3
sVNickName
p4266
V\u9752\u5e74\u7279\u7a3f
p4267
sVRemarkPYQuanPin
p4268
g48
sVHeadImgUrl
p4269
V/cgi-bin/mmwebwx-bin/webwxgeticon?seq=635751325&username=@75aeaa9b6c4bea9092ea571831c0b7fd&skey=@crypt_870a16cf_8c26e3b8f2f48a5406ce444d0927cfd8
p4270
sVSex
p4271
I0
sVStarFriend
p4272
I0
sVStatues
p4273
I0
sa(dp4274
VUserName
p4275
V@cf78f8426953932cc3b96fcfcfe80bb7
p4276
sVCity
p4277
V\u671d\u9633
p4278
sVDisplayName
p4279
g48
sVUniFriend
p4280
I0
sVMemberList
p4281
(lp4282
sVPYQuanPin
p4283
Vchihuoyanjiusuo
p4284
sVRemarkPYInitial
p4285
g48
sVUin
p4286
I0
sVAppAccountFlag
p4287
I0
sVVerifyFlag
p4288
I24
sVProvince
p4289
V\u5317\u4eac
p4290
sVKeyWord
p4291
Vgh_
p4292
sVRemarkName
p4293
g48
sVPYInitial
p4294
VCHYJS
p4295
sVChatRoomId
p4296
I0
sVIsOwner
p4297
I0
sVHideInputBarFlag
p4298
I0
sVEncryChatRoomId
p4299
g48
sVAttrStatus
p4300
I0
sVSnsFlag
p4301
I0
sVMemberCount
p4302
I0
sVOwnerUin
p4303
I0
sVAlias
p4304
g48
sVSignature
p4305
V\u5403\u8d27\u7814\u7a76\u6240\uff0c\u679c\u58f3\u7f51\u521b\u529e\u7684\u7f8e\u98df\u5e10\u53f7\uff0c\u7528\u79d1\u5b66\u89e3\u7b54\u4e00\u5207\u5173\u4e8e\u5403\u7684\u7591\u95ee\u3002\u80fd\u5403\u5417\uff1f\u597d\u5403\u5417\uff1f\u600e\u4e48\u5403\uff1f\u65d7\u4e0b\u865a\u5ea6\u4e16\u754c\u5b9e\u9a8c\u5ba4\uff0c\u6bcf\u5929\u7531\u4e00\u5927\u6ce2\u751f\u7269\u5b66\u5bb6\u3001\u98df\u54c1\u79d1\u5b66\u4e0e\u5de5\u7a0b\u4e13\u5bb6\u4e3a\u6700\u6311\u5254\u7684\u5403\u8d27\u7814\u53d1\u53ca\u63d0\u4f9b\u7701\u5fc3\u597d\u8d27\u3002
p4306
sVContactFlag
p4307
I3
sVNickName
p4308
V\u5403\u8d27\u7814\u7a76\u6240
p4309
sVRemarkPYQuanPin
p4310
g48
sVHeadImgUrl
p4311
V/cgi-bin/mmwebwx-bin/webwxgeticon?seq=635752065&username=@cf78f8426953932cc3b96fcfcfe80bb7&skey=@crypt_870a16cf_8c26e3b8f2f48a5406ce444d0927cfd8
p4312
sVSex
p4313
I0
sVStarFriend
p4314
I0
sVStatues
p4315
I0
sa(dp4316
VUserName
p4317
V@5734a564cbca5d972a2ee29477c5bc10
p4318
sVCity
p4319
V\u671d\u9633
p4320
sVDisplayName
p4321
g48
sVUniFriend
p4322
I0
sVMemberList
p4323
(lp4324
sVPYQuanPin
p4325
Vzhongguoribaoshuangyuxinwen
p4326
sVRemarkPYInitial
p4327
g48
sVUin
p4328
I0
sVAppAccountFlag
p4329
I0
sVVerifyFlag
p4330
I24
sVProvince
p4331
V\u5317\u4eac
p4332
sVKeyWord
p4333
Vgh_
p4334
sVRemarkName
p4335
g48
sVPYInitial
p4336
VZGRBSYXW
p4337
sVChatRoomId
p4338
I0
sVIsOwner
p4339
I0
sVHideInputBarFlag
p4340
I0
sVEncryChatRoomId
p4341
g48
sVAttrStatus
p4342
I0
sVSnsFlag
p4343
I0
sVMemberCount
p4344
I0
sVOwnerUin
p4345
I0
sVAlias
p4346
g48
sVSignature
p4347
V\u60f3\u5b66\u63a5\u5730\u6c14\u7684\u5b9e\u7528\u82f1\u8bed\u8868\u8fbe\uff1f\u60f3\u770b\u6700\u65b0\u73af\u7403\u70ed\u70b9\u8d44\u8baf\uff1f\u60f3\u4e86\u89e3\u82f1\u7f8e\u56fd\u5bb6\u7684\u6587\u5316\u751f\u6d3b\uff1f\u6765\u627e\u53cc\u8bed\u541b\u5427\uff01\u6bcf\u5468\u4e03\u5929\uff0c\u6211\u4eec\u4e3a\u60a8\u7684\u82f1\u8bed\u4fdd\u9c9c\uff01
p4348
sVContactFlag
p4349
I3
sVNickName
p4350
V\u4e2d\u56fd\u65e5\u62a5\u53cc\u8bed\u65b0\u95fb
p4351
sVRemarkPYQuanPin
p4352
g48
sVHeadImgUrl
p4353
V/cgi-bin/mmwebwx-bin/webwxgeticon?seq=636997382&username=@5734a564cbca5d972a2ee29477c5bc10&skey=@crypt_870a16cf_8c26e3b8f2f48a5406ce444d0927cfd8
p4354
sVSex
p4355
I0
sVStarFriend
p4356
I0
sVStatues
p4357
I0
sa(dp4358
VUserName
p4359
V@b8e075bfd5b54e4a69bf04e794b43833
p4360
sVCity
p4361
V\u671d\u9633
p4362
sVDisplayName
p4363
g48
sVUniFriend
p4364
I0
sVMemberList
p4365
(lp4366
sVPYQuanPin
p4367
Vdushaofei
p4368
sVRemarkPYInitial
p4369
g48
sVUin
p4370
I0
sVAppAccountFlag
p4371
I0
sVVerifyFlag
p4372
I8
sVProvince
p4373
V\u5317\u4eac
p4374
sVKeyWord
p4375
Vgh_
p4376
sVRemarkName
p4377
g48
sVPYInitial
p4378
VDSF
p4379
sVChatRoomId
p4380
I0
sVIsOwner
p4381
I0
sVHideInputBarFlag
p4382
I0
sVEncryChatRoomId
p4383
g48
sVAttrStatus
p4384
I0
sVSnsFlag
p4385
I0
sVMemberCount
p4386
I0
sVOwnerUin
p4387
I0
sVAlias
p4388
g48
sVSignature
p4389
V\u6380\u8d77\u4e00\u573a\u4e2d\u56fd\u76f4\u7537\u7684\u65b0\u6587\u5316\u8fd0\u52a8\u3002
p4390
sVContactFlag
p4391
I3
sVNickName
p4392
V\u675c\u7ecd\u6590
p4393
sVRemarkPYQuanPin
p4394
g48
sVHeadImgUrl
p4395
V/cgi-bin/mmwebwx-bin/webwxgeticon?seq=635751124&username=@b8e075bfd5b54e4a69bf04e794b43833&skey=@crypt_870a16cf_8c26e3b8f2f48a5406ce444d0927cfd8
p4396
sVSex
p4397
I0
sVStarFriend
p4398
I0
sVStatues
p4399
I0
sa(dp4400
VUserName
p4401
V@3e7a33d82e7c1057079b4397186500e5
p4402
sVCity
p4403
V\u671d\u9633
p4404
sVDisplayName
p4405
g48
sVUniFriend
p4406
I0
sVMemberList
p4407
(lp4408
sVPYQuanPin
p4409
Vwuchongrili
p4410
sVRemarkPYInitial
p4411
g48
sVUin
p4412
I0
sVAppAccountFlag
p4413
I0
sVVerifyFlag
p4414
I24
sVProvince
p4415
V\u5317\u4eac
p4416
sVKeyWord
p4417
Vgh_
p4418
sVRemarkName
p4419
g48
sVPYInitial
p4420
VWCRL
p4421
sVChatRoomId
p4422
I0
sVIsOwner
p4423
I0
sVHideInputBarFlag
p4424
I0
sVEncryChatRoomId
p4425
g48
sVAttrStatus
p4426
I0
sVSnsFlag
p4427
I0
sVMemberCount
p4428
I0
sVOwnerUin
p4429
I0
sVAlias
p4430
g48
sVSignature
p4431
V\u5154\u72f2\u3001\u9f99\u732b\u3001\u51e0\u7ef4\u9e1f\uff0c\u603b\u6709\u4e00\u6b3e\u6bdb\u7403\u6253\u52a8\u4f60\uff1b\u94c3\u5170\u3001\u6854\u6897\u3001\u56db\u7167\u82b1\uff0c\u690d\u7269\u4eec\u4e5f\u53ef\u4ee5\u840c\u840c\u54d2\uff5e \u8ddf\u7740\u65e5\u5386\u5a18\uff0c\u6bcf\u5929\u8ba4\u8bc6\u4e00\u4e2a\u7269\u79cd\uff0c\u8ba9\u4f60\u7684\u4e16\u754c\uff0c\u6bcf\u5929\u53d8\u5f97\u66f4\u840c\u4e00\u4e9b\uff01
p4432
sVContactFlag
p4433
I3
sVNickName
p4434
V\u7269\u79cd\u65e5\u5386
p4435
sVRemarkPYQuanPin
p4436
g48
sVHeadImgUrl
p4437
V/cgi-bin/mmwebwx-bin/webwxgeticon?seq=636998299&username=@3e7a33d82e7c1057079b4397186500e5&skey=@crypt_870a16cf_8c26e3b8f2f48a5406ce444d0927cfd8
p4438
sVSex
p4439
I0
sVStarFriend
p4440
I0
sVStatues
p4441
I0
sa(dp4442
VUserName
p4443
V@e56552edfcb948284f2a03ba5a294ec4
p4444
sVCity
p4445
V\u5e7f\u5dde
p4446
sVDisplayName
p4447
g48
sVUniFriend
p4448
I0
sVMemberList
p4449
(lp4450
sVPYQuanPin
p4451
VwoyaoWhatYouNeed
p4452
sVRemarkPYInitial
p4453
g48
sVUin
p4454
I0
sVAppAccountFlag
p4455
I0
sVVerifyFlag
p4456
I24
sVProvince
p4457
V\u5e7f\u4e1c
p4458
sVKeyWord
p4459
Vgh_
p4460
sVRemarkName
p4461
g48
sVPYInitial
p4462
VWYWHATYOUNEED
p4463
sVChatRoomId
p4464
I0
sVIsOwner
p4465
I0
sVHideInputBarFlag
p4466
I0
sVEncryChatRoomId
p4467
g48
sVAttrStatus
p4468
I0
sVSnsFlag
p4469
I0
sVMemberCount
p4470
I0
sVOwnerUin
p4471
I0
sVAlias
p4472
g48
sVSignature
p4473
V\u4e00\u4e2a\u5e74\u8f7b\u4eba\u7684\u805a\u96c6\u5730\u3002
p4474
sVContactFlag
p4475
I3
sVNickName
p4476
V\u6211\u8981WhatYouNeed
p4477
sVRemarkPYQuanPin
p4478
g48
sVHeadImgUrl
p4479
V/cgi-bin/mmwebwx-bin/webwxgeticon?seq=643040159&username=@e56552edfcb948284f2a03ba5a294ec4&skey=@crypt_870a16cf_8c26e3b8f2f48a5406ce444d0927cfd8
p4480
sVSex
p4481
I0
sVStarFriend
p4482
I0
sVStatues
p4483
I0
sa(dp4484
VUserName
p4485
V@87783e7f25ac4b2a0dd37349f763201a
p4486
sVCity
p4487
V\u666e\u9640
p4488
sVDisplayName
p4489
g48
sVUniFriend
p4490
I0
sVMemberList
p4491
(lp4492
sVPYQuanPin
p4493
Vshudanlaile
p4494
sVRemarkPYInitial
p4495
g48
sVUin
p4496
I0
sVAppAccountFlag
p4497
I0
sVVerifyFlag
p4498
I24
sVProvince
p4499
V\u4e0a\u6d77
p4500
sVKeyWord
p4501
Vgh_
p4502
sVRemarkName
p4503
g48
sVPYInitial
p4504
VSDLL
p4505
sVChatRoomId
p4506
I0
sVIsOwner
p4507
I0
sVHideInputBarFlag
p4508
I0
sVEncryChatRoomId
p4509
g48
sVAttrStatus
p4510
I0
sVSnsFlag
p4511
I0
sVMemberCount
p4512
I0
sVOwnerUin
p4513
I0
sVAlias
p4514
g48
sVSignature
p4515
V\u5982\u679c\u4f60\u4e0d\u77e5\u9053\u8bfb\u4ec0\u4e48\u4e66\uff0c\u5173\u6ce8\u4e66\u5355\u72d7\u5c31\u5bf9\u4e86\u3002\u4e66\u5355\u72d7\u5c06\u63a5\u7ba1\u4f60\u4e0b\u534a\u751f\u7684\u5168\u90e8\u9605\u8bfb\u8ba1\u5212\u3002\u4e66\u5355\u72d7\u6bcf\u5929\u4e3a500\u4e07\u7c89\u4e1d\u63a8\u8350\u4e66\u5355\u72d7\u724c\u4e66\u5355\uff0c\u770b\u8fc7\u4f60\u5c31\u4f1a\u7231\u4e0a\u6211\u3002
p4516
sVContactFlag
p4517
I3
sVNickName
p4518
V\u4e66\u5355\u6765\u4e86
p4519
sVRemarkPYQuanPin
p4520
g48
sVHeadImgUrl
p4521
V/cgi-bin/mmwebwx-bin/webwxgeticon?seq=645190089&username=@87783e7f25ac4b2a0dd37349f763201a&skey=@crypt_870a16cf_8c26e3b8f2f48a5406ce444d0927cfd8
p4522
sVSex
p4523
I0
sVStarFriend
p4524
I0
sVStatues
p4525
I0
sa(dp4526
VUserName
p4527
V@aa501c820f61d388436e2d1c4f4ac103
p4528
sVCity
p4529
V\u5170\u5dde\u5e02
p4530
sVDisplayName
p4531
g48
sVUniFriend
p4532
I0
sVMemberList
p4533
(lp4534
sVPYQuanPin
p4535
Vdouzhe
p4536
sVRemarkPYInitial
p4537
g48
sVUin
p4538
I0
sVAppAccountFlag
p4539
I0
sVVerifyFlag
p4540
I24
sVProvince
p4541
V\u7518\u8083
p4542
sVKeyWord
p4543
Vgh_
p4544
sVRemarkName
p4545
g48
sVPYInitial
p4546
VDZ
p4547
sVChatRoomId
p4548
I0
sVIsOwner
p4549
I0
sVHideInputBarFlag
p4550
I0
sVEncryChatRoomId
p4551
g48
sVAttrStatus
p4552
I0
sVSnsFlag
p4553
I0
sVMemberCount
p4554
I0
sVOwnerUin
p4555
I0
sVAlias
p4556
g48
sVSignature
p4557
V\u300a\u8bfb\u8005\u300b\u6742\u5fd7\u5b98\u65b9\u8ba2\u9605\u53f7\u3002 \u4e2d\u56fd\u4eba\u7684\u5fc3\u7075\u8bfb\u672c\uff0c\u5168\u5bb6\u4eba\u7684\u7cbe\u795e\u7ebd\u5e26\u3002
p4558
sVContactFlag
p4559
I3
sVNickName
p4560
V\u8bfb\u8005
p4561
sVRemarkPYQuanPin
p4562
g48
sVHeadImgUrl
p4563
V/cgi-bin/mmwebwx-bin/webwxgeticon?seq=647454135&username=@aa501c820f61d388436e2d1c4f4ac103&skey=@crypt_870a16cf_8c26e3b8f2f48a5406ce444d0927cfd8
p4564
sVSex
p4565
I0
sVStarFriend
p4566
I0
sVStatues
p4567
I0
sa(dp4568
VUserName
p4569
V@5b8f83ac2f675490c786a27c0470cdab
p4570
sVCity
p4571
VSan Francisco
p4572
sVDisplayName
p4573
g48
sVUniFriend
p4574
I0
sVMemberList
p4575
(lp4576
sVPYQuanPin
p4577
VYTBjingcaishipin
p4578
sVRemarkPYInitial
p4579
g48
sVUin
p4580
I0
sVAppAccountFlag
p4581
I0
sVVerifyFlag
p4582
I24
sVProvince
p4583
VCalifornia
p4584
sVKeyWord
p4585
Vgh_
p4586
sVRemarkName
p4587
g48
sVPYInitial
p4588
VYTBJCSP
p4589
sVChatRoomId
p4590
I0
sVIsOwner
p4591
I0
sVHideInputBarFlag
p4592
I0
sVEncryChatRoomId
p4593
g48
sVAttrStatus
p4594
I0
sVSnsFlag
p4595
I0
sVMemberCount
p4596
I0
sVOwnerUin
p4597
I0
sVAlias
p4598
g48
sVSignature
p4599
V\u6d77\u5916\u89c6\u9891\u7cbe\u9009\u5e73\u53f0<span class="emoji emoji1f4fa"></span>\u5fae\u535a@YouTube\u7cbe\u5f69\u89c6\u9891
p4600
sVContactFlag
p4601
I3
sVNickName
p4602
VYTB\u7cbe\u5f69\u89c6\u9891
p4603
sVRemarkPYQuanPin
p4604
g48
sVHeadImgUrl
p4605
V/cgi-bin/mmwebwx-bin/webwxgeticon?seq=648772684&username=@5b8f83ac2f675490c786a27c0470cdab&skey=@crypt_870a16cf_8c26e3b8f2f48a5406ce444d0927cfd8
p4606
sVSex
p4607
I0
sVStarFriend
p4608
I0
sVStatues
p4609
I0
sa(dp4610
VUserName
p4611
V@325132596abc5cc9333ff86eb089cddd
p4612
sVCity
p4613
V\u666e\u9640
p4614
sVDisplayName
p4615
g48
sVUniFriend
p4616
I0
sVMemberList
p4617
(lp4618
sVPYQuanPin
p4619
Vyingdanlaile
p4620
sVRemarkPYInitial
p4621
g48
sVUin
p4622
I0
sVAppAccountFlag
p4623
I0
sVVerifyFlag
p4624
I24
sVProvince
p4625
V\u4e0a\u6d77
p4626
sVKeyWord
p4627
Vgh_
p4628
sVRemarkName
p4629
g48
sVPYInitial
p4630
VYDLL
p4631
sVChatRoomId
p4632
I0
sVIsOwner
p4633
I0
sVHideInputBarFlag
p4634
I0
sVEncryChatRoomId
p4635
g48
sVAttrStatus
p4636
I0
sVSnsFlag
p4637
I0
sVMemberCount
p4638
I0
sVOwnerUin
p4639
I0
sVAlias
p4640
g48
sVSignature
p4641
V\u5982\u679c\u4f60\u4e0d\u77e5\u9053\u770b\u4ec0\u4e48\u7535\u5f71\uff0c\u5173\u6ce8\u6211\u5c31\u5bf9\u4e86\u3002\u5230\u4e86\u8fd9\u91cc\uff0c\u4f60\u7684\u4f59\u751f\u5c06\u544a\u522b\u201c\u70c2\u7247\u201d\u4e24\u4e2a\u5b57\u3002\u5f71\u5355\u732b\u8fd9\u8f88\u5b50\u9664\u4e86\u5403\u996d\u7761\u89c9\u5c31\u662f\u770b\u7535\u5f71\uff0c\u5728\u88ab\u70c2\u7247\u7838\u6655\u540e\u53d1\u8a93\u8981\u628a\u770b\u8fc7\u7684\u597d\u7247\u4e00\u4e00\u6311\u51fa\u6765\uff0c\u63a8\u8350\u7ed9\u4f60\u3002\u54e6\u5bf9\u4e86\uff0c\u626b\u6d77\u62a5\u4e0b\u9762\u7684\u4e8c\u7ef4\u7801\u8fd8\u80fd\u76f4\u63a5\u89c2\u770b\u3002\u6ca1\u5176\u4ed6\u95ee\u9898\u6211\u5148\u770b\u7247\u53bb\u4e86\uff0c\u6bd4\u5fc3
p4642
sVContactFlag
p4643
I3
sVNickName
p4644
V\u5f71\u5355\u6765\u4e86
p4645
sVRemarkPYQuanPin
p4646
g48
sVHeadImgUrl
p4647
V/cgi-bin/mmwebwx-bin/webwxgeticon?seq=648793683&username=@325132596abc5cc9333ff86eb089cddd&skey=@crypt_870a16cf_8c26e3b8f2f48a5406ce444d0927cfd8
p4648
sVSex
p4649
I0
sVStarFriend
p4650
I0
sVStatues
p4651
I0
sa(dp4652
VUserName
p4653
V@b9713f1a875ab2fb03bc572323d61717
p4654
sVCity
p4655
V\u671d\u9633
p4656
sVDisplayName
p4657
g48
sVUniFriend
p4658
I0
sVMemberList
p4659
(lp4660
sVPYQuanPin
p4661
Vxiaomanyaopaian
p4662
sVRemarkPYInitial
p4663
g48
sVUin
p4664
I0
sVAppAccountFlag
p4665
I0
sVVerifyFlag
p4666
I24
sVProvince
p4667
V\u5317\u4eac
p4668
sVKeyWord
p4669
Vgh_
p4670
sVRemarkName
p4671
g48
sVPYInitial
p4672
VXMYPA
p4673
sVChatRoomId
p4674
I0
sVIsOwner
p4675
I0
sVHideInputBarFlag
p4676
I0
sVEncryChatRoomId
p4677
g48
sVAttrStatus
p4678
I0
sVSnsFlag
p4679
I0
sVMemberCount
p4680
I0
sVOwnerUin
p4681
I0
sVAlias
p4682
g48
sVSignature
p4683
V\u679c\u58f3\u7f51\u8c0b\u6740\u73b0\u573a\u6cd5\u533b\u5c0f\u7ec4\u5b98\u65b9\u5fae\u4fe1\u3002
p4684
sVContactFlag
p4685
I3
sVNickName
p4686
V\u5c0f\u9992\u5996\u62cd\u6848
p4687
sVRemarkPYQuanPin
p4688
g48
sVHeadImgUrl
p4689
V/cgi-bin/mmwebwx-bin/webwxgeticon?seq=648803075&username=@b9713f1a875ab2fb03bc572323d61717&skey=@crypt_870a16cf_8c26e3b8f2f48a5406ce444d0927cfd8
p4690
sVSex
p4691
I0
sVStarFriend
p4692
I0
sVStatues
p4693
I0
sa(dp4694
VUserName
p4695
V@d9849d8ea4a403f89c5b76a4d3571b6a
p4696
sVCity
p4697
V\u53a6\u95e8
p4698
sVDisplayName
p4699
g48
sVUniFriend
p4700
I0
sVMemberList
p4701
(lp4702
sVPYQuanPin
p4703
Vcaidiaojiaocheng
p4704
sVRemarkPYInitial
p4705
g48
sVUin
p4706
I0
sVAppAccountFlag
p4707
I0
sVVerifyFlag
p4708
I8
sVProvince
p4709
V\u798f\u5efa
p4710
sVKeyWord
p4711
Vgh_
p4712
sVRemarkName
p4713
g48
sVPYInitial
p4714
VCDJC
p4715
sVChatRoomId
p4716
I0
sVIsOwner
p4717
I0
sVHideInputBarFlag
p4718
I0
sVEncryChatRoomId
p4719
g48
sVAttrStatus
p4720
I0
sVSnsFlag
p4721
I0
sVMemberCount
p4722
I0
sVOwnerUin
p4723
I0
sVAlias
p4724
g48
sVSignature
p4725
V\u5b66\u7684\u4e0d\u4ec5\u662f\u6280\u672f\uff0c\u66f4\u662f\u68a6\u60f3\uff01
p4726
sVContactFlag
p4727
I3
sVNickName
p4728
V\u83dc\u9e1f\u6559\u7a0b
p4729
sVRemarkPYQuanPin
p4730
g48
sVHeadImgUrl
p4731
V/cgi-bin/mmwebwx-bin/webwxgeticon?seq=648821210&username=@d9849d8ea4a403f89c5b76a4d3571b6a&skey=@crypt_870a16cf_8c26e3b8f2f48a5406ce444d0927cfd8
p4732
sVSex
p4733
I0
sVStarFriend
p4734
I0
sVStatues
p4735
I0
sa(dp4736
VUserName
p4737
V@80ee1c5e953effbeaa8ec988f046d88a
p4738
sVCity
p4739
V\u82cf\u5dde
p4740
sVDisplayName
p4741
g48
sVUniFriend
p4742
I0
sVMemberList
p4743
(lp4744
sVPYQuanPin
p4745
Vquanqiujianshenzhina
p4746
sVRemarkPYInitial
p4747
g48
sVUin
p4748
I0
sVAppAccountFlag
p4749
I0
sVVerifyFlag
p4750
I24
sVProvince
p4751
V\u6c5f\u82cf
p4752
sVKeyWord
p4753
Vgh_
p4754
sVRemarkName
p4755
g48
sVPYInitial
p4756
VQQJSZN
p4757
sVChatRoomId
p4758
I0
sVIsOwner
p4759
I0
sVHideInputBarFlag
p4760
I0
sVEncryChatRoomId
p4761
g48
sVAttrStatus
p4762
I0
sVSnsFlag
p4763
I0
sVMemberCount
p4764
I0
sVOwnerUin
p4765
I0
sVAlias
p4766
g48
sVSignature
p4767
V\u4e3a\u5065\u8eab\u7231\u597d\u8005\u63d0\u4f9b\u6700\u4e13\u4e1a\u7684\u52a8\u4f5c\u6307\u5bfc\u3001\u6700\u5168\u7684\u7f8e\u4f53\u5065\u8eab\u8d44\u8baf\uff01\u6709\u8da3\u3001\u6709\u7528\u3001\u6709\u5e72\u8d27\uff01\u589e\u808c\u51cf\u8102\u3001\u8da3\u5473\u8d44\u8baf\uff0c\u5065\u8eab\u8def\u4e0a\uff0c\u4f60\u6211\u540c\u884c\uff01
p4768
sVContactFlag
p4769
I3
sVNickName
p4770
V\u5168\u7403\u5065\u8eab\u6307\u5357
p4771
sVRemarkPYQuanPin
p4772
g48
sVHeadImgUrl
p4773
V/cgi-bin/mmwebwx-bin/webwxgeticon?seq=648836204&username=@80ee1c5e953effbeaa8ec988f046d88a&skey=@crypt_870a16cf_8c26e3b8f2f48a5406ce444d0927cfd8
p4774
sVSex
p4775
I0
sVStarFriend
p4776
I0
sVStatues
p4777
I0
sa(dp4778
VUserName
p4779
V@f922f0d95ce8bc560575f3723ff6c991
p4780
sVCity
p4781
V\u5e7f\u5dde
p4782
sVDisplayName
p4783
g48
sVUniFriend
p4784
I0
sVMemberList
p4785
(lp4786
sVPYQuanPin
p4787
VKdong
p4788
sVRemarkPYInitial
p4789
g48
sVUin
p4790
I0
sVAppAccountFlag
p4791
I0
sVVerifyFlag
p4792
I24
sVProvince
p4793
V\u5e7f\u4e1c
p4794
sVKeyWord
p4795
Vgh_
p4796
sVRemarkName
p4797
g48
sVPYInitial
p4798
VKD
p4799
sVChatRoomId
p4800
I0
sVIsOwner
p4801
I0
sVHideInputBarFlag
p4802
I0
sVEncryChatRoomId
p4803
g48
sVAttrStatus
p4804
I0
sVSnsFlag
p4805
I0
sVMemberCount
p4806
I0
sVOwnerUin
p4807
I0
sVAlias
p4808
g48
sVSignature
p4809
V\u4e00\u4e2a\u6709\u8da3\u7684\u6f2b\u753b\u516c\u4f17\u53f7
p4810
sVContactFlag
p4811
I3
sVNickName
p4812
VK\u8463
p4813
sVRemarkPYQuanPin
p4814
g48
sVHeadImgUrl
p4815
V/cgi-bin/mmwebwx-bin/webwxgeticon?seq=648849125&username=@f922f0d95ce8bc560575f3723ff6c991&skey=@crypt_870a16cf_8c26e3b8f2f48a5406ce444d0927cfd8
p4816
sVSex
p4817
I0
sVStarFriend
p4818
I0
sVStatues
p4819
I0
sa(dp4820
VUserName
p4821
V@ee5eb176617c2fe464c02ad6078b2486
p4822
sVCity
p4823
V\u671d\u9633
p4824
sVDisplayName
p4825
g48
sVUniFriend
p4826
I0
sVMemberList
p4827
(lp4828
sVPYQuanPin
p4829
Vkuxuankexue
p4830
sVRemarkPYInitial
p4831
g48
sVUin
p4832
I0
sVAppAccountFlag
p4833
I0
sVVerifyFlag
p4834
I8
sVProvince
p4835
V\u5317\u4eac
p4836
sVKeyWord
p4837
Vgh_
p4838
sVRemarkName
p4839
g48
sVPYInitial
p4840
VKXKX
p4841
sVChatRoomId
p4842
I0
sVIsOwner
p4843
I0
sVHideInputBarFlag
p4844
I0
sVEncryChatRoomId
p4845
g48
sVAttrStatus
p4846
I0
sVSnsFlag
p4847
I0
sVMemberCount
p4848
I0
sVOwnerUin
p4849
I0
sVAlias
p4850
g48
sVSignature
p4851
V\u4ecb\u7ecd\u5404\u79cd\u201c\u5367\u69fd\u597d\u68d2\u201d\u7684\u79d1\u5b66\u5c0f\u77e5\u8bc6\u548c\u79d1\u5b66\u8da3\u56fe
p4852
sVContactFlag
p4853
I3
sVNickName
p4854
V\u9177\u70ab\u79d1\u5b66
p4855
sVRemarkPYQuanPin
p4856
g48
sVHeadImgUrl
p4857
V/cgi-bin/mmwebwx-bin/webwxgeticon?seq=660400491&username=@ee5eb176617c2fe464c02ad6078b2486&skey=@crypt_870a16cf_8c26e3b8f2f48a5406ce444d0927cfd8
p4858
sVSex
p4859
I0
sVStarFriend
p4860
I0
sVStatues
p4861
I0
sa(dp4862
VUserName
p4863
V@8bbe34f23e8102d880f57358c0a56984
p4864
sVCity
p4865
V\u901a\u5dde
p4866
sVDisplayName
p4867
g48
sVUniFriend
p4868
I0
sVMemberList
p4869
(lp4870
sVPYQuanPin
p4871
Vhaoqiboshi
p4872
sVRemarkPYInitial
p4873
g48
sVUin
p4874
I0
sVAppAccountFlag
p4875
I0
sVVerifyFlag
p4876
I24
sVProvince
p4877
V\u5317\u4eac
p4878
sVKeyWord
p4879
Vgh_
p4880
sVRemarkName
p4881
g48
sVPYInitial
p4882
VHQBS
p4883
sVChatRoomId
p4884
I0
sVIsOwner
p4885
I0
sVHideInputBarFlag
p4886
I0
sVEncryChatRoomId
p4887
g48
sVAttrStatus
p4888
I0
sVSnsFlag
p4889
I0
sVMemberCount
p4890
I0
sVOwnerUin
p4891
I0
sVAlias
p4892
g48
sVSignature
p4893
V\u535a\u58eb\u4e00\u5206\u949f\uff0c\u59ff\u52bf\u6da8\u4e0d\u505c\uff01
p4894
sVContactFlag
p4895
I3
sVNickName
p4896
V\u597d\u5947\u535a\u58eb
p4897
sVRemarkPYQuanPin
p4898
g48
sVHeadImgUrl
p4899
V/cgi-bin/mmwebwx-bin/webwxgeticon?seq=660401409&username=@8bbe34f23e8102d880f57358c0a56984&skey=@crypt_870a16cf_8c26e3b8f2f48a5406ce444d0927cfd8
p4900
sVSex
p4901
I0
sVStarFriend
p4902
I0
sVStatues
p4903
I0
sa(dp4904
VUserName
p4905
V@ed38416dfad62d69c83dc757a5106ae3
p4906
sVCity
p4907
V\u4e30\u53f0
p4908
sVDisplayName
p4909
g48
sVUniFriend
p4910
I0
sVMemberList
p4911
(lp4912
sVPYQuanPin
p4913
Vshaonianyingshipa
p4914
sVRemarkPYInitial
p4915
g48
sVUin
p4916
I0
sVAppAccountFlag
p4917
I0
sVVerifyFlag
p4918
I8
sVProvince
p4919
V\u5317\u4eac
p4920
sVKeyWord
p4921
Vgh_
p4922
sVRemarkName
p4923
g48
sVPYInitial
p4924
VSNYSP
p4925
sVChatRoomId
p4926
I0
sVIsOwner
p4927
I0
sVHideInputBarFlag
p4928
I0
sVEncryChatRoomId
p4929
g48
sVAttrStatus
p4930
I0
sVSnsFlag
p4931
I0
sVMemberCount
p4932
I0
sVOwnerUin
p4933
I0
sVAlias
p4934
g48
sVSignature
p4935
V\u6b27\u7f8e\u7535\u89c6\u3001\u7535\u5f71\u8d44\u8baf\u66f4\u65b0
p4936
sVContactFlag
p4937
I3
sVNickName
p4938
V\u5c11\u5e74\u5f71\u89c6\u6d3e
p4939
sVRemarkPYQuanPin
p4940
g48
sVHeadImgUrl
p4941
V/cgi-bin/mmwebwx-bin/webwxgeticon?seq=660422584&username=@ed38416dfad62d69c83dc757a5106ae3&skey=@crypt_870a16cf_8c26e3b8f2f48a5406ce444d0927cfd8
p4942
sVSex
p4943
I0
sVStarFriend
p4944
I0
sVStatues
p4945
I0
sa(dp4946
VUserName
p4947
V@807c29070a9d66c730aa4bef09b92279
p4948
sVCity
p4949
V\u62c9\u8428
p4950
sVDisplayName
p4951
g48
sVUniFriend
p4952
I0
sVMemberList
p4953
(lp4954
sVPYQuanPin
p4955
Vcong404daoxiahuaxian
p4956
sVRemarkPYInitial
p4957
g48
sVUin
p4958
I0
sVAppAccountFlag
p4959
I0
sVVerifyFlag
p4960
I8
sVProvince
p4961
V\u897f\u85cf
p4962
sVKeyWord
p4963
Vgh_
p4964
sVRemarkName
p4965
g48
sVPYInitial
p4966
VC404DXHX
p4967
sVChatRoomId
p4968
I0
sVIsOwner
p4969
I0
sVHideInputBarFlag
p4970
I0
sVEncryChatRoomId
p4971
g48
sVAttrStatus
p4972
I0
sVSnsFlag
p4973
I0
sVMemberCount
p4974
I0
sVOwnerUin
p4975
I0
sVAlias
p4976
g48
sVSignature
p4977
V404\u4ee3\u8868\u5ba2\u6237\u7aef\u5728\u6d4f\u89c8\u7f51\u9875\u65f6\uff0c\u670d\u52a1\u5668\u65e0\u6cd5\u6b63\u5e38\u63d0\u4f9b\u4fe1\u606f\uff0c\u6216\u662f\u670d\u52a1\u5668\u65e0\u6cd5\u56de\u5e94\u4e14\u4e0d\u77e5\u539f\u56e0\u3002\u800c\u4e0b\u5212\u7ebf\u4f3c\u4e4e\u5728\u4efb\u4f55\u53ef\u4ee5\u8f93\u5165\u7684\u5730\u65b9\u90fd\u652f\u6301\u3002
p4978
sVContactFlag
p4979
I3
sVNickName
p4980
V\u4ece404\u5230\u4e0b\u5212\u7ebf
p4981
sVRemarkPYQuanPin
p4982
g48
sVHeadImgUrl
p4983
V/cgi-bin/mmwebwx-bin/webwxgeticon?seq=660430820&username=@807c29070a9d66c730aa4bef09b92279&skey=@crypt_870a16cf_8c26e3b8f2f48a5406ce444d0927cfd8
p4984
sVSex
p4985
I0
sVStarFriend
p4986
I0
sVStatues
p4987
I0
sa(dp4988
VUserName
p4989
V@efaf123b8085a32be15aa57fba4b50c2
p4990
sVCity
p4991
V\u671d\u9633
p4992
sVDisplayName
p4993
g48
sVUniFriend
p4994
I0
sVMemberList
p4995
(lp4996
sVPYQuanPin
p4997
Vbiexiawan
p4998
sVRemarkPYInitial
p4999
g48
sVUin
p5000
I0
sVAppAccountFlag
p5001
I0
sVVerifyFlag
p5002
I8
sVProvince
p5003
V\u5317\u4eac
p5004
sVKeyWord
p5005
Vgh_
p5006
sVRemarkName
p5007
g48
sVPYInitial
p5008
VBXW
p5009
sVChatRoomId
p5010
I0
sVIsOwner
p5011
I0
sVHideInputBarFlag
p5012
I0
sVEncryChatRoomId
p5013
g48
sVAttrStatus
p5014
I0
sVSnsFlag
p5015
I0
sVMemberCount
p5016
I0
sVOwnerUin
p5017
I0
sVAlias
p5018
g48
sVSignature
p5019
V\u4e25\u8083\u70b9\uff0c\u6211\u4eec\u8fd9\u6253\u6e38\u620f\u5462\uff01
p5020
sVContactFlag
p5021
I3
sVNickName
p5022
V\u522b\u778e\u73a9
p5023
sVRemarkPYQuanPin
p5024
g48
sVHeadImgUrl
p5025
V/cgi-bin/mmwebwx-bin/webwxgeticon?seq=660445801&username=@efaf123b8085a32be15aa57fba4b50c2&skey=@crypt_870a16cf_8c26e3b8f2f48a5406ce444d0927cfd8
p5026
sVSex
p5027
I0
sVStarFriend
p5028
I0
sVStatues
p5029
I0
sa(dp5030
VUserName
p5031
V@b8016ae2ecc622234fdcbccb49cf38c0
p5032
sVCity
p5033
V\u5357\u901a
p5034
sVDisplayName
p5035
g48
sVUniFriend
p5036
I0
sVMemberList
p5037
(lp5038
sVPYQuanPin
p5039
VSteamsheou
p5040
sVRemarkPYInitial
p5041
g48
sVUin
p5042
I0
sVAppAccountFlag
p5043
I0
sVVerifyFlag
p5044
I24
sVProvince
p5045
V\u6c5f\u82cf
p5046
sVKeyWord
p5047
Vgh_
p5048
sVRemarkName
p5049
g48
sVPYInitial
p5050
VSTEAMSO
p5051
sVChatRoomId
p5052
I0
sVIsOwner
p5053
I0
sVHideInputBarFlag
p5054
I0
sVEncryChatRoomId
p5055
g48
sVAttrStatus
p5056
I0
sVSnsFlag
p5057
I0
sVMemberCount
p5058
I0
sVOwnerUin
p5059
I0
sVAlias
p5060
g48
sVSignature
p5061
V\u6bcf\u65e5\u63a8\u9001Steam\u5355\u673a\u6e38\u620f\u8d44\u8baf...\u6700\u65b0\u4e0a\u5e02\u7684\u6e38\u620f\u6d88\u606f,\u4fc3\u9500\u6298\u6263\u4fe1\u606f,\u70ed\u95e8\u6e38\u620f\u4ecb\u7ecd,\u70ed\u95e8\u6e38\u620f\u91cd\u5927\u66f4\u65b0,IG HBBS GMG\u7b49\u56fd\u5916\u7f51\u7ad9\u6e38\u620f\u5305,\u6148\u5584\u5305\u4f18\u60e0...
p5062
sVContactFlag
p5063
I3
sVNickName
p5064
VSteam\u793e\u533a
p5065
sVRemarkPYQuanPin
p5066
g48
sVHeadImgUrl
p5067
V/cgi-bin/mmwebwx-bin/webwxgeticon?seq=660447258&username=@b8016ae2ecc622234fdcbccb49cf38c0&skey=@crypt_870a16cf_8c26e3b8f2f48a5406ce444d0927cfd8
p5068
sVSex
p5069
I0
sVStarFriend
p5070
I0
sVStatues
p5071
I0
sa(dp5072
VUserName
p5073
V@3aa6b4ba09f8d726a471fc99daa25583
p5074
sVCity
p5075
V\u82cf\u5dde
p5076
sVDisplayName
p5077
g48
sVUniFriend
p5078
I0
sVMemberList
p5079
(lp5080
sVPYQuanPin
p5081
Vyiqishenhuifu
p5082
sVRemarkPYInitial
p5083
g48
sVUin
p5084
I0
sVAppAccountFlag
p5085
I0
sVVerifyFlag
p5086
I24
sVProvince
p5087
V\u6c5f\u82cf
p5088
sVKeyWord
p5089
Vgh_
p5090
sVRemarkName
p5091
g48
sVPYInitial
p5092
VYQSHF
p5093
sVChatRoomId
p5094
I0
sVIsOwner
p5095
I0
sVHideInputBarFlag
p5096
I0
sVEncryChatRoomId
p5097
g48
sVAttrStatus
p5098
I0
sVSnsFlag
p5099
I0
sVMemberCount
p5100
I0
sVOwnerUin
p5101
I0
sVAlias
p5102
g48
sVSignature
p5103
V\u8fd9\u91cc\u662f\u795e\u56de\u590d\u3001\u9ad8\u7ea7\u9ed1\u3001\u5185\u6db5\u6deb\u624d\u805a\u96c6\u5730\uff0c\u8bf7\u81ea\u89c9\u6295\u5165\u4f60\u7684\u8282\u64cd\u3002
p5104
sVContactFlag
p5105
I3
sVNickName
p5106
V\u4e00\u8d77\u795e\u56de\u590d
p5107
sVRemarkPYQuanPin
p5108
g48
sVHeadImgUrl
p5109
V/cgi-bin/mmwebwx-bin/webwxgeticon?seq=660449681&username=@3aa6b4ba09f8d726a471fc99daa25583&skey=@crypt_870a16cf_8c26e3b8f2f48a5406ce444d0927cfd8
p5110
sVSex
p5111
I0
sVStarFriend
p5112
I0
sVStatues
p5113
I0
sa(dp5114
VUserName
p5115
V@6d783a87a0e9a775b3454430799ccecf
p5116
sVCity
p5117
V\u671d\u9633
p5118
sVDisplayName
p5119
g48
sVUniFriend
p5120
I0
sVMemberList
p5121
(lp5122
sVPYQuanPin
p5123
Vjiqixuexisuanfaquanzhangongchengshi
p5124
sVRemarkPYInitial
p5125
g48
sVUin
p5126
I0
sVAppAccountFlag
p5127
I0
sVVerifyFlag
p5128
I8
sVProvince
p5129
V\u5317\u4eac
p5130
sVKeyWord
p5131
Vgh_
p5132
sVRemarkName
p5133
g48
sVPYInitial
p5134
VJQXXSFQZGCS
p5135
sVChatRoomId
p5136
I0
sVIsOwner
p5137
I0
sVHideInputBarFlag
p5138
I0
sVEncryChatRoomId
p5139
g48
sVAttrStatus
p5140
I0
sVSnsFlag
p5141
I0
sVMemberCount
p5142
I0
sVOwnerUin
p5143
I0
sVAlias
p5144
g48
sVSignature
p5145
V\u672c\u516c\u4f17\u53f7\u4e3b\u8981\u76ee\u6807\u662f\u5e2e\u52a9\u60f3\u8f6c\u884cAI\u9886\u57df\u7684\u5e7f\u5927\u201c\u733f\u53cb\u201d\u4e00\u8d77\u8fdb\u5165\u5b66\u4e60\u673a\u5668\u5b66\u4e60\u7b97\u6cd5\uff0c\u4ee5\u53ca\u5206\u4eab\u4e2a\u4eba\u5bf9\u884c\u4e1a\u7684\u4e00\u4e9b\u5fc3\u5f97\u4f53\u4f1a\u2026\u2026
p5146
sVContactFlag
p5147
I3
sVNickName
p5148
V\u673a\u5668\u5b66\u4e60\u7b97\u6cd5\u5168\u6808\u5de5\u7a0b\u5e08
p5149
sVRemarkPYQuanPin
p5150
g48
sVHeadImgUrl
p5151
V/cgi-bin/mmwebwx-bin/webwxgeticon?seq=660451207&username=@6d783a87a0e9a775b3454430799ccecf&skey=@crypt_870a16cf_8c26e3b8f2f48a5406ce444d0927cfd8
p5152
sVSex
p5153
I0
sVStarFriend
p5154
I0
sVStatues
p5155
I0
sa(dp5156
VUserName
p5157
V@1a73bdf27ad4b39471fa8f6786ca5583
p5158
sVCity
p5159
V\u671d\u9633
p5160
sVDisplayName
p5161
g48
sVUniFriend
p5162
I0
sVMemberList
p5163
(lp5164
sVPYQuanPin
p5165
Vguojiadeliyingxiangjingdian
p5166
sVRemarkPYInitial
p5167
g48
sVUin
p5168
I0
sVAppAccountFlag
p5169
I0
sVVerifyFlag
p5170
I24
sVProvince
p5171
V\u5317\u4eac
p5172
sVKeyWord
p5173
Vgh_
p5174
sVRemarkName
p5175
g48
sVPYInitial
p5176
VGJDLYXJD
p5177
sVChatRoomId
p5178
I0
sVIsOwner
p5179
I0
sVHideInputBarFlag
p5180
I0
sVEncryChatRoomId
p5181
g48
sVAttrStatus
p5182
I0
sVSnsFlag
p5183
I0
sVMemberCount
p5184
I0
sVOwnerUin
p5185
I0
sVAlias
p5186
g48
sVSignature
p5187
V\u56fd\u5bb6\u5730\u7406\u5f71\u50cf\u7ecf\u5178
p5188
sVContactFlag
p5189
I3
sVNickName
p5190
V\u56fd\u5bb6\u5730\u7406\u5f71\u50cf\u7ecf\u5178
p5191
sVRemarkPYQuanPin
p5192
g48
sVHeadImgUrl
p5193
V/cgi-bin/mmwebwx-bin/webwxgeticon?seq=660452249&username=@1a73bdf27ad4b39471fa8f6786ca5583&skey=@crypt_870a16cf_8c26e3b8f2f48a5406ce444d0927cfd8
p5194
sVSex
p5195
I0
sVStarFriend
p5196
I0
sVStatues
p5197
I0
sa(dp5198
VUserName
p5199
V@5438385591b29c2120c40dea42e2b1be
p5200
sVCity
p5201
V\u5e7f\u5dde
p5202
sVDisplayName
p5203
g48
sVUniFriend
p5204
I0
sVMemberList
p5205
(lp5206
sVPYQuanPin
p5207
VyiyinyizhuoVideo
p5208
sVRemarkPYInitial
p5209
g48
sVUin
p5210
I0
sVAppAccountFlag
p5211
I0
sVVerifyFlag
p5212
I24
sVProvince
p5213
V\u5e7f\u4e1c
p5214
sVKeyWord
p5215
Vgh_
p5216
sVRemarkName
p5217
g48
sVPYInitial
p5218
VYYYZVIDEO
p5219
sVChatRoomId
p5220
I0
sVIsOwner
p5221
I0
sVHideInputBarFlag
p5222
I0
sVEncryChatRoomId
p5223
g48
sVAttrStatus
p5224
I0
sVSnsFlag
p5225
I0
sVMemberCount
p5226
I0
sVOwnerUin
p5227
I0
sVAlias
p5228
g48
sVSignature
p5229
V\u656c\u7231\u7684\u7f8e\u98df\uff0c\u4eb2\u7231\u7684\u4e66\u3002
p5230
sVContactFlag
p5231
I3
sVNickName
p5232
V\u4e00\u996e\u4e00\u5544Video
p5233
sVRemarkPYQuanPin
p5234
g48
sVHeadImgUrl
p5235
V/cgi-bin/mmwebwx-bin/webwxgeticon?seq=660474015&username=@5438385591b29c2120c40dea42e2b1be&skey=@crypt_870a16cf_8c26e3b8f2f48a5406ce444d0927cfd8
p5236
sVSex
p5237
I0
sVStarFriend
p5238
I0
sVStatues
p5239
I0
sa(dp5240
VUserName
p5241
V@d1a0de1ba9fb84bec3ae34d7b0f2a8eb
p5242
sVCity
p5243
g48
sVDisplayName
p5244
g48
sVUniFriend
p5245
I0
sVMemberList
p5246
(lp5247
sVPYQuanPin
p5248
Vweixinzhifu
p5249
sVRemarkPYInitial
p5250
g48
sVUin
p5251
I0
sVAppAccountFlag
p5252
I0
sVVerifyFlag
p5253
I24
sVProvince
p5254
V\u5e7f\u4e1c
p5255
sVKeyWord
p5256
Vgh_
p5257
sVRemarkName
p5258
g48
sVPYInitial
p5259
VWXZF
p5260
sVChatRoomId
p5261
I0
sVIsOwner
p5262
I0
sVHideInputBarFlag
p5263
I0
sVEncryChatRoomId
p5264
g48
sVAttrStatus
p5265
I0
sVSnsFlag
p5266
I0
sVMemberCount
p5267
I0
sVOwnerUin
p5268
I0
sVAlias
p5269
g48
sVSignature
p5270
V\u5e2e\u52a9\u89e3\u51b3\u5fae\u4fe1\u652f\u4ed8\u4e2d\u9047\u5230\u7684\u56f0\u96be\uff0c\u6536\u96c6\u5173\u4e8e\u5fae\u4fe1\u652f\u4ed8\u7684\u5efa\u8bae\u53cd\u9988\u3002
p5271
sVContactFlag
p5272
I1
sVNickName
p5273
V\u5fae\u4fe1\u652f\u4ed8
p5274
sVRemarkPYQuanPin
p5275
g48
sVHeadImgUrl
p5276
V/cgi-bin/mmwebwx-bin/webwxgeticon?seq=620621434&username=@d1a0de1ba9fb84bec3ae34d7b0f2a8eb&skey=@crypt_870a16cf_8c26e3b8f2f48a5406ce444d0927cfd8
p5277
sVSex
p5278
I0
sVStarFriend
p5279
I0
sVStatues
p5280
I0
sa(dp5281
VUserName
p5282
V@792b6cd2d360ceef2ac3a07b1c2b09d0
p5283
sVCity
p5284
V\u671d\u9633
p5285
sVDisplayName
p5286
g48
sVUniFriend
p5287
I0
sVMemberList
p5288
(lp5289
sVPYQuanPin
p5290
Vddxxionglaile
p5291
sVRemarkPYInitial
p5292
g48
sVUin
p5293
I0
sVAppAccountFlag
p5294
I0
sVVerifyFlag
p5295
I24
sVProvince
p5296
V\u5317\u4eac
p5297
sVKeyWord
p5298
Vgh_
p5299
sVRemarkName
p5300
g48
sVPYInitial
p5301
VDDXXLL
p5302
sVChatRoomId
p5303
I0
sVIsOwner
p5304
I0
sVHideInputBarFlag
p5305
I0
sVEncryChatRoomId
p5306
g48
sVAttrStatus
p5307
I0
sVSnsFlag
p5308
I0
sVMemberCount
p5309
I0
sVOwnerUin
p5310
I0
sVAlias
p5311
g48
sVSignature
p5312
V\u65e0\u8bba\u662f\u5b66\u5386\u6559\u80b2\u3001IT\u57f9\u8bad\uff0c\u8fd8\u662f\u8bed\u8a00\u57f9\u8bad\u3001\u827a\u672f\u7c7b\u57f9\u8bad\u3001\u804c\u4e1a\u6280\u80fd\u57f9\u8bad\u3001\u6d77\u5916\u7559\u5b66\u9879\u76ee\uff0c\u8d37\u8d37\u718a\u59cb\u7ec8\u79c9\u627f\u201c\u4e3a\u68a6\u60f3\u8005\u70b9\u4eae\u672a\u6765\u201d\u7684\u5b97\u65e8\uff0c\u6839\u636e\u6559\u80b2\u57f9\u8bad\u673a\u6784\u7684\u7279\u70b9\uff0c\u7ed3\u5408\u5b66\u751f\u7684\u5177\u4f53\u9700\u6c42\uff0c\u91cf\u8eab\u5b9a\u505a\u4e0d\u540c\u7684\u89e3\u51b3\u65b9\u6848\uff0c\u4f7f\u5b66\u751f\u53ef\u4ee5\u8f7b\u677e\u901a\u8fc7\u5206\u671f\u4ed8\u6b3e\u6765\u5b8c\u6210\u5b66\u4e1a\u3002
p5313
sVContactFlag
p5314
I1
sVNickName
p5315
Vddx\u718a\u6765\u4e86
p5316
sVRemarkPYQuanPin
p5317
g48
sVHeadImgUrl
p5318
V/cgi-bin/mmwebwx-bin/webwxgeticon?seq=645199395&username=@792b6cd2d360ceef2ac3a07b1c2b09d0&skey=@crypt_870a16cf_8c26e3b8f2f48a5406ce444d0927cfd8
p5319
sVSex
p5320
I0
sVStarFriend
p5321
I0
sVStatues
p5322
I0
sa(dp5323
VUserName
p5324
V@33b98420500b4e7d23b95d7b918d5599
p5325
sVCity
p5326
V\u671d\u9633
p5327
sVDisplayName
p5328
g48
sVUniFriend
p5329
I0
sVMemberList
p5330
(lp5331
sVPYQuanPin
p5332
Vchangyougongyuan
p5333
sVRemarkPYInitial
p5334
g48
sVUin
p5335
I0
sVAppAccountFlag
p5336
I0
sVVerifyFlag
p5337
I24
sVProvince
p5338
V\u5317\u4eac
p5339
sVKeyWord
p5340
Vgh_
p5341
sVRemarkName
p5342
g48
sVPYInitial
p5343
VCYGY
p5344
sVChatRoomId
p5345
I0
sVIsOwner
p5346
I0
sVHideInputBarFlag
p5347
I0
sVEncryChatRoomId
p5348
g48
sVAttrStatus
p5349
I0
sVSnsFlag
p5350
I0
sVMemberCount
p5351
I0
sVOwnerUin
p5352
I0
sVAlias
p5353
g48
sVSignature
p5354
V\u5317\u4eac\u5e02\u5c5e\u516c\u56ed\u7535\u5b50\u7968\u8d2d\u7968\u5e73\u53f0
p5355
sVContactFlag
p5356
I1
sVNickName
p5357
V\u7545\u6e38\u516c\u56ed
p5358
sVRemarkPYQuanPin
p5359
g48
sVHeadImgUrl
p5360
V/cgi-bin/mmwebwx-bin/webwxgeticon?seq=660494403&username=@33b98420500b4e7d23b95d7b918d5599&skey=@crypt_870a16cf_8c26e3b8f2f48a5406ce444d0927cfd8
p5361
sVSex
p5362
I0
sVStarFriend
p5363
I0
sVStatues
p5364
I0
sassS'loginInfo'
p5365
(dp5366
S'SyncKey'
p5367
(dp5368
VCount
p5369
I4
sVList
p5370
(lp5371
(dp5372
VVal
p5373
I660497370
sVKey
p5374
I1
sa(dp5375
VVal
p5376
I660497402
sVKey
p5377
I2
sa(dp5378
VVal
p5379
I660497246
sVKey
p5380
I3
sa(dp5381
VVal
p5382
I1510293154
sVKey
p5383
I1000
sassS'syncUrl'
p5384
S'https://webpush.wx.qq.com/cgi-bin/mmwebwx-bin'
p5385
sS'skey'
p5386
V@crypt_870a16cf_8c26e3b8f2f48a5406ce444d0927cfd8
p5387
sS'wxuin'
p5388
V1835068021
p5389
sS'synckey'
p5390
S'1_660497370|2_660497402|3_660497246|1000_1510293154'
p5391
sS'url'
p5392
Vhttps://wx.qq.com/cgi-bin/mmwebwx-bin
p5393
sS'pass_ticket'
p5394
V1ZqDBq3HOZ1%2BYoQGtZlGb8g3YornJxODMpaf%2BDB7PP5yRZ5X7TJEBws2AlosgNMe
p5395
sS'wxsid'
p5396
VTxYtVmzgFC1Vl06n
p5397
sS'User'
p5398
g35
sS'InviteStartCount'
p5399
I40
sS'fileUrl'
p5400
S'https://file.wx.qq.com/cgi-bin/mmwebwx-bin'
p5401
sS'BaseRequest'
p5402
(dp5403
g77
g5389
sS'Skey'
p5404
g5387
sS'DeviceID'
p5405
g5395
sS'Sid'
p5406
g5397
ssS'deviceid'
p5407
S'e127321541561639'
p5408
ss.