(dp0
S'cookies'
p1
(dp2
S'wxloadtime'
p3
S'1493024989'
p4
sS'webwx_data_ticket'
p5
S'gSfdFestoUrCPSchjwZYDmq9'
p6
sS'wxuin'
p7
S'1835068021'
p8
sS'login_frequency'
p9
S'2'
p10
sS'MM_WX_NOTIFY_STATE'
p11
S'1'
p12
sS'MM_WX_SOUND_STATE'
p13
g12
sS'webwx_auth_ticket'
p14
S'CIsBEMvO3K8EGoABDm+7e+9DxMuPCfSjcTyN+sw1lKUkMS+b7sI57t/UJjSfw5Cc3FqkrgXsMFbmp52804U7P///sPdkkwjSoRsjdx9yvgM05HE9MgJ7OViXsLVh6VcQdtQ3IlGuBZsEQ78NuOnWO1vce5MzORTUkJRxz1UhZKYQARqkjQVdjgQZJIw='
p15
sS'last_wxuin'
p16
S'1835068021'
p17
sS'webwxuvid'
p18
S'84aefa150219fdf348f06cdd4ff77e959c1126de5ef624cdd162c7bf5746dbd652c557fb5d27860755b2d6965c6e984f'
p19
sS'wxpluginkey'
p20
S'1493023468'
p21
sS'wxsid'
p22
S'GsRQXiyYAoA3/aNS'
p23
sS'mm_lang'
p24
S'zh_CN'
p25
ssS'version'
p26
S'1.3.5'
p27
sS'storage'
p28
(dp29
S'userName'
p30
V@2dd3b60e092c0df0796ba95aab68f9d5dfbc99674eada7539f602ffb10f14a9c
p31
sS'lastInputUserName'
p32
NsS'memberList'
p33
ccopy_reg
_reconstructor
p34
(citchat.storage.templates
ContactList
p35
c__builtin__
list
p36
(lp37
g34
(citchat.storage.templates
User
p38
c__builtin__
dict
p39
(dp40
S'UserName'
p41
V@2dd3b60e092c0df0796ba95aab68f9d5dfbc99674eada7539f602ffb10f14a9c
p42
sS'City'
p43
V\u5927\u8fde
p44
sS'DisplayName'
p45
S''
p46
sS'UniFriend'
p47
I0
sS'OwnerUin'
p48
I0
sS'MemberList'
p49
g34
(g35
g36
(lp50
tp51
Rp52
I1
bsS'PYQuanPin'
p53
VDAREDEVIL
p54
sS'RemarkPYInitial'
p55
V
p56
sS'Uin'
p57
I1835068021
sS'AppAccountFlag'
p58
I0
sS'VerifyFlag'
p59
I0
sS'Province'
p60
V\u8fbd\u5b81
p61
sS'KeyWord'
p62
g46
sS'RemarkName'
p63
g56
sS'PYInitial'
p64
VDAREDEVIL
p65
sS'ChatRoomId'
p66
I0
sVIsOwner
p67
I0
sS'HideInputBarFlag'
p68
I0
sVHeadImgFlag
p69
I1
sS'EncryChatRoomId'
p70
g46
sS'AttrStatus'
p71
I33691111
sS'SnsFlag'
p72
I17
sS'MemberCount'
p73
I0
sVWebWxPluginSwitch
p74
I1
sS'Alias'
p75
Vlgs1150875937
p76
sS'Signature'
p77
V\u5982\u679c\u6211\u60f3\u4f60\uff0c\u5c31\u7ffb\u4e24\u5ea7\u5c71\uff0c\u8d70\u4e94\u91cc\u8def\uff0c\u53bb\u7275\u4f60\u7684\u624b
p78
sS'ContactFlag'
p79
I5
sS'NickName'
p80
VDAREDEVIL
p81
sS'RemarkPYQuanPin'
p82
g56
sS'HeadImgUrl'
p83
V/cgi-bin/mmwebwx-bin/webwxgeticon?seq=660412909&username=@2dd3b60e092c0df0796ba95aab68f9d5dfbc99674eada7539f602ffb10f14a9c&skey=@crypt_870a16cf_207aee7f546ee349effd29338bf7cbd7
p84
sS'Sex'
p85
I1
sS'StarFriend'
p86
I0
sS'Statues'
p87
I0
stp88
Rp89
I1
bag34
(g38
g39
(dp90
VUserName
p91
V@551f68692863d698f5ac75807a1e926c
p92
sVCity
p93
g56
sVSnsFlag
p94
I49
sVDisplayName
p95
g56
sVUniFriend
p96
I0
sVMemberCount
p97
I0
sVOwnerUin
p98
I0
sVMemberList
p99
g52
sVAlias
p100
g56
sVPYQuanPin
p101
Vniyoumeiyoumengxiang
p102
sVSignature
p103
V\u5bf9\u4e8e\u672a\u6765\u7684\u751f\u6d3b\uff0c\u53ea\u60f3\u6709\u6240\u68a6\uff0c\u6709\u6240\u60f3\uff01\u6709\u6240\u5e0c\u671b\uff01
p104
sVRemarkPYInitial
p105
VWCH
p106
sVContactFlag
p107
I5
sVUin
p108
I0
sVNickName
p109
V\u4f60\u6709\u6ca1\u6709\u68a6\u60f3
p110
sVAppAccountFlag
p111
I0
sVVerifyFlag
p112
I0
sVRemarkPYQuanPin
p113
Vwangchanghua
p114
sVHeadImgUrl
p115
V/cgi-bin/mmwebwx-bin/webwxgeticon?seq=647451210&username=@551f68692863d698f5ac75807a1e926c&skey=@crypt_870a16cf_207aee7f546ee349effd29338bf7cbd7
p116
sVKeyWord
p117
Vhua
p118
sVProvince
p119
g56
sVPYInitial
p120
VNYMYMX
p121
sVRemarkName
p122
V\u738b\u660c\u534e
p123
sVIsOwner
p124
I0
sVSex
p125
I1
sVStarFriend
p126
I0
sVHideInputBarFlag
p127
I0
sVChatRoomId
p128
I0
sVEncryChatRoomId
p129
g56
sVAttrStatus
p130
I107622
sVStatues
p131
I0
stp132
Rp133
I1
bag34
(g38
g39
(dp134
VUserName
p135
V@c16df5522ea78fba7e00a5be275a262c
p136
sVCity
p137
V\u5927\u8fde
p138
sVSnsFlag
p139
I49
sVDisplayName
p140
g56
sVUniFriend
p141
I0
sVMemberCount
p142
I0
sVOwnerUin
p143
I0
sVMemberList
p144
g52
sVAlias
p145
g56
sVPYQuanPin
p146
Vguyu
p147
sVSignature
p148
V\u2605\u4eba\u4e0d\u53ef\u6709\u50b2\u6c14 \u4e0d\u53ef\u65e0\u50b2\u9aa8\u2606
p149
sVRemarkPYInitial
p150
VGFR
p151
sVContactFlag
p152
I1
sVUin
p153
I0
sVNickName
p154
V\u8c37\u96e8
p155
sVAppAccountFlag
p156
I0
sVVerifyFlag
p157
I0
sVRemarkPYQuanPin
p158
Vgufuru
p159
sVHeadImgUrl
p160
V/cgi-bin/mmwebwx-bin/webwxgeticon?seq=626960328&username=@c16df5522ea78fba7e00a5be275a262c&skey=@crypt_870a16cf_207aee7f546ee349effd29338bf7cbd7
p161
sVKeyWord
p162
Vguf
p163
sVProvince
p164
V\u8fbd\u5b81
p165
sVPYInitial
p166
VGY
p167
sVRemarkName
p168
V\u8c37\u5bcc\u5112
p169
sVIsOwner
p170
I0
sVSex
p171
I1
sVStarFriend
p172
I0
sVHideInputBarFlag
p173
I0
sVChatRoomId
p174
I0
sVEncryChatRoomId
p175
g56
sVAttrStatus
p176
I110695
sVStatues
p177
I0
stp178
Rp179
I1
bag34
(g38
g39
(dp180
VUserName
p181
V@75b4a51097f1d30f1512f7f9f6b1b4f95a85473c100255ac96b0824571b4db66
p182
sVCity
p183
V\u5927\u8fde
p184
sVSnsFlag
p185
I17
sVDisplayName
p186
g56
sVUniFriend
p187
I0
sVMemberCount
p188
I0
sVOwnerUin
p189
I0
sVMemberList
p190
g52
sVAlias
p191
Vshang1462154022
p192
sVPYQuanPin
p193
Vdanxiaohongchen
p194
sVSignature
p195
V\u968f\u5fc3\u6240\u6b32\uff0c\u968f\u9047\u800c\u5b89\u3002\u000a\u4e5d\u5929\u4e4b\u4e0a\uff0c\u6211\u8ba9\u4f60\uff1b\u000a\u4e5d\u6cc9\u4e4b\u4e0b\uff0c\u6211\u7b49\u4f60\u3002
p196
sVRemarkPYInitial
p197
VSDX
p198
sVContactFlag
p199
I1
sVUin
p200
I0
sVNickName
p201
V\u6de1\u7b11\u7ea2\u5c18
p202
sVAppAccountFlag
p203
I0
sVVerifyFlag
p204
I0
sVRemarkPYQuanPin
p205
Vshangdongxue
p206
sVHeadImgUrl
p207
V/cgi-bin/mmwebwx-bin/webwxgeticon?seq=629040671&username=@75b4a51097f1d30f1512f7f9f6b1b4f95a85473c100255ac96b0824571b4db66&skey=@crypt_870a16cf_207aee7f546ee349effd29338bf7cbd7
p208
sVKeyWord
p209
g56
sVProvince
p210
V\u8fbd\u5b81
p211
sVPYInitial
p212
VDXHC
p213
sVRemarkName
p214
V\u5c1a\u51ac\u96ea
p215
sVIsOwner
p216
I0
sVSex
p217
I2
sVStarFriend
p218
I0
sVHideInputBarFlag
p219
I0
sVChatRoomId
p220
I0
sVEncryChatRoomId
p221
g56
sVAttrStatus
p222
I135205
sVStatues
p223
I0
stp224
Rp225
I1
bag34
(g38
g39
(dp226
VUserName
p227
V@0005b2793cc671dd1e6b6700f0ecc535f695264a2142162a5e436cf023f54e60
p228
sVCity
p229
V\u5927\u8fde
p230
sVSnsFlag
p231
I49
sVDisplayName
p232
g56
sVUniFriend
p233
I0
sVMemberCount
p234
I0
sVOwnerUin
p235
I0
sVMemberList
p236
g52
sVAlias
p237
VW---xiaodong
p238
sVPYQuanPin
p239
Vxiaodong
p240
sVSignature
p241
V\u4e16\u4e0a\u6ca1\u6709\u51b7\u7537   \u000a   \u53ea\u662f\u4ed6\u6696\u7684\u4e0d\u662f\u4f60
p242
sVRemarkPYInitial
p243
VWXD
p244
sVContactFlag
p245
I1
sVUin
p246
I0
sVNickName
p247
V\u6653\u4e1c
p248
sVAppAccountFlag
p249
I0
sVVerifyFlag
p250
I0
sVRemarkPYQuanPin
p251
Vwangxiaodong
p252
sVHeadImgUrl
p253
V/cgi-bin/mmwebwx-bin/webwxgeticon?seq=648792790&username=@0005b2793cc671dd1e6b6700f0ecc535f695264a2142162a5e436cf023f54e60&skey=@crypt_870a16cf_207aee7f546ee349effd29338bf7cbd7
p254
sVKeyWord
p255
g56
sVProvince
p256
V\u8fbd\u5b81
p257
sVPYInitial
p258
VXD
p259
sVRemarkName
p260
V\u738b\u6653\u4e1c
p261
sVIsOwner
p262
I0
sVSex
p263
I2
sVStarFriend
p264
I0
sVHideInputBarFlag
p265
I0
sVChatRoomId
p266
I0
sVEncryChatRoomId
p267
g56
sVAttrStatus
p268
I16888933
sVStatues
p269
I0
stp270
Rp271
I1
bag34
(g38
g39
(dp272
VUserName
p273
V@663354c20c08516b4900f9eb95742fea
p274
sVCity
p275
V\u846b\u82a6\u5c9b
p276
sVSnsFlag
p277
I17
sVDisplayName
p278
g56
sVUniFriend
p279
I0
sVMemberCount
p280
I0
sVOwnerUin
p281
I0
sVMemberList
p282
g52
sVAlias
p283
g56
sVPYQuanPin
p284
Vyueguang
p285
sVSignature
p286
g56
sVRemarkPYInitial
p287
VWJ
p288
sVContactFlag
p289
I1
sVUin
p290
I0
sVNickName
p291
V\u6708\u5149
p292
sVAppAccountFlag
p293
I0
sVVerifyFlag
p294
I0
sVRemarkPYQuanPin
p295
Vwangjian
p296
sVHeadImgUrl
p297
V/cgi-bin/mmwebwx-bin/webwxgeticon?seq=648796667&username=@663354c20c08516b4900f9eb95742fea&skey=@crypt_870a16cf_207aee7f546ee349effd29338bf7cbd7
p298
sVKeyWord
p299
Vwj5
p300
sVProvince
p301
V\u8fbd\u5b81
p302
sVPYInitial
p303
VYG
p304
sVRemarkName
p305
V\u738b\u575a
p306
sVIsOwner
p307
I0
sVSex
p308
I1
sVStarFriend
p309
I0
sVHideInputBarFlag
p310
I0
sVChatRoomId
p311
I0
sVEncryChatRoomId
p312
g56
sVAttrStatus
p313
I135719
sVStatues
p314
I0
stp315
Rp316
I1
bag34
(g38
g39
(dp317
VUserName
p318
V@55642b72bcd45da774b9d5e0d1c40c09
p319
sVCity
p320
V\u6c88\u9633
p321
sVSnsFlag
p322
I17
sVDisplayName
p323
g56
sVUniFriend
p324
I0
sVMemberCount
p325
I0
sVOwnerUin
p326
I0
sVMemberList
p327
g52
sVAlias
p328
g56
sVPYQuanPin
p329
Vqingwochihuoguobaspanclassemojiemoji2755spanspanclassemojiemoji1f49espan
p330
sVSignature
p331
V\u8c22\u8c22\u4f60\u4eec\uff0c\u7231\u6211\u7684\u6bcf\u4e2a\u4eba
p332
sVRemarkPYInitial
p333
VWN
p334
sVContactFlag
p335
I1
sVUin
p336
I0
sVNickName
p337
V\u8bf7\u6211\u5403\u706b\u9505\u5427\u2755\U0001f49e
p338
sVAppAccountFlag
p339
I0
sVVerifyFlag
p340
I0
sVRemarkPYQuanPin
p341
Vwunan
p342
sVHeadImgUrl
p343
V/cgi-bin/mmwebwx-bin/webwxgeticon?seq=648807227&username=@55642b72bcd45da774b9d5e0d1c40c09&skey=@crypt_870a16cf_207aee7f546ee349effd29338bf7cbd7
p344
sVKeyWord
p345
VM10
p346
sVProvince
p347
V\u8fbd\u5b81
p348
sVPYInitial
p349
VQWCHGBSPANCLASSEMOJIEMOJI2755SPANSPANCLASSEMOJIEMOJI1F49ESPAN
p350
sVRemarkName
p351
V\u5434\u6960
p352
sVIsOwner
p353
I0
sVSex
p354
I2
sVStarFriend
p355
I0
sVHideInputBarFlag
p356
I0
sVChatRoomId
p357
I0
sVEncryChatRoomId
p358
g56
sVAttrStatus
p359
I4135
sVStatues
p360
I0
stp361
Rp362
I1
bag34
(g38
g39
(dp363
VUserName
p364
V@b64392c335b669c6a30bd485bd6352d8051944bde2b393bed1950a3500500eca
p365
sVCity
p366
V\u5927\u8fde
p367
sVSnsFlag
p368
I49
sVDisplayName
p369
g56
sVUniFriend
p370
I0
sVMemberCount
p371
I0
sVOwnerUin
p372
I0
sVMemberList
p373
g52
sVAlias
p374
g56
sVPYQuanPin
p375
Vshangshanreshui
p376
sVSignature
p377
V\u6148\u60b2\u559c\u820d
p378
sVRemarkPYInitial
p379
VYM
p380
sVContactFlag
p381
I65537
sVUin
p382
I0
sVNickName
p383
V\u4e0a\u5584\u82e5\u6c34
p384
sVAppAccountFlag
p385
I0
sVVerifyFlag
p386
I0
sVRemarkPYQuanPin
p387
Vyumin
p388
sVHeadImgUrl
p389
V/cgi-bin/mmwebwx-bin/webwxgeticon?seq=636994748&username=@b64392c335b669c6a30bd485bd6352d8051944bde2b393bed1950a3500500eca&skey=@crypt_870a16cf_207aee7f546ee349effd29338bf7cbd7
p390
sVKeyWord
p391
g56
sVProvince
p392
V\u8fbd\u5b81
p393
sVPYInitial
p394
VSSRS
p395
sVRemarkName
p396
V\u4e8e\u654f
p397
sVIsOwner
p398
I0
sVSex
p399
I2
sVStarFriend
p400
I0
sVHideInputBarFlag
p401
I0
sVChatRoomId
p402
I0
sVEncryChatRoomId
p403
g56
sVAttrStatus
p404
I201469
sVStatues
p405
I0
stp406
Rp407
I1
bag34
(g38
g39
(dp408
VUserName
p409
V@6f2079648edca0bab585d7d2784daca05630613b47eaa92f4c2e9ee93c705db2
p410
sVCity
p411
V\u5927\u8fde
p412
sVSnsFlag
p413
I17
sVDisplayName
p414
g56
sVUniFriend
p415
I0
sVMemberCount
p416
I0
sVOwnerUin
p417
I0
sVMemberList
p418
g52
sVAlias
p419
VPiziYoungTime
p420
sVPYQuanPin
p421
VANDY
p422
sVSignature
p423
VIf it feel easy. Don't do it. Don't let the world spoil you.
p424
sVRemarkPYInitial
p425
VCM
p426
sVContactFlag
p427
I1
sVUin
p428
I0
sVNickName
p429
VANDY
p430
sVAppAccountFlag
p431
I0
sVVerifyFlag
p432
I0
sVRemarkPYQuanPin
p433
Vcuiming
p434
sVHeadImgUrl
p435
V/cgi-bin/mmwebwx-bin/webwxgeticon?seq=648836924&username=@6f2079648edca0bab585d7d2784daca05630613b47eaa92f4c2e9ee93c705db2&skey=@crypt_870a16cf_207aee7f546ee349effd29338bf7cbd7
p436
sVKeyWord
p437
g56
sVProvince
p438
V\u8fbd\u5b81
p439
sVPYInitial
p440
VANDY
p441
sVRemarkName
p442
V\u5d14\u660e
p443
sVIsOwner
p444
I0
sVSex
p445
I1
sVStarFriend
p446
I0
sVHideInputBarFlag
p447
I0
sVChatRoomId
p448
I0
sVEncryChatRoomId
p449
g56
sVAttrStatus
p450
I104549
sVStatues
p451
I0
stp452
Rp453
I1
bag34
(g38
g39
(dp454
VUserName
p455
V@ad40547bb0e5348115cee88b7e1fd72349c72b8f3993b69183d1b6f4476ac1f1
p456
sVCity
p457
V\u5927\u8fde
p458
sVSnsFlag
p459
I17
sVDisplayName
p460
g56
sVUniFriend
p461
I0
sVMemberCount
p462
I0
sVOwnerUin
p463
I0
sVMemberList
p464
g52
sVAlias
p465
Vxh19930519
p466
sVPYQuanPin
p467
Vyexuhuigenghao
p468
sVSignature
p469
V\u575a\u6301\u5c31\u6709\u5e0c\u671b
p470
sVRemarkPYInitial
p471
VXH
p472
sVContactFlag
p473
I1
sVUin
p474
I0
sVNickName
p475
V\u4e5f\u5f90\u3001\u6167\u66f4\u597d
p476
sVAppAccountFlag
p477
I0
sVVerifyFlag
p478
I0
sVRemarkPYQuanPin
p479
Vxuhui
p480
sVHeadImgUrl
p481
V/cgi-bin/mmwebwx-bin/webwxgeticon?seq=648843356&username=@ad40547bb0e5348115cee88b7e1fd72349c72b8f3993b69183d1b6f4476ac1f1&skey=@crypt_870a16cf_207aee7f546ee349effd29338bf7cbd7
p482
sVKeyWord
p483
g56
sVProvince
p484
V\u8fbd\u5b81
p485
sVPYInitial
p486
VYXHGH
p487
sVRemarkName
p488
V\u5f90\u6167
p489
sVIsOwner
p490
I0
sVSex
p491
I2
sVStarFriend
p492
I0
sVHideInputBarFlag
p493
I0
sVChatRoomId
p494
I0
sVEncryChatRoomId
p495
g56
sVAttrStatus
p496
I233661
sVStatues
p497
I0
stp498
Rp499
I1
bag34
(g38
g39
(dp500
VUserName
p501
V@0a2b45b7c2089fe4144d5eec7f991a209349487d8396e9da03e0040d3b141982
p502
sVCity
p503
V\u5927\u8fde
p504
sVSnsFlag
p505
I1
sVDisplayName
p506
g56
sVUniFriend
p507
I0
sVMemberCount
p508
I0
sVOwnerUin
p509
I0
sVMemberList
p510
g52
sVAlias
p511
Vzisu1977
p512
sVPYQuanPin
p513
Vzisu
p514
sVSignature
p515
g56
sVRemarkPYInitial
p516
VJJ
p517
sVContactFlag
p518
I1
sVUin
p519
I0
sVNickName
p520
V\u7d2b\u82cf
p521
sVAppAccountFlag
p522
I0
sVVerifyFlag
p523
I0
sVRemarkPYQuanPin
p524
Vjunjie
p525
sVHeadImgUrl
p526
V/cgi-bin/mmwebwx-bin/webwxgeticon?seq=636998733&username=@0a2b45b7c2089fe4144d5eec7f991a209349487d8396e9da03e0040d3b141982&skey=@crypt_870a16cf_207aee7f546ee349effd29338bf7cbd7
p527
sVKeyWord
p528
g56
sVProvince
p529
V\u8fbd\u5b81
p530
sVPYInitial
p531
VZS
p532
sVRemarkName
p533
V\u4fca\u59d0
p534
sVIsOwner
p535
I0
sVSex
p536
I2
sVStarFriend
p537
I0
sVHideInputBarFlag
p538
I0
sVChatRoomId
p539
I0
sVEncryChatRoomId
p540
g56
sVAttrStatus
p541
I103205
sVStatues
p542
I0
stp543
Rp544
I1
bag34
(g38
g39
(dp545
VUserName
p546
V@dae7cff11f40e8aa965d7141b624e437140ec3c4217c47c387a996a4ec1b910d
p547
sVCity
p548
V\u5927\u8fde
p549
sVSnsFlag
p550
I17
sVDisplayName
p551
g56
sVUniFriend
p552
I0
sVMemberCount
p553
I0
sVOwnerUin
p554
I0
sVMemberList
p555
g52
sVAlias
p556
VFor_life_
p557
sVPYQuanPin
p558
Vbinggunyigenliangmaowu
p559
sVSignature
p560
V\u8eab\u5728\u4ed6\u4e61\uff0c\u5fc3\u5728\u8def\u4e0a\u3002\u3002\u3002
p561
sVRemarkPYInitial
p562
VZXS
p563
sVContactFlag
p564
I5
sVUin
p565
I0
sVNickName
p566
V\u51b0\u68cd\u4e00\u6839\u4e24\u6bdb\u4e94\u3002
p567
sVAppAccountFlag
p568
I0
sVVerifyFlag
p569
I0
sVRemarkPYQuanPin
p570
Vzhangxinshui
p571
sVHeadImgUrl
p572
V/cgi-bin/mmwebwx-bin/webwxgeticon?seq=648847097&username=@dae7cff11f40e8aa965d7141b624e437140ec3c4217c47c387a996a4ec1b910d&skey=@crypt_870a16cf_207aee7f546ee349effd29338bf7cbd7
p573
sVKeyWord
p574
g56
sVProvince
p575
V\u8fbd\u5b81
p576
sVPYInitial
p577
VBGYGLMW
p578
sVRemarkName
p579
V\u5f20\u65b0\u6c34
p580
sVIsOwner
p581
I0
sVSex
p582
I1
sVStarFriend
p583
I0
sVHideInputBarFlag
p584
I0
sVChatRoomId
p585
I0
sVEncryChatRoomId
p586
g56
sVAttrStatus
p587
I33763429
sVStatues
p588
I0
stp589
Rp590
I1
bag34
(g38
g39
(dp591
VUserName
p592
V@24fa748c6ac9dce8007bf84e4d76b5c404e1ce99e1fd86b0cb6f256d5a529bce
p593
sVCity
p594
V\u5eca\u574a
p595
sVSnsFlag
p596
I17
sVDisplayName
p597
g56
sVUniFriend
p598
I0
sVMemberCount
p599
I0
sVOwnerUin
p600
I0
sVMemberList
p601
g52
sVAlias
p602
Vqq405476163
p603
sVPYQuanPin
p604
Vpandong
p605
sVSignature
p606
V\u60f3\u8981\u638c\u63e1\u4e00\u95e8\u9762\u5411\u5de5\u8d44\u7684\u8bed\u8a00\u3002
p607
sVRemarkPYInitial
p608
VGRX
p609
sVContactFlag
p610
I1
sVUin
p611
I0
sVNickName
p612
V\u76fc\u4e1c
p613
sVAppAccountFlag
p614
I0
sVVerifyFlag
p615
I0
sVRemarkPYQuanPin
p616
Vgaorongxuan
p617
sVHeadImgUrl
p618
V/cgi-bin/mmwebwx-bin/webwxgeticon?seq=660408806&username=@24fa748c6ac9dce8007bf84e4d76b5c404e1ce99e1fd86b0cb6f256d5a529bce&skey=@crypt_870a16cf_207aee7f546ee349effd29338bf7cbd7
p619
sVKeyWord
p620
g56
sVProvince
p621
V\u6cb3\u5317
p622
sVPYInitial
p623
VPD
p624
sVRemarkName
p625
V\u9ad8\u8363\u8f69
p626
sVIsOwner
p627
I0
sVSex
p628
I1
sVStarFriend
p629
I0
sVHideInputBarFlag
p630
I0
sVChatRoomId
p631
I0
sVEncryChatRoomId
p632
g56
sVAttrStatus
p633
I69671
sVStatues
p634
I0
stp635
Rp636
I1
bag34
(g38
g39
(dp637
VUserName
p638
V@5889ef11d0130dc38eda48095afab6d3855d6c2c1758b8999942f2b6998480e8
p639
sVCity
p640
V\u5927\u8fde
p641
sVSnsFlag
p642
I1
sVDisplayName
p643
g56
sVUniFriend
p644
I0
sVMemberCount
p645
I0
sVOwnerUin
p646
I0
sVMemberList
p647
g52
sVAlias
p648
g56
sVPYQuanPin
p649
Vjianjiandandan
p650
sVSignature
p651
g56
sVRemarkPYInitial
p652
VLG
p653
sVContactFlag
p654
I1
sVUin
p655
I0
sVNickName
p656
V\u7b80\u7b80\u4e39\u4e39
p657
sVAppAccountFlag
p658
I0
sVVerifyFlag
p659
I0
sVRemarkPYQuanPin
p660
Vlaogu
p661
sVHeadImgUrl
p662
V/cgi-bin/mmwebwx-bin/webwxgeticon?seq=643035702&username=@5889ef11d0130dc38eda48095afab6d3855d6c2c1758b8999942f2b6998480e8&skey=@crypt_870a16cf_207aee7f546ee349effd29338bf7cbd7
p663
sVKeyWord
p664
g56
sVProvince
p665
V\u8fbd\u5b81
p666
sVPYInitial
p667
VJJDD
p668
sVRemarkName
p669
V\u8001\u59d1
p670
sVIsOwner
p671
I0
sVSex
p672
I2
sVStarFriend
p673
I0
sVHideInputBarFlag
p674
I0
sVChatRoomId
p675
I0
sVEncryChatRoomId
p676
g56
sVAttrStatus
p677
L2147487781L
sVStatues
p678
I0
stp679
Rp680
I1
bag34
(g38
g39
(dp681
VUserName
p682
V@e0904eaff4d5cb480096e1446b6e5acc
p683
sVCity
p684
V\u5927\u8fde
p685
sVSnsFlag
p686
I49
sVDisplayName
p687
g56
sVUniFriend
p688
I0
sVMemberCount
p689
I0
sVOwnerUin
p690
I0
sVMemberList
p691
g52
sVAlias
p692
g56
sVPYQuanPin
p693
Vqigehaomingzhennan
p694
sVSignature
p695
V\u4f60\u82e5\u5b89\u597d\uff0c\u4fbf\u662f\u6674\u5929\u3002\u60c5\u4e0d\u77e5\u6240\u8d77\uff0c\u4e00\u5f80\u800c\u6df1\u3002
p696
sVRemarkPYInitial
p697
VLG
p698
sVContactFlag
p699
I1
sVUin
p700
I0
sVNickName
p701
V\u8d77\u4e2a\u597d\u540d\u771f\u96be
p702
sVAppAccountFlag
p703
I0
sVVerifyFlag
p704
I0
sVRemarkPYQuanPin
p705
Vlongge
p706
sVHeadImgUrl
p707
V/cgi-bin/mmwebwx-bin/webwxgeticon?seq=648784334&username=@e0904eaff4d5cb480096e1446b6e5acc&skey=@crypt_870a16cf_207aee7f546ee349effd29338bf7cbd7
p708
sVKeyWord
p709
Vxia
p710
sVProvince
p711
V\u8fbd\u5b81
p712
sVPYInitial
p713
VQGHMZN
p714
sVRemarkName
p715
V\u9f99\u54e5
p716
sVIsOwner
p717
I0
sVSex
p718
I1
sVStarFriend
p719
I0
sVHideInputBarFlag
p720
I0
sVChatRoomId
p721
I0
sVEncryChatRoomId
p722
g56
sVAttrStatus
p723
L2147595767L
sVStatues
p724
I0
stp725
Rp726
I1
bag34
(g38
g39
(dp727
VUserName
p728
V@319fc199e6528091aca5aff94736995890e1f700dcb74b98d52d499d659145ed
p729
sVCity
p730
V\u6c88\u9633
p731
sVSnsFlag
p732
I17
sVDisplayName
p733
g56
sVUniFriend
p734
I0
sVMemberCount
p735
I0
sVOwnerUin
p736
I0
sVMemberList
p737
g52
sVAlias
p738
g56
sVPYQuanPin
p739
Vtao
p740
sVSignature
p741
V\u6211\u7ed9\u4f60\u7684\u7231\uff0c\u4f60\u4e22\u5230\u4e86\u54ea\u91cc\u3002
p742
sVRemarkPYInitial
p743
VNCT
p744
sVContactFlag
p745
I1
sVUin
p746
I0
sVNickName
p747
V\u6d9b
p748
sVAppAccountFlag
p749
I0
sVVerifyFlag
p750
I0
sVRemarkPYQuanPin
p751
Vnichengtao
p752
sVHeadImgUrl
p753
V/cgi-bin/mmwebwx-bin/webwxgeticon?seq=660400842&username=@319fc199e6528091aca5aff94736995890e1f700dcb74b98d52d499d659145ed&skey=@crypt_870a16cf_207aee7f546ee349effd29338bf7cbd7
p754
sVKeyWord
p755
g56
sVProvince
p756
V\u8fbd\u5b81
p757
sVPYInitial
p758
VT
p759
sVRemarkName
p760
V\u502a\u7a0b\u6d9b
p761
sVIsOwner
p762
I0
sVSex
p763
I1
sVStarFriend
p764
I0
sVHideInputBarFlag
p765
I0
sVChatRoomId
p766
I0
sVEncryChatRoomId
p767
g56
sVAttrStatus
p768
I102437
sVStatues
p769
I0
stp770
Rp771
I1
bag34
(g38
g39
(dp772
VUserName
p773
V@acba000781eaf52b7a9fa3f2cff2d441b5da8532528ac345869d323a5b503583
p774
sVCity
p775
V\u4fdd\u5b9a
p776
sVSnsFlag
p777
I1
sVDisplayName
p778
g56
sVUniFriend
p779
I0
sVMemberCount
p780
I0
sVOwnerUin
p781
I0
sVMemberList
p782
g52
sVAlias
p783
Vwoshimrshen
p784
sVPYQuanPin
p785
Vshangdichuanshangletadeqiuyi
p786
sVSignature
p787
V18531241146
p788
sVRemarkPYInitial
p789
VQJ
p790
sVContactFlag
p791
I1
sVUin
p792
I0
sVNickName
p793
V\u4e0a\u5e1d\u7a7f\u4e0a\u4e86\u4ed6\u7684\u7403\u8863
p794
sVAppAccountFlag
p795
I0
sVVerifyFlag
p796
I0
sVRemarkPYQuanPin
p797
Vqiji
p798
sVHeadImgUrl
p799
V/cgi-bin/mmwebwx-bin/webwxgeticon?seq=641995109&username=@acba000781eaf52b7a9fa3f2cff2d441b5da8532528ac345869d323a5b503583&skey=@crypt_870a16cf_207aee7f546ee349effd29338bf7cbd7
p800
sVKeyWord
p801
g56
sVProvince
p802
V\u6cb3\u5317
p803
sVPYInitial
p804
VSDCSLTDQY
p805
sVRemarkName
p806
V\u9f50\u7eaa
p807
sVIsOwner
p808
I0
sVSex
p809
I1
sVStarFriend
p810
I0
sVHideInputBarFlag
p811
I0
sVChatRoomId
p812
I0
sVEncryChatRoomId
p813
g56
sVAttrStatus
p814
I4197
sVStatues
p815
I0
stp816
Rp817
I1
bag34
(g38
g39
(dp818
VUserName
p819
V@88108833e000d32f142436aea216a15c2640378b4c17aa41b2b16326923301b7
p820
sVCity
p821
V\u671d\u9633
p822
sVSnsFlag
p823
I17
sVDisplayName
p824
g56
sVUniFriend
p825
I0
sVMemberCount
p826
I0
sVOwnerUin
p827
I0
sVMemberList
p828
g52
sVAlias
p829
VL13691237784
p830
sVPYQuanPin
p831
Vweilai
p832
sVSignature
p833
V\u840c
p834
sVRemarkPYInitial
p835
VES
p836
sVContactFlag
p837
I65537
sVUin
p838
I0
sVNickName
p839
V\u672a\u6765
p840
sVAppAccountFlag
p841
I0
sVVerifyFlag
p842
I0
sVRemarkPYQuanPin
p843
Vershu
p844
sVHeadImgUrl
p845
V/cgi-bin/mmwebwx-bin/webwxgeticon?seq=643030137&username=@88108833e000d32f142436aea216a15c2640378b4c17aa41b2b16326923301b7&skey=@crypt_870a16cf_207aee7f546ee349effd29338bf7cbd7
p846
sVKeyWord
p847
g56
sVProvince
p848
V\u5317\u4eac
p849
sVPYInitial
p850
VWL
p851
sVRemarkName
p852
V\u4e8c\u53d4
p853
sVIsOwner
p854
I0
sVSex
p855
I1
sVStarFriend
p856
I0
sVHideInputBarFlag
p857
I0
sVChatRoomId
p858
I0
sVEncryChatRoomId
p859
g56
sVAttrStatus
p860
I45157
sVStatues
p861
I0
stp862
Rp863
I1
bag34
(g38
g39
(dp864
VUserName
p865
V@1c5ec41d8e79ca9d4a2168090ea91c837f9bbe6291cf7127d9801ca094d3bdf1
p866
sVCity
p867
V\u671d\u9633
p868
sVSnsFlag
p869
I17
sVDisplayName
p870
g56
sVUniFriend
p871
I0
sVMemberCount
p872
I0
sVOwnerUin
p873
I0
sVMemberList
p874
g52
sVAlias
p875
g56
sVPYQuanPin
p876
Vjiayouernv
p877
sVSignature
p878
V\u6212\u6307\u7ed9\u4f60\u6234\u5728\u4e86\u65e0\u540d\u6307\u5c31\u8981\u548c\u4f60\u76f8\u5b88\u4e00\u8f88\u5b50
p879
sVRemarkPYInitial
p880
VLS
p881
sVContactFlag
p882
I1
sVUin
p883
I0
sVNickName
p884
V\u5bb6\u6709\u513f\u5973
p885
sVAppAccountFlag
p886
I0
sVVerifyFlag
p887
I0
sVRemarkPYQuanPin
p888
Vlaoshu
p889
sVHeadImgUrl
p890
V/cgi-bin/mmwebwx-bin/webwxgeticon?seq=648843215&username=@1c5ec41d8e79ca9d4a2168090ea91c837f9bbe6291cf7127d9801ca094d3bdf1&skey=@crypt_870a16cf_207aee7f546ee349effd29338bf7cbd7
p891
sVKeyWord
p892
g56
sVProvince
p893
V\u5317\u4eac
p894
sVPYInitial
p895
VJYEN
p896
sVRemarkName
p897
V\u8001\u53d4
p898
sVIsOwner
p899
I0
sVSex
p900
I1
sVStarFriend
p901
I0
sVHideInputBarFlag
p902
I0
sVChatRoomId
p903
I0
sVEncryChatRoomId
p904
g56
sVAttrStatus
p905
I102501
sVStatues
p906
I0
stp907
Rp908
I1
bag34
(g38
g39
(dp909
VUserName
p910
V@29a4f4c80efcd75be12eb97fc1043b01e9345dc6a55bd04dbb8389f431891e2f
p911
sVCity
p912
V\u5927\u8fde
p913
sVSnsFlag
p914
I1
sVDisplayName
p915
g56
sVUniFriend
p916
I0
sVMemberCount
p917
I0
sVOwnerUin
p918
I0
sVMemberList
p919
g52
sVAlias
p920
VLiu9996000
p921
sVPYQuanPin
p922
Vqiyue
p923
sVSignature
p924
V\u6d6e\u751f\u957f\u6068\u6b22\u5a31\u5c11\uff0c\u80af\u7231\u5343\u91d1\u8f7b\u4e00\u7b11.
p925
sVRemarkPYInitial
p926
VXX
p927
sVContactFlag
p928
I1
sVUin
p929
I0
sVNickName
p930
V\u67d2\u6708
p931
sVAppAccountFlag
p932
I0
sVVerifyFlag
p933
I0
sVRemarkPYQuanPin
p934
Vxinxin
p935
sVHeadImgUrl
p936
V/cgi-bin/mmwebwx-bin/webwxgeticon?seq=648815977&username=@29a4f4c80efcd75be12eb97fc1043b01e9345dc6a55bd04dbb8389f431891e2f&skey=@crypt_870a16cf_207aee7f546ee349effd29338bf7cbd7
p937
sVKeyWord
p938
g56
sVProvince
p939
V\u8fbd\u5b81
p940
sVPYInitial
p941
VQY
p942
sVRemarkName
p943
V\u946b\u946b
p944
sVIsOwner
p945
I0
sVSex
p946
I1
sVStarFriend
p947
I0
sVHideInputBarFlag
p948
I0
sVChatRoomId
p949
I0
sVEncryChatRoomId
p950
g56
sVAttrStatus
p951
I4197
sVStatues
p952
I0
stp953
Rp954
I1
bag34
(g38
g39
(dp955
VUserName
p956
V@731c33e0ea02ffc6d9e2d5fd174c99c96dce31108f8d41c01ca01e5e329a8b10
p957
sVCity
p958
V\u5546\u6d1b
p959
sVSnsFlag
p960
I17
sVDisplayName
p961
g56
sVUniFriend
p962
I0
sVMemberCount
p963
I0
sVOwnerUin
p964
I0
sVMemberList
p965
g52
sVAlias
p966
Vzhangjian1376085216
p967
sVPYQuanPin
p968
Vzhangjian
p969
sVSignature
p970
V\u65e2\u7136\u9009\u62e9\u4e86\u8fdc\u65b9\uff0c\u5c31\u8be5\u98ce\u96e8\u517c\u7a0b\uff01\uff01\uff01
p971
sVRemarkPYInitial
p972
VZJ
p973
sVContactFlag
p974
I1
sVUin
p975
I0
sVNickName
p976
V\u5f20\u5065
p977
sVAppAccountFlag
p978
I0
sVVerifyFlag
p979
I0
sVRemarkPYQuanPin
p980
Vzhangjian
p981
sVHeadImgUrl
p982
V/cgi-bin/mmwebwx-bin/webwxgeticon?seq=660409928&username=@731c33e0ea02ffc6d9e2d5fd174c99c96dce31108f8d41c01ca01e5e329a8b10&skey=@crypt_870a16cf_207aee7f546ee349effd29338bf7cbd7
p983
sVKeyWord
p984
g56
sVProvince
p985
V\u9655\u897f
p986
sVPYInitial
p987
VZJ
p988
sVRemarkName
p989
V\u5f20\u5065
p990
sVIsOwner
p991
I0
sVSex
p992
I1
sVStarFriend
p993
I0
sVHideInputBarFlag
p994
I0
sVChatRoomId
p995
I0
sVEncryChatRoomId
p996
g56
sVAttrStatus
p997
I29799
sVStatues
p998
I0
stp999
Rp1000
I1
bag34
(g38
g39
(dp1001
VUserName
p1002
V@00b9a97b429e13bcd3c57d75de7d045a
p1003
sVCity
p1004
V\u6000\u67d4
p1005
sVSnsFlag
p1006
I49
sVDisplayName
p1007
g56
sVUniFriend
p1008
I0
sVMemberCount
p1009
I0
sVOwnerUin
p1010
I0
sVMemberList
p1011
g52
sVAlias
p1012
g56
sVPYQuanPin
p1013
Vlaizai
p1014
sVSignature
p1015
V\u4e0d\u662f\u4e0d\u80fd\uff0c\u53ea\u662f\u4e0d\u60f3\uff01
p1016
sVRemarkPYInitial
p1017
VWL
p1018
sVContactFlag
p1019
I1
sVUin
p1020
I0
sVNickName
p1021
V\u6765\u4ed4
p1022
sVAppAccountFlag
p1023
I0
sVVerifyFlag
p1024
I0
sVRemarkPYQuanPin
p1025
Vweilai
p1026
sVHeadImgUrl
p1027
V/cgi-bin/mmwebwx-bin/webwxgeticon?seq=660414552&username=@00b9a97b429e13bcd3c57d75de7d045a&skey=@crypt_870a16cf_207aee7f546ee349effd29338bf7cbd7
p1028
sVKeyWord
p1029
Vwl4
p1030
sVProvince
p1031
V\u5317\u4eac
p1032
sVPYInitial
p1033
VLZ
p1034
sVRemarkName
p1035
V\u9b4f\u6765
p1036
sVIsOwner
p1037
I0
sVSex
p1038
I1
sVStarFriend
p1039
I0
sVHideInputBarFlag
p1040
I0
sVChatRoomId
p1041
I0
sVEncryChatRoomId
p1042
g56
sVAttrStatus
p1043
I98407
sVStatues
p1044
I0
stp1045
Rp1046
I1
bag34
(g38
g39
(dp1047
VUserName
p1048
V@9a75544e30d6a476c2550a053a638cda0c746d9b0a09271bc81c669c1b88b7c8
p1049
sVCity
p1050
V\u961c\u65b0
p1051
sVSnsFlag
p1052
I1
sVDisplayName
p1053
g56
sVUniFriend
p1054
I0
sVMemberCount
p1055
I0
sVOwnerUin
p1056
I0
sVMemberList
p1057
g52
sVAlias
p1058
Vwangxiaoyuse
p1059
sVPYQuanPin
p1060
Vmobing
p1061
sVSignature
p1062
g56
sVRemarkPYInitial
p1063
VWXY
p1064
sVContactFlag
p1065
I1
sVUin
p1066
I0
sVNickName
p1067
V\u58a8\u51b0
p1068
sVAppAccountFlag
p1069
I0
sVVerifyFlag
p1070
I0
sVRemarkPYQuanPin
p1071
Vwangxiaoyu
p1072
sVHeadImgUrl
p1073
V/cgi-bin/mmwebwx-bin/webwxgeticon?seq=660404250&username=@9a75544e30d6a476c2550a053a638cda0c746d9b0a09271bc81c669c1b88b7c8&skey=@crypt_870a16cf_207aee7f546ee349effd29338bf7cbd7
p1074
sVKeyWord
p1075
g56
sVProvince
p1076
V\u8fbd\u5b81
p1077
sVPYInitial
p1078
VMB
p1079
sVRemarkName
p1080
V\u738b\u6653\u96e8
p1081
sVIsOwner
p1082
I0
sVSex
p1083
I1
sVStarFriend
p1084
I0
sVHideInputBarFlag
p1085
I0
sVChatRoomId
p1086
I0
sVEncryChatRoomId
p1087
g56
sVAttrStatus
p1088
I135653
sVStatues
p1089
I0
stp1090
Rp1091
I1
bag34
(g38
g39
(dp1092
VUserName
p1093
V@0fd45b8e4f7911d1bb127a06f87167f6ae0fae03f84c38677c8d639292004154
p1094
sVCity
p1095
g56
sVSnsFlag
p1096
I0
sVDisplayName
p1097
g56
sVUniFriend
p1098
I0
sVMemberCount
p1099
I0
sVOwnerUin
p1100
I0
sVMemberList
p1101
g52
sVAlias
p1102
g56
sVPYQuanPin
p1103
Vchangxiu
p1104
sVSignature
p1105
g56
sVRemarkPYInitial
p1106
VEG
p1107
sVContactFlag
p1108
I1
sVUin
p1109
I0
sVNickName
p1110
V\u957f\u79c0
p1111
sVAppAccountFlag
p1112
I0
sVVerifyFlag
p1113
I0
sVRemarkPYQuanPin
p1114
Vergu
p1115
sVHeadImgUrl
p1116
V/cgi-bin/mmwebwx-bin/webwxgeticon?seq=648834811&username=@0fd45b8e4f7911d1bb127a06f87167f6ae0fae03f84c38677c8d639292004154&skey=@crypt_870a16cf_207aee7f546ee349effd29338bf7cbd7
p1117
sVKeyWord
p1118
g56
sVProvince
p1119
g56
sVPYInitial
p1120
VCX
p1121
sVRemarkName
p1122
V\u4e8c\u59d1
p1123
sVIsOwner
p1124
I0
sVSex
p1125
I0
sVStarFriend
p1126
I0
sVHideInputBarFlag
p1127
I0
sVChatRoomId
p1128
I0
sVEncryChatRoomId
p1129
g56
sVAttrStatus
p1130
I4133
sVStatues
p1131
I0
stp1132
Rp1133
I1
bag34
(g38
g39
(dp1134
VUserName
p1135
V@88e74b6541ec376d8eca9d119b154e26c74e20f74a8c961b2884128b0559284e
p1136
sVCity
p1137
V\u671d\u9633
p1138
sVSnsFlag
p1139
I1
sVDisplayName
p1140
g56
sVUniFriend
p1141
I0
sVMemberCount
p1142
I0
sVOwnerUin
p1143
I0
sVMemberList
p1144
g52
sVAlias
p1145
Vlcf18311166758
p1146
sVPYQuanPin
p1147
Vchangfen
p1148
sVSignature
p1149
g56
sVRemarkPYInitial
p1150
VSG
p1151
sVContactFlag
p1152
I1
sVUin
p1153
I0
sVNickName
p1154
V\u957f\u82ac
p1155
sVAppAccountFlag
p1156
I0
sVVerifyFlag
p1157
I0
sVRemarkPYQuanPin
p1158
Vsangu
p1159
sVHeadImgUrl
p1160
V/cgi-bin/mmwebwx-bin/webwxgeticon?seq=660409582&username=@88e74b6541ec376d8eca9d119b154e26c74e20f74a8c961b2884128b0559284e&skey=@crypt_870a16cf_207aee7f546ee349effd29338bf7cbd7
p1161
sVKeyWord
p1162
g56
sVProvince
p1163
V\u5317\u4eac
p1164
sVPYInitial
p1165
VCF
p1166
sVRemarkName
p1167
V\u4e09\u59d1
p1168
sVIsOwner
p1169
I0
sVSex
p1170
I1
sVStarFriend
p1171
I0
sVHideInputBarFlag
p1172
I0
sVChatRoomId
p1173
I0
sVEncryChatRoomId
p1174
g56
sVAttrStatus
p1175
I102469
sVStatues
p1176
I0
stp1177
Rp1178
I1
bag34
(g38
g39
(dp1179
VUserName
p1180
V@6b8393983857d877fc4ab55f767c3281
p1181
sVCity
p1182
V\u5927\u5174
p1183
sVSnsFlag
p1184
I17
sVDisplayName
p1185
g56
sVUniFriend
p1186
I0
sVMemberCount
p1187
I0
sVOwnerUin
p1188
I0
sVMemberList
p1189
g52
sVAlias
p1190
g56
sVPYQuanPin
p1191
Vdierdaoqifei
p1192
sVSignature
p1193
V\u65e0
p1194
sVRemarkPYInitial
p1195
VLY
p1196
sVContactFlag
p1197
I1
sVUin
p1198
I0
sVNickName
p1199
V\u7b2c\u4e8c\u9053\u8d77\u98de
p1200
sVAppAccountFlag
p1201
I0
sVVerifyFlag
p1202
I0
sVRemarkPYQuanPin
p1203
Vlvyou
p1204
sVHeadImgUrl
p1205
V/cgi-bin/mmwebwx-bin/webwxgeticon?seq=648840869&username=@6b8393983857d877fc4ab55f767c3281&skey=@crypt_870a16cf_207aee7f546ee349effd29338bf7cbd7
p1206
sVKeyWord
p1207
Vtou
p1208
sVProvince
p1209
V\u5317\u4eac
p1210
sVPYInitial
p1211
VDEDQF
p1212
sVRemarkName
p1213
V\u5415\u6e38
p1214
sVIsOwner
p1215
I0
sVSex
p1216
I1
sVStarFriend
p1217
I0
sVHideInputBarFlag
p1218
I0
sVChatRoomId
p1219
I0
sVEncryChatRoomId
p1220
g56
sVAttrStatus
p1221
I233575
sVStatues
p1222
I0
stp1223
Rp1224
I1
bag34
(g38
g39
(dp1225
VUserName
p1226
V@50fbcce32aa3e47a264c39a6644b3818
p1227
sVCity
p1228
V\u6d77\u6dc0
p1229
sVSnsFlag
p1230
I17
sVDisplayName
p1231
g56
sVUniFriend
p1232
I0
sVMemberCount
p1233
I0
sVOwnerUin
p1234
I0
sVMemberList
p1235
g52
sVAlias
p1236
Vdoudoudaner
p1237
sVPYQuanPin
p1238
Vpipi
p1239
sVSignature
p1240
g56
sVRemarkPYInitial
p1241
g56
sVContactFlag
p1242
I65537
sVUin
p1243
I0
sVNickName
p1244
V\u76ae\u76ae
p1245
sVAppAccountFlag
p1246
I0
sVVerifyFlag
p1247
I0
sVRemarkPYQuanPin
p1248
g56
sVHeadImgUrl
p1249
V/cgi-bin/mmwebwx-bin/webwxgeticon?seq=660417582&username=@50fbcce32aa3e47a264c39a6644b3818&skey=@crypt_870a16cf_207aee7f546ee349effd29338bf7cbd7
p1250
sVKeyWord
p1251
Vgao
p1252
sVProvince
p1253
V\u5317\u4eac
p1254
sVPYInitial
p1255
VPP
p1256
sVRemarkName
p1257
g56
sVIsOwner
p1258
I0
sVSex
p1259
I1
sVStarFriend
p1260
I0
sVHideInputBarFlag
p1261
I0
sVChatRoomId
p1262
I0
sVEncryChatRoomId
p1263
g56
sVAttrStatus
p1264
I33658815
sVStatues
p1265
I0
stp1266
Rp1267
I1
bag34
(g38
g39
(dp1268
VUserName
p1269
V@705ba9eb92c40c9a77f243d028f0f3e2
p1270
sVCity
p1271
V\u6c88\u9633
p1272
sVSnsFlag
p1273
I49
sVDisplayName
p1274
g56
sVUniFriend
p1275
I0
sVMemberCount
p1276
I0
sVOwnerUin
p1277
I0
sVMemberList
p1278
g52
sVAlias
p1279
g56
sVPYQuanPin
p1280
Vyuer
p1281
sVSignature
p1282
V\u4f60\u62e5\u6709\u4e00\u4e2a\u4ec0\u4e48\u6837\u7684\u5fc3\u6001\uff0c\u5c31\u4f1a\u770b\u5230\u4e00\u4e2a\u4ec0\u4e48\u6837\u7684\u4e16\u754c(\u2606_\u2606)
p1283
sVRemarkPYInitial
p1284
VYF
p1285
sVContactFlag
p1286
I65537
sVUin
p1287
I0
sVNickName
p1288
V\u9c7c\u513f
p1289
sVAppAccountFlag
p1290
I0
sVVerifyFlag
p1291
I0
sVRemarkPYQuanPin
p1292
Vyongfu
p1293
sVHeadImgUrl
p1294
V/cgi-bin/mmwebwx-bin/webwxgeticon?seq=648850784&username=@705ba9eb92c40c9a77f243d028f0f3e2&skey=@crypt_870a16cf_207aee7f546ee349effd29338bf7cbd7
p1295
sVKeyWord
p1296
Vyuy
p1297
sVProvince
p1298
V\u8fbd\u5b81
p1299
sVPYInitial
p1300
VYE
p1301
sVRemarkName
p1302
V\u6c38\u798f
p1303
sVIsOwner
p1304
I0
sVSex
p1305
I1
sVStarFriend
p1306
I0
sVHideInputBarFlag
p1307
I0
sVChatRoomId
p1308
I0
sVEncryChatRoomId
p1309
g56
sVAttrStatus
p1310
I33656933
sVStatues
p1311
I0
stp1312
Rp1313
I1
bag34
(g38
g39
(dp1314
VUserName
p1315
V@4a0d0888a92cbfba6af8a4e221c7ffd822283b12e080214f9920d2722e008850
p1316
sVCity
p1317
V\u5927\u8fde
p1318
sVSnsFlag
p1319
I17
sVDisplayName
p1320
g56
sVUniFriend
p1321
I0
sVMemberCount
p1322
I0
sVOwnerUin
p1323
I0
sVMemberList
p1324
g52
sVAlias
p1325
g56
sVPYQuanPin
p1326
Vchengchenglusenongchang
p1327
sVSignature
p1328
g56
sVRemarkPYInitial
p1329
VSCC
p1330
sVContactFlag
p1331
I1
sVUin
p1332
I0
sVNickName
p1333
V\u7a0b\u7a0b\u7eff\u8272\u519c\u573a
p1334
sVAppAccountFlag
p1335
I0
sVVerifyFlag
p1336
I0
sVRemarkPYQuanPin
p1337
Vsongchengcheng
p1338
sVHeadImgUrl
p1339
V/cgi-bin/mmwebwx-bin/webwxgeticon?seq=660418521&username=@4a0d0888a92cbfba6af8a4e221c7ffd822283b12e080214f9920d2722e008850&skey=@crypt_870a16cf_207aee7f546ee349effd29338bf7cbd7
p1340
sVKeyWord
p1341
Vson
p1342
sVProvince
p1343
V\u8fbd\u5b81
p1344
sVPYInitial
p1345
VCCLSNC
p1346
sVRemarkName
p1347
V\u5b8b\u7a0b\u7a0b
p1348
sVIsOwner
p1349
I0
sVSex
p1350
I2
sVStarFriend
p1351
I0
sVHideInputBarFlag
p1352
I0
sVChatRoomId
p1353
I0
sVEncryChatRoomId
p1354
g56
sVAttrStatus
p1355
I229823
sVStatues
p1356
I0
stp1357
Rp1358
I1
bag34
(g38
g39
(dp1359
VUserName
p1360
V@ba817f2bcc8b1161afd107f0cd6a0fa8d18f812cca6e6213a286b89e113c24ee
p1361
sVCity
p1362
V\u671d\u9633
p1363
sVSnsFlag
p1364
I1
sVDisplayName
p1365
g56
sVUniFriend
p1366
I0
sVMemberCount
p1367
I0
sVOwnerUin
p1368
I0
sVMemberList
p1369
g52
sVAlias
p1370
VZHAODAN4345
p1371
sVPYQuanPin
p1372
V?dandanspanclassemojiemoji1f4a4span
p1373
sVSignature
p1374
V\u63a7\u5236\u60c5\u7eea\uff0c\u522b\u6d6a\u8d39\u4e86\u3002
p1375
sVRemarkPYInitial
p1376
VDD
p1377
sVContactFlag
p1378
I1
sVUin
p1379
I0
sVNickName
p1380
V\U0001f608\u4e39\u4e39\U0001f4a4
p1381
sVAppAccountFlag
p1382
I0
sVVerifyFlag
p1383
I0
sVRemarkPYQuanPin
p1384
Vdandan
p1385
sVHeadImgUrl
p1386
V/cgi-bin/mmwebwx-bin/webwxgeticon?seq=660407699&username=@ba817f2bcc8b1161afd107f0cd6a0fa8d18f812cca6e6213a286b89e113c24ee&skey=@crypt_870a16cf_207aee7f546ee349effd29338bf7cbd7
p1387
sVKeyWord
p1388
g56
sVProvince
p1389
V\u5317\u4eac
p1390
sVPYInitial
p1391
V?DDSPANCLASSEMOJIEMOJI1F4A4SPAN
p1392
sVRemarkName
p1393
V\u4e39\u4e39
p1394
sVIsOwner
p1395
I0
sVSex
p1396
I2
sVStarFriend
p1397
I0
sVHideInputBarFlag
p1398
I0
sVChatRoomId
p1399
I0
sVEncryChatRoomId
p1400
g56
sVAttrStatus
p1401
I233509
sVStatues
p1402
I0
stp1403
Rp1404
I1
bag34
(g38
g39
(dp1405
VUserName
p1406
V@9cf1d741e0af49039b4c4df4a763554d7a2b326264bf8e6b4d4fb8680b4b1716
p1407
sVCity
p1408
V\u4e30\u53f0
p1409
sVSnsFlag
p1410
I17
sVDisplayName
p1411
g56
sVUniFriend
p1412
I0
sVMemberCount
p1413
I0
sVOwnerUin
p1414
I0
sVMemberList
p1415
g52
sVAlias
p1416
VS1639966573
p1417
sVPYQuanPin
p1418
Vsongdawen
p1419
sVSignature
p1420
V13521737317
p1421
sVRemarkPYInitial
p1422
VSDW
p1423
sVContactFlag
p1424
I1
sVUin
p1425
I0
sVNickName
p1426
V\u5b8b\u5927\u6587
p1427
sVAppAccountFlag
p1428
I0
sVVerifyFlag
p1429
I0
sVRemarkPYQuanPin
p1430
Vsongdawen
p1431
sVHeadImgUrl
p1432
V/cgi-bin/mmwebwx-bin/webwxgeticon?seq=660400524&username=@9cf1d741e0af49039b4c4df4a763554d7a2b326264bf8e6b4d4fb8680b4b1716&skey=@crypt_870a16cf_207aee7f546ee349effd29338bf7cbd7
p1433
sVKeyWord
p1434
g56
sVProvince
p1435
V\u5317\u4eac
p1436
sVPYInitial
p1437
VSDW
p1438
sVRemarkName
p1439
V\u5b8b\u5927\u6587
p1440
sVIsOwner
p1441
I0
sVSex
p1442
I1
sVStarFriend
p1443
I0
sVHideInputBarFlag
p1444
I0
sVChatRoomId
p1445
I0
sVEncryChatRoomId
p1446
g56
sVAttrStatus
p1447
I102501
sVStatues
p1448
I0
stp1449
Rp1450
I1
bag34
(g38
g39
(dp1451
VUserName
p1452
V@d36d9eeb5abe7617612cef6cc96ba80ca400dc4b7f91d055255c748e38e05cc5
p1453
sVCity
p1454
g56
sVSnsFlag
p1455
I17
sVDisplayName
p1456
g56
sVUniFriend
p1457
I0
sVMemberCount
p1458
I0
sVOwnerUin
p1459
I0
sVMemberList
p1460
g52
sVAlias
p1461
Vbabay1992828
p1462
sVPYQuanPin
p1463
Vchunhuaqiushi
p1464
sVSignature
p1465
V\u76f8\u89c1\u4ea6\u662f\u7f18\u5206\uff0c\u60dc\u7f18\uff0c\u968f\u7f18\uff01
p1466
sVRemarkPYInitial
p1467
VLB
p1468
sVContactFlag
p1469
I5
sVUin
p1470
I0
sVNickName
p1471
V\u6625\u534e\u79cb\u5b9e
p1472
sVAppAccountFlag
p1473
I0
sVVerifyFlag
p1474
I0
sVRemarkPYQuanPin
p1475
Vlaobi
p1476
sVHeadImgUrl
p1477
V/cgi-bin/mmwebwx-bin/webwxgeticon?seq=660417113&username=@d36d9eeb5abe7617612cef6cc96ba80ca400dc4b7f91d055255c748e38e05cc5&skey=@crypt_870a16cf_207aee7f546ee349effd29338bf7cbd7
p1478
sVKeyWord
p1479
g56
sVProvince
p1480
g56
sVPYInitial
p1481
VCHQS
p1482
sVRemarkName
p1483
V\u8001\u6bd5
p1484
sVIsOwner
p1485
I0
sVSex
p1486
I1
sVStarFriend
p1487
I0
sVHideInputBarFlag
p1488
I0
sVChatRoomId
p1489
I0
sVEncryChatRoomId
p1490
g56
sVAttrStatus
p1491
I110629
sVStatues
p1492
I0
stp1493
Rp1494
I1
bag34
(g38
g39
(dp1495
VUserName
p1496
V@9ed5ff93c308c713966a211bb5c2a4915bf47b988e99978fc9fd2913e1fb5489
p1497
sVCity
p1498
g56
sVSnsFlag
p1499
I17
sVDisplayName
p1500
g56
sVUniFriend
p1501
I0
sVMemberCount
p1502
I0
sVOwnerUin
p1503
I0
sVMemberList
p1504
g52
sVAlias
p1505
Vwuyou846025659
p1506
sVPYQuanPin
p1507
Vwuyou
p1508
sVSignature
p1509
V\u6211
p1510
sVRemarkPYInitial
p1511
VWY
p1512
sVContactFlag
p1513
I5
sVUin
p1514
I0
sVNickName
p1515
V\u65e0\u5fe7
p1516
sVAppAccountFlag
p1517
I0
sVVerifyFlag
p1518
I0
sVRemarkPYQuanPin
p1519
Vwuyou
p1520
sVHeadImgUrl
p1521
V/cgi-bin/mmwebwx-bin/webwxgeticon?seq=660423161&username=@9ed5ff93c308c713966a211bb5c2a4915bf47b988e99978fc9fd2913e1fb5489&skey=@crypt_870a16cf_207aee7f546ee349effd29338bf7cbd7
p1522
sVKeyWord
p1523
g56
sVProvince
p1524
g56
sVPYInitial
p1525
VWY
p1526
sVRemarkName
p1527
V\u5434\u4f18
p1528
sVIsOwner
p1529
I0
sVSex
p1530
I1
sVStarFriend
p1531
I0
sVHideInputBarFlag
p1532
I0
sVChatRoomId
p1533
I0
sVEncryChatRoomId
p1534
g56
sVAttrStatus
p1535
I233573
sVStatues
p1536
I0
stp1537
Rp1538
I1
bag34
(g38
g39
(dp1539
VUserName
p1540
V@86997b1659c3df54f0e236525d8b66ef0932958799e5a3ba4ee86701f8f30c2f
p1541
sVCity
p1542
g56
sVSnsFlag
p1543
I17
sVDisplayName
p1544
g56
sVUniFriend
p1545
I0
sVMemberCount
p1546
I0
sVOwnerUin
p1547
I0
sVMemberList
p1548
g52
sVAlias
p1549
Vwoshishensc
p1550
sVPYQuanPin
p1551
Vshenxiaocheng
p1552
sVSignature
p1553
V\u4e00\u5373\u662f\u591a\uff0c\u591a\u5373\u662f\u4e00\u3002
p1554
sVRemarkPYInitial
p1555
VSC
p1556
sVContactFlag
p1557
I1
sVUin
p1558
I0
sVNickName
p1559
V\u795e\u5c0f\u6a59
p1560
sVAppAccountFlag
p1561
I0
sVVerifyFlag
p1562
I0
sVRemarkPYQuanPin
p1563
Vshencheng
p1564
sVHeadImgUrl
p1565
V/cgi-bin/mmwebwx-bin/webwxgeticon?seq=648850245&username=@86997b1659c3df54f0e236525d8b66ef0932958799e5a3ba4ee86701f8f30c2f&skey=@crypt_870a16cf_207aee7f546ee349effd29338bf7cbd7
p1566
sVKeyWord
p1567
g56
sVProvince
p1568
VBarcelona
p1569
sVPYInitial
p1570
VSXC
p1571
sVRemarkName
p1572
V\u6c88\u6210
p1573
sVIsOwner
p1574
I0
sVSex
p1575
I1
sVStarFriend
p1576
I0
sVHideInputBarFlag
p1577
I0
sVChatRoomId
p1578
I0
sVEncryChatRoomId
p1579
g56
sVAttrStatus
p1580
I16974311
sVStatues
p1581
I0
stp1582
Rp1583
I1
bag34
(g38
g39
(dp1584
VUserName
p1585
V@cba1b003727f08ee8d7d80b0ac4495fd215083ca17aabf3f7b5948af84a83d93
p1586
sVCity
p1587
g56
sVSnsFlag
p1588
I1
sVDisplayName
p1589
g56
sVUniFriend
p1590
I0
sVMemberCount
p1591
I0
sVOwnerUin
p1592
I0
sVMemberList
p1593
g52
sVAlias
p1594
Vzmy97431
p1595
sVPYQuanPin
p1596
Vjianbijianzhi
p1597
sVSignature
p1598
V\u6211\u662f\u4e16\u754c\u7684\u6591\u6593\u4f53/ \u81ea\u5df1\u7684\u6781\u7b80\u4e3b\u4e49/
p1599
sVRemarkPYInitial
p1600
VZMY
p1601
sVContactFlag
p1602
I1
sVUin
p1603
I0
sVNickName
p1604
V\u7b80\u62c2\u526a\u4e4b
p1605
sVAppAccountFlag
p1606
I0
sVVerifyFlag
p1607
I0
sVRemarkPYQuanPin
p1608
Vzhaomeiyuan
p1609
sVHeadImgUrl
p1610
V/cgi-bin/mmwebwx-bin/webwxgeticon?seq=660425013&username=@cba1b003727f08ee8d7d80b0ac4495fd215083ca17aabf3f7b5948af84a83d93&skey=@crypt_870a16cf_207aee7f546ee349effd29338bf7cbd7
p1611
sVKeyWord
p1612
g56
sVProvince
p1613
g56
sVPYInitial
p1614
VJBJZ
p1615
sVRemarkName
p1616
V\u8d75\u7f8e\u5a9b
p1617
sVIsOwner
p1618
I0
sVSex
p1619
I2
sVStarFriend
p1620
I0
sVHideInputBarFlag
p1621
I0
sVChatRoomId
p1622
I0
sVEncryChatRoomId
p1623
g56
sVAttrStatus
p1624
I102653
sVStatues
p1625
I0
stp1626
Rp1627
I1
bag34
(g38
g39
(dp1628
VUserName
p1629
V@372afdfa41d18f3a8add913c58c05e0e0b97ed8306922b8bf1ee053b81252603
p1630
sVCity
p1631
V\u5927\u8fde
p1632
sVSnsFlag
p1633
I17
sVDisplayName
p1634
g56
sVUniFriend
p1635
I0
sVMemberCount
p1636
I0
sVOwnerUin
p1637
I0
sVMemberList
p1638
g52
sVAlias
p1639
VZM1214950751
p1640
sVPYQuanPin
p1641
Vweixiaodanshang
p1642
sVSignature
p1643
g56
sVRemarkPYInitial
p1644
VMFT
p1645
sVContactFlag
p1646
I1
sVUin
p1647
I0
sVNickName
p1648
V\u5fae\u7b11  \u3001\u6de1\u4f24
p1649
sVAppAccountFlag
p1650
I0
sVVerifyFlag
p1651
I0
sVRemarkPYQuanPin
p1652
Vmenfutao
p1653
sVHeadImgUrl
p1654
V/cgi-bin/mmwebwx-bin/webwxgeticon?seq=635752552&username=@372afdfa41d18f3a8add913c58c05e0e0b97ed8306922b8bf1ee053b81252603&skey=@crypt_870a16cf_207aee7f546ee349effd29338bf7cbd7
p1655
sVKeyWord
p1656
g56
sVProvince
p1657
V\u8fbd\u5b81
p1658
sVPYInitial
p1659
VWXDS
p1660
sVRemarkName
p1661
V\u95e8\u798f\u6d9b
p1662
sVIsOwner
p1663
I0
sVSex
p1664
I1
sVStarFriend
p1665
I0
sVHideInputBarFlag
p1666
I0
sVChatRoomId
p1667
I0
sVEncryChatRoomId
p1668
g56
sVAttrStatus
p1669
I4133
sVStatues
p1670
I0
stp1671
Rp1672
I1
bag34
(g38
g39
(dp1673
VUserName
p1674
V@33e3b8877c6e25ee5b601ebc163012d21efc0380990676829df1eadb4ed13fec
p1675
sVCity
p1676
V\u6c88\u9633
p1677
sVSnsFlag
p1678
I1
sVDisplayName
p1679
g56
sVUniFriend
p1680
I0
sVMemberCount
p1681
I0
sVOwnerUin
p1682
I0
sVMemberList
p1683
g52
sVAlias
p1684
Vnidachengge101216
p1685
sVPYQuanPin
p1686
Vsowhat
p1687
sVSignature
p1688
V\u4e16\u754c\u90a3\u4e48\u810f\uff0c\u8c01\u6709\u8d44\u683c\u8bf4\u60b2\u4f24~
p1689
sVRemarkPYInitial
p1690
VLFC
p1691
sVContactFlag
p1692
I1
sVUin
p1693
I0
sVNickName
p1694
Vso what~
p1695
sVAppAccountFlag
p1696
I0
sVVerifyFlag
p1697
I0
sVRemarkPYQuanPin
p1698
Vliufengcheng
p1699
sVHeadImgUrl
p1700
V/cgi-bin/mmwebwx-bin/webwxgeticon?seq=660422853&username=@33e3b8877c6e25ee5b601ebc163012d21efc0380990676829df1eadb4ed13fec&skey=@crypt_870a16cf_207aee7f546ee349effd29338bf7cbd7
p1701
sVKeyWord
p1702
g56
sVProvince
p1703
V\u8fbd\u5b81
p1704
sVPYInitial
p1705
VSOWHAT
p1706
sVRemarkName
p1707
V\u5218\u51e4\u5448
p1708
sVIsOwner
p1709
I0
sVSex
p1710
I2
sVStarFriend
p1711
I0
sVHideInputBarFlag
p1712
I0
sVChatRoomId
p1713
I0
sVEncryChatRoomId
p1714
g56
sVAttrStatus
p1715
I7165
sVStatues
p1716
I0
stp1717
Rp1718
I1
bag34
(g38
g39
(dp1719
VUserName
p1720
V@92fb3045bfaebf95f51364bc05e59217b5f16b454f43c64b5ba44930ee8923d7
p1721
sVCity
p1722
g56
sVSnsFlag
p1723
I1
sVDisplayName
p1724
g56
sVUniFriend
p1725
I0
sVMemberCount
p1726
I0
sVOwnerUin
p1727
I0
sVMemberList
p1728
g52
sVAlias
p1729
Vbadguyjason
p1730
sVPYQuanPin
p1731
Vmeihaoshenghuo
p1732
sVSignature
p1733
g56
sVRemarkPYInitial
p1734
VLM
p1735
sVContactFlag
p1736
I1
sVUin
p1737
I0
sVNickName
p1738
V\u7f8e\u597d\u751f\u6d3b
p1739
sVAppAccountFlag
p1740
I0
sVVerifyFlag
p1741
I0
sVRemarkPYQuanPin
p1742
Vlaoma
p1743
sVHeadImgUrl
p1744
V/cgi-bin/mmwebwx-bin/webwxgeticon?seq=648849129&username=@92fb3045bfaebf95f51364bc05e59217b5f16b454f43c64b5ba44930ee8923d7&skey=@crypt_870a16cf_207aee7f546ee349effd29338bf7cbd7
p1745
sVKeyWord
p1746
g56
sVProvince
p1747
g56
sVPYInitial
p1748
VMHSH
p1749
sVRemarkName
p1750
V\u8001\u5988
p1751
sVIsOwner
p1752
I0
sVSex
p1753
I0
sVStarFriend
p1754
I0
sVHideInputBarFlag
p1755
I0
sVChatRoomId
p1756
I0
sVEncryChatRoomId
p1757
g56
sVAttrStatus
p1758
I6501
sVStatues
p1759
I0
stp1760
Rp1761
I1
bag34
(g38
g39
(dp1762
VUserName
p1763
V@fb32642ac9d5f820079795f027bd0c3c
p1764
sVCity
p1765
V\u5927\u8fde
p1766
sVSnsFlag
p1767
I17
sVDisplayName
p1768
g56
sVUniFriend
p1769
I0
sVMemberCount
p1770
I0
sVOwnerUin
p1771
I0
sVMemberList
p1772
g52
sVAlias
p1773
g56
sVPYQuanPin
p1774
Vbenben
p1775
sVSignature
p1776
g56
sVRemarkPYInitial
p1777
VKJ
p1778
sVContactFlag
p1779
I1
sVUin
p1780
I0
sVNickName
p1781
V\u7b28\u7b28
p1782
sVAppAccountFlag
p1783
I0
sVVerifyFlag
p1784
I0
sVRemarkPYQuanPin
p1785
Vkunjie
p1786
sVHeadImgUrl
p1787
V/cgi-bin/mmwebwx-bin/webwxgeticon?seq=648781266&username=@fb32642ac9d5f820079795f027bd0c3c&skey=@crypt_870a16cf_207aee7f546ee349effd29338bf7cbd7
p1788
sVKeyWord
p1789
Vben
p1790
sVProvince
p1791
V\u8fbd\u5b81
p1792
sVPYInitial
p1793
VBB
p1794
sVRemarkName
p1795
V\u5764\u59d0
p1796
sVIsOwner
p1797
I0
sVSex
p1798
I2
sVStarFriend
p1799
I0
sVHideInputBarFlag
p1800
I0
sVChatRoomId
p1801
I0
sVEncryChatRoomId
p1802
g56
sVAttrStatus
p1803
I233575
sVStatues
p1804
I0
stp1805
Rp1806
I1
bag34
(g38
g39
(dp1807
VUserName
p1808
V@cba677109d50e57bf2fa6f9a8423b3bb603a64954c7bed7e2a9e1720a2178d4b
p1809
sVCity
p1810
V\u5927\u8fde
p1811
sVSnsFlag
p1812
I17
sVDisplayName
p1813
g56
sVUniFriend
p1814
I0
sVMemberCount
p1815
I0
sVOwnerUin
p1816
I0
sVMemberList
p1817
g52
sVAlias
p1818
Vlyz15504089508
p1819
sVPYQuanPin
p1820
Vliuyunzhi
p1821
sVSignature
p1822
V\u6ca1\u6709\u52c7\u6c14\u7684\u4eba\uff0c\u53ea\u80fd\u662f\u4e00\u6b21\u53c8\u4e00\u6b21\u7684\u9519\u8fc7\u3002
p1823
sVRemarkPYInitial
p1824
g56
sVContactFlag
p1825
I1
sVUin
p1826
I0
sVNickName
p1827
V\u5218\u82b8\u5fd7
p1828
sVAppAccountFlag
p1829
I0
sVVerifyFlag
p1830
I0
sVRemarkPYQuanPin
p1831
g56
sVHeadImgUrl
p1832
V/cgi-bin/mmwebwx-bin/webwxgeticon?seq=648823860&username=@cba677109d50e57bf2fa6f9a8423b3bb603a64954c7bed7e2a9e1720a2178d4b&skey=@crypt_870a16cf_207aee7f546ee349effd29338bf7cbd7
p1833
sVKeyWord
p1834
g56
sVProvince
p1835
V\u8fbd\u5b81
p1836
sVPYInitial
p1837
VLYZ
p1838
sVRemarkName
p1839
g56
sVIsOwner
p1840
I0
sVSex
p1841
I1
sVStarFriend
p1842
I0
sVHideInputBarFlag
p1843
I0
sVChatRoomId
p1844
I0
sVEncryChatRoomId
p1845
g56
sVAttrStatus
p1846
I4135
sVStatues
p1847
I0
stp1848
Rp1849
I1
bag34
(g38
g39
(dp1850
VUserName
p1851
V@f0a4e41182d8dc4ad1ac267b88ec57894bc2b463d685c7ce4bfc435ac31ec6b2
p1852
sVCity
p1853
V\u6c88\u9633
p1854
sVSnsFlag
p1855
I17
sVDisplayName
p1856
g56
sVUniFriend
p1857
I0
sVMemberCount
p1858
I0
sVOwnerUin
p1859
I0
sVMemberList
p1860
g52
sVAlias
p1861
Vs714001825
p1862
sVPYQuanPin
p1863
Vsunmengzhongyangkongdiao
p1864
sVSignature
p1865
V\u5bb6\u7528 \u5546\u7528 \u4e2d\u592e\u7a7a\u8c03  \u65b0\u98ce  \u51c0\u6c34  Tel\uff1a13125432667
p1866
sVRemarkPYInitial
p1867
VSM
p1868
sVContactFlag
p1869
I65537
sVUin
p1870
I0
sVNickName
p1871
V\u5b59\u8499-\u4e2d\u592e\u7a7a\u8c03
p1872
sVAppAccountFlag
p1873
I0
sVVerifyFlag
p1874
I0
sVRemarkPYQuanPin
p1875
Vsunmeng
p1876
sVHeadImgUrl
p1877
V/cgi-bin/mmwebwx-bin/webwxgeticon?seq=648810299&username=@f0a4e41182d8dc4ad1ac267b88ec57894bc2b463d685c7ce4bfc435ac31ec6b2&skey=@crypt_870a16cf_207aee7f546ee349effd29338bf7cbd7
p1878
sVKeyWord
p1879
g56
sVProvince
p1880
V\u8fbd\u5b81
p1881
sVPYInitial
p1882
VSMZYKD
p1883
sVRemarkName
p1884
V\u5b59\u8499
p1885
sVIsOwner
p1886
I0
sVSex
p1887
I1
sVStarFriend
p1888
I0
sVHideInputBarFlag
p1889
I0
sVChatRoomId
p1890
I0
sVEncryChatRoomId
p1891
g56
sVAttrStatus
p1892
I102501
sVStatues
p1893
I0
stp1894
Rp1895
I1
bag34
(g38
g39
(dp1896
VUserName
p1897
V@690598afa8f60eb261e3347d05f32134
p1898
sVCity
p1899
V\u5927\u8fde
p1900
sVSnsFlag
p1901
I49
sVDisplayName
p1902
g56
sVUniFriend
p1903
I0
sVMemberCount
p1904
I0
sVOwnerUin
p1905
I0
sVMemberList
p1906
g52
sVAlias
p1907
g56
sVPYQuanPin
p1908
Vdong
p1909
sVSignature
p1910
V\u6709\u65f6\uff0c\u53bb\u6cbb\u6108\uff1b\u5e38\u5e38\uff0c\u53bb\u5e2e\u52a9\uff1b\u603b\u662f\uff0c\u53bb\u5b89\u6170\u3002
p1911
sVRemarkPYInitial
p1912
VXXD
p1913
sVContactFlag
p1914
I5
sVUin
p1915
I0
sVNickName
p1916
V\u6771
p1917
sVAppAccountFlag
p1918
I0
sVVerifyFlag
p1919
I0
sVRemarkPYQuanPin
p1920
Vxuxidong
p1921
sVHeadImgUrl
p1922
V/cgi-bin/mmwebwx-bin/webwxgeticon?seq=660425950&username=@690598afa8f60eb261e3347d05f32134&skey=@crypt_870a16cf_207aee7f546ee349effd29338bf7cbd7
p1923
sVKeyWord
p1924
Vdal
p1925
sVProvince
p1926
V\u8fbd\u5b81
p1927
sVPYInitial
p1928
VD
p1929
sVRemarkName
p1930
V\u5f90\u559c\u4e1c
p1931
sVIsOwner
p1932
I0
sVSex
p1933
I1
sVStarFriend
p1934
I0
sVHideInputBarFlag
p1935
I0
sVChatRoomId
p1936
I0
sVEncryChatRoomId
p1937
g56
sVAttrStatus
p1938
I33656935
sVStatues
p1939
I0
stp1940
Rp1941
I1
bag34
(g38
g39
(dp1942
VUserName
p1943
V@05c58bef9aee3df2778821eea52c24d2
p1944
sVCity
p1945
V\u5927\u8fde
p1946
sVSnsFlag
p1947
I17
sVDisplayName
p1948
g56
sVUniFriend
p1949
I0
sVMemberCount
p1950
I0
sVOwnerUin
p1951
I0
sVMemberList
p1952
g52
sVAlias
p1953
g56
sVPYQuanPin
p1954
Vduxing
p1955
sVSignature
p1956
V\u5fc3\u82e5\u6c89\u6d6e\uff0c\u6d45\u7b11\u5b89\u7136
p1957
sVRemarkPYInitial
p1958
VLFZ
p1959
sVContactFlag
p1960
I1
sVUin
p1961
I0
sVNickName
p1962
V\u72ec\u9192.
p1963
sVAppAccountFlag
p1964
I0
sVVerifyFlag
p1965
I0
sVRemarkPYQuanPin
p1966
Vliufuzhuang
p1967
sVHeadImgUrl
p1968
V/cgi-bin/mmwebwx-bin/webwxgeticon?seq=660420789&username=@05c58bef9aee3df2778821eea52c24d2&skey=@crypt_870a16cf_207aee7f546ee349effd29338bf7cbd7
p1969
sVKeyWord
p1970
VWOn
p1971
sVProvince
p1972
V\u8fbd\u5b81
p1973
sVPYInitial
p1974
VDX
p1975
sVRemarkName
p1976
V\u5218\u5bcc\u58ee
p1977
sVIsOwner
p1978
I0
sVSex
p1979
I1
sVStarFriend
p1980
I0
sVHideInputBarFlag
p1981
I0
sVChatRoomId
p1982
I0
sVEncryChatRoomId
p1983
g56
sVAttrStatus
p1984
I110719
sVStatues
p1985
I0
stp1986
Rp1987
I1
bag34
(g38
g39
(dp1988
VUserName
p1989
V@bc773e5da892a216ff0d6e0656ba05972a8d55d9410b08d7db4cb0fad9e9a675
p1990
sVCity
p1991
V\u5927\u8fde
p1992
sVSnsFlag
p1993
I17
sVDisplayName
p1994
g56
sVUniFriend
p1995
I0
sVMemberCount
p1996
I0
sVOwnerUin
p1997
I0
sVMemberList
p1998
g52
sVAlias
p1999
Vzz94ygshuaige
p2000
sVPYQuanPin
p2001
V5amp2
p2002
sVSignature
p2003
V\u7ec8\u4e8e\u7b49\u5230\u4f60ayy
p2004
sVRemarkPYInitial
p2005
VWGZ
p2006
sVContactFlag
p2007
I65537
sVUin
p2008
I0
sVNickName
p2009
V5 &amp;2
p2010
sVAppAccountFlag
p2011
I0
sVVerifyFlag
p2012
I0
sVRemarkPYQuanPin
p2013
Vwuguozhuang
p2014
sVHeadImgUrl
p2015
V/cgi-bin/mmwebwx-bin/webwxgeticon?seq=660426037&username=@bc773e5da892a216ff0d6e0656ba05972a8d55d9410b08d7db4cb0fad9e9a675&skey=@crypt_870a16cf_207aee7f546ee349effd29338bf7cbd7
p2016
sVKeyWord
p2017
g56
sVProvince
p2018
V\u8fbd\u5b81
p2019
sVPYInitial
p2020
V5AMP2
p2021
sVRemarkName
p2022
V\u5434\u56fd\u58ee
p2023
sVIsOwner
p2024
I0
sVSex
p2025
I1
sVStarFriend
p2026
I0
sVHideInputBarFlag
p2027
I0
sVChatRoomId
p2028
I0
sVEncryChatRoomId
p2029
g56
sVAttrStatus
p2030
I16879653
sVStatues
p2031
I0
stp2032
Rp2033
I1
bag34
(g38
g39
(dp2034
VUserName
p2035
V@279761899c113d43273c3c19b4767e56e46c15fb5786290b2bab29f977914989
p2036
sVCity
p2037
V\u5927\u8fde
p2038
sVSnsFlag
p2039
I16
sVDisplayName
p2040
g56
sVUniFriend
p2041
I0
sVMemberCount
p2042
I0
sVOwnerUin
p2043
I0
sVMemberList
p2044
g52
sVAlias
p2045
Vlgs593700321
p2046
sVPYQuanPin
p2047
Vxiaobao
p2048
sVSignature
p2049
V\u4eba\u751f\u7684\u65c5\u9014\u6709\u592a\u591a\u7684\u76f8\u9047\uff0c\u4f46\u6211\u53ea\u7b49\u5019\u4f60\u2026\u2026
p2050
sVRemarkPYInitial
p2051
g56
sVContactFlag
p2052
I1
sVUin
p2053
I0
sVNickName
p2054
V\u2606\u5c0f\u5b9d\u2121
p2055
sVAppAccountFlag
p2056
I0
sVVerifyFlag
p2057
I0
sVRemarkPYQuanPin
p2058
g56
sVHeadImgUrl
p2059
V/cgi-bin/mmwebwx-bin/webwxgeticon?seq=1170465&username=@279761899c113d43273c3c19b4767e56e46c15fb5786290b2bab29f977914989&skey=@crypt_870a16cf_207aee7f546ee349effd29338bf7cbd7
p2060
sVKeyWord
p2061
g56
sVProvince
p2062
V\u8fbd\u5b81
p2063
sVPYInitial
p2064
VXB
p2065
sVRemarkName
p2066
g56
sVIsOwner
p2067
I0
sVSex
p2068
I1
sVStarFriend
p2069
I0
sVHideInputBarFlag
p2070
I0
sVChatRoomId
p2071
I0
sVEncryChatRoomId
p2072
g56
sVAttrStatus
p2073
I1211
sVStatues
p2074
I0
stp2075
Rp2076
I1
bag34
(g38
g39
(dp2077
VUserName
p2078
V@7fbc6fccf70df3d7092c2e42862ca5f15c81d34e722c444e7a1bb8a58e0aae0a
p2079
sVCity
p2080
VEdinburgh
p2081
sVSnsFlag
p2082
I17
sVDisplayName
p2083
g56
sVUniFriend
p2084
I0
sVMemberCount
p2085
I0
sVOwnerUin
p2086
I0
sVMemberList
p2087
g52
sVAlias
p2088
g56
sVPYQuanPin
p2089
Vwumaer
p2090
sVSignature
p2091
V\u57cb\u9aa8\u5c82\u987b\u6851\u6893\u5730\uff0c\u4eba\u751f\u4f55\u5904\u4e0d\u9752\u5c71\u3002
p2092
sVRemarkPYInitial
p2093
VLGL
p2094
sVContactFlag
p2095
I65537
sVUin
p2096
I0
sVNickName
p2097
V\u4e94\u9ebb\u513f
p2098
sVAppAccountFlag
p2099
I0
sVVerifyFlag
p2100
I0
sVRemarkPYQuanPin
p2101
Vliuguilai
p2102
sVHeadImgUrl
p2103
V/cgi-bin/mmwebwx-bin/webwxgeticon?seq=660426300&username=@7fbc6fccf70df3d7092c2e42862ca5f15c81d34e722c444e7a1bb8a58e0aae0a&skey=@crypt_870a16cf_207aee7f546ee349effd29338bf7cbd7
p2104
sVKeyWord
p2105
g56
sVProvince
p2106
VScotland
p2107
sVPYInitial
p2108
VWME
p2109
sVRemarkName
p2110
V\u5218\u8d35\u6765
p2111
sVIsOwner
p2112
I0
sVSex
p2113
I1
sVStarFriend
p2114
I0
sVHideInputBarFlag
p2115
I0
sVChatRoomId
p2116
I0
sVEncryChatRoomId
p2117
g56
sVAttrStatus
p2118
I16930813
sVStatues
p2119
I0
stp2120
Rp2121
I1
bag34
(g38
g39
(dp2122
VUserName
p2123
V@752a09528f0426efad5f655406e46058
p2124
sVCity
p2125
V\u73e0\u6d77
p2126
sVSnsFlag
p2127
I17
sVDisplayName
p2128
g56
sVUniFriend
p2129
I0
sVMemberCount
p2130
I0
sVOwnerUin
p2131
I0
sVMemberList
p2132
g52
sVAlias
p2133
g56
sVPYQuanPin
p2134
Vjuanzilanwenfushi
p2135
sVSignature
p2136
V\u5ba0\u8fb1\u4e0d\u60ca\uff0c\u53bb\u7559\u65e0\u610f
p2137
sVRemarkPYInitial
p2138
VLXJ
p2139
sVContactFlag
p2140
I1
sVUin
p2141
I0
sVNickName
p2142
V\u5a1f\u5b50\u5170\u7eb9\u670d\u9970
p2143
sVAppAccountFlag
p2144
I0
sVVerifyFlag
p2145
I0
sVRemarkPYQuanPin
p2146
Vliuxiaojuan
p2147
sVHeadImgUrl
p2148
V/cgi-bin/mmwebwx-bin/webwxgeticon?seq=645194416&username=@752a09528f0426efad5f655406e46058&skey=@crypt_870a16cf_207aee7f546ee349effd29338bf7cbd7
p2149
sVKeyWord
p2150
Vjua
p2151
sVProvince
p2152
V\u5e7f\u4e1c
p2153
sVPYInitial
p2154
VJZLWFS
p2155
sVRemarkName
p2156
V\u5218\u6653\u5a1f
p2157
sVIsOwner
p2158
I0
sVSex
p2159
I2
sVStarFriend
p2160
I0
sVHideInputBarFlag
p2161
I0
sVChatRoomId
p2162
I0
sVEncryChatRoomId
p2163
g56
sVAttrStatus
p2164
I12391
sVStatues
p2165
I0
stp2166
Rp2167
I1
bag34
(g38
g39
(dp2168
VUserName
p2169
V@cfcc296e2054b11f2755d7242a855fe5
p2170
sVCity
p2171
V\u6c88\u9633
p2172
sVSnsFlag
p2173
I17
sVDisplayName
p2174
g56
sVUniFriend
p2175
I0
sVMemberCount
p2176
I0
sVOwnerUin
p2177
I0
sVMemberList
p2178
g52
sVAlias
p2179
g56
sVPYQuanPin
p2180
Vdisanrenchen
p2181
sVSignature
p2182
g56
sVRemarkPYInitial
p2183
VQZJ
p2184
sVContactFlag
p2185
I1
sVUin
p2186
I0
sVNickName
p2187
V\u7b2c\u4e09\u4eba\u79f0
p2188
sVAppAccountFlag
p2189
I0
sVVerifyFlag
p2190
I0
sVRemarkPYQuanPin
p2191
Vqizhijia
p2192
sVHeadImgUrl
p2193
V/cgi-bin/mmwebwx-bin/webwxgeticon?seq=660416269&username=@cfcc296e2054b11f2755d7242a855fe5&skey=@crypt_870a16cf_207aee7f546ee349effd29338bf7cbd7
p2194
sVKeyWord
p2195
Vqzj
p2196
sVProvince
p2197
V\u8fbd\u5b81
p2198
sVPYInitial
p2199
VDSRC
p2200
sVRemarkName
p2201
V\u9f50\u5fd7\u4f73
p2202
sVIsOwner
p2203
I0
sVSex
p2204
I1
sVStarFriend
p2205
I0
sVHideInputBarFlag
p2206
I0
sVChatRoomId
p2207
I0
sVEncryChatRoomId
p2208
g56
sVAttrStatus
p2209
I103
sVStatues
p2210
I0
stp2211
Rp2212
I1
bag34
(g38
g39
(dp2213
VUserName
p2214
V@8a84d6d82a7907e6e9db7e7c93d14a0e2608fda7b3f8180c6db256583683057d
p2215
sVCity
p2216
V\u5927\u8fde
p2217
sVSnsFlag
p2218
I17
sVDisplayName
p2219
g56
sVUniFriend
p2220
I0
sVMemberCount
p2221
I0
sVOwnerUin
p2222
I0
sVMemberList
p2223
g52
sVAlias
p2224
Vlgsfly123
p2225
sVPYQuanPin
p2226
VJason
p2227
sVSignature
p2228
g56
sVRemarkPYInitial
p2229
g56
sVContactFlag
p2230
I1
sVUin
p2231
I0
sVNickName
p2232
VJason
p2233
sVAppAccountFlag
p2234
I0
sVVerifyFlag
p2235
I0
sVRemarkPYQuanPin
p2236
g56
sVHeadImgUrl
p2237
V/cgi-bin/mmwebwx-bin/webwxgeticon?seq=620901478&username=@8a84d6d82a7907e6e9db7e7c93d14a0e2608fda7b3f8180c6db256583683057d&skey=@crypt_870a16cf_207aee7f546ee349effd29338bf7cbd7
p2238
sVKeyWord
p2239
g56
sVProvince
p2240
V\u8fbd\u5b81
p2241
sVPYInitial
p2242
VJASON
p2243
sVRemarkName
p2244
g56
sVIsOwner
p2245
I0
sVSex
p2246
I1
sVStarFriend
p2247
I0
sVHideInputBarFlag
p2248
I0
sVChatRoomId
p2249
I0
sVEncryChatRoomId
p2250
g56
sVAttrStatus
p2251
I4283
sVStatues
p2252
I0
stp2253
Rp2254
I1
bag34
(g38
g39
(dp2255
VUserName
p2256
V@bb803d68bf6330ee109104c2d0e36828f0d95d2b8a54c63a3315a4c73a49b578
p2257
sVCity
p2258
V\u5927\u8fde
p2259
sVSnsFlag
p2260
I17
sVDisplayName
p2261
g56
sVUniFriend
p2262
I0
sVMemberCount
p2263
I0
sVOwnerUin
p2264
I0
sVMemberList
p2265
g52
sVAlias
p2266
Vbboycunzhang
p2267
sVPYQuanPin
p2268
Vsheng
p2269
sVSignature
p2270
V\u5fc3\u6001
p2271
sVRemarkPYInitial
p2272
VYYS
p2273
sVContactFlag
p2274
I1
sVUin
p2275
I0
sVNickName
p2276
V\u5347
p2277
sVAppAccountFlag
p2278
I0
sVVerifyFlag
p2279
I0
sVRemarkPYQuanPin
p2280
Vyuyuesheng
p2281
sVHeadImgUrl
p2282
V/cgi-bin/mmwebwx-bin/webwxgeticon?seq=660425030&username=@bb803d68bf6330ee109104c2d0e36828f0d95d2b8a54c63a3315a4c73a49b578&skey=@crypt_870a16cf_207aee7f546ee349effd29338bf7cbd7
p2283
sVKeyWord
p2284
g56
sVProvince
p2285
V\u8fbd\u5b81
p2286
sVPYInitial
p2287
VS
p2288
sVRemarkName
p2289
V\u4e8e\u8dc3\u751f
p2290
sVIsOwner
p2291
I0
sVSex
p2292
I1
sVStarFriend
p2293
I0
sVHideInputBarFlag
p2294
I0
sVChatRoomId
p2295
I0
sVEncryChatRoomId
p2296
g56
sVAttrStatus
p2297
I135269
sVStatues
p2298
I0
stp2299
Rp2300
I1
bag34
(g38
g39
(dp2301
VUserName
p2302
V@87d356ce8a0119f28dc51f8f60717139900b380730db43a20b8aafc9038a7c72
p2303
sVCity
p2304
V\u5927\u8fde
p2305
sVSnsFlag
p2306
I17
sVDisplayName
p2307
g56
sVUniFriend
p2308
I0
sVMemberCount
p2309
I0
sVOwnerUin
p2310
I0
sVMemberList
p2311
g52
sVAlias
p2312
Vws762080785
p2313
sVPYQuanPin
p2314
Vxiaojiujiu
p2315
sVSignature
p2316
g56
sVRemarkPYInitial
p2317
VWS
p2318
sVContactFlag
p2319
I1
sVUin
p2320
I0
sVNickName
p2321
V\u25b2\u5c0f\u4e5d\u4e5d\u3001
p2322
sVAppAccountFlag
p2323
I0
sVVerifyFlag
p2324
I0
sVRemarkPYQuanPin
p2325
Vwangsong
p2326
sVHeadImgUrl
p2327
V/cgi-bin/mmwebwx-bin/webwxgeticon?seq=660412935&username=@87d356ce8a0119f28dc51f8f60717139900b380730db43a20b8aafc9038a7c72&skey=@crypt_870a16cf_207aee7f546ee349effd29338bf7cbd7
p2328
sVKeyWord
p2329
g56
sVProvince
p2330
V\u8fbd\u5b81
p2331
sVPYInitial
p2332
VXJJ
p2333
sVRemarkName
p2334
V\u738b\u677e
p2335
sVIsOwner
p2336
I0
sVSex
p2337
I2
sVStarFriend
p2338
I0
sVHideInputBarFlag
p2339
I0
sVChatRoomId
p2340
I0
sVEncryChatRoomId
p2341
g56
sVAttrStatus
p2342
I99431
sVStatues
p2343
I0
stp2344
Rp2345
I1
bag34
(g38
g39
(dp2346
VUserName
p2347
V@7e4ae8115b8f5a1931f8f9591bdf1844
p2348
sVCity
p2349
V\u4e30\u53f0
p2350
sVSnsFlag
p2351
I49
sVDisplayName
p2352
g56
sVUniFriend
p2353
I0
sVMemberCount
p2354
I0
sVOwnerUin
p2355
I0
sVMemberList
p2356
g52
sVAlias
p2357
g56
sVPYQuanPin
p2358
Vsnow
p2359
sVSignature
p2360
V\u7761\u89c9\u7761\u5230\u81ea\u7136\u9192\uff08\u5bb6\u6709\u5e05\u54e5\uff09
p2361
sVRemarkPYInitial
p2362
VZX
p2363
sVContactFlag
p2364
I1
sVUin
p2365
I0
sVNickName
p2366
Vsnow
p2367
sVAppAccountFlag
p2368
I0
sVVerifyFlag
p2369
I0
sVRemarkPYQuanPin
p2370
Vzhangxue
p2371
sVHeadImgUrl
p2372
V/cgi-bin/mmwebwx-bin/webwxgeticon?seq=660401662&username=@7e4ae8115b8f5a1931f8f9591bdf1844&skey=@crypt_870a16cf_207aee7f546ee349effd29338bf7cbd7
p2373
sVKeyWord
p2374
Vyux
p2375
sVProvince
p2376
V\u5317\u4eac
p2377
sVPYInitial
p2378
VSNOW
p2379
sVRemarkName
p2380
V\u5f20\u96ea
p2381
sVIsOwner
p2382
I0
sVSex
p2383
I2
sVStarFriend
p2384
I0
sVHideInputBarFlag
p2385
I0
sVChatRoomId
p2386
I0
sVEncryChatRoomId
p2387
g56
sVAttrStatus
p2388
I98727
sVStatues
p2389
I0
stp2390
Rp2391
I1
bag34
(g38
g39
(dp2392
VUserName
p2393
V@12abfcd14c230e6f23fd41eb32874b15afae5fb3f6d350a79fc524977bef0382
p2394
sVCity
p2395
g56
sVSnsFlag
p2396
I1
sVDisplayName
p2397
g56
sVUniFriend
p2398
I0
sVMemberCount
p2399
I0
sVOwnerUin
p2400
I0
sVMemberList
p2401
g52
sVAlias
p2402
Vq774344438
p2403
sVPYQuanPin
p2404
V0o0
p2405
sVSignature
p2406
g56
sVRemarkPYInitial
p2407
VZZ
p2408
sVContactFlag
p2409
I3
sVUin
p2410
I0
sVNickName
p2411
V0o0
p2412
sVAppAccountFlag
p2413
I0
sVVerifyFlag
p2414
I0
sVRemarkPYQuanPin
p2415
Vzhangzhen
p2416
sVHeadImgUrl
p2417
V/cgi-bin/mmwebwx-bin/webwxgeticon?seq=660428675&username=@12abfcd14c230e6f23fd41eb32874b15afae5fb3f6d350a79fc524977bef0382&skey=@crypt_870a16cf_207aee7f546ee349effd29338bf7cbd7
p2418
sVKeyWord
p2419
g56
sVProvince
p2420
g56
sVPYInitial
p2421
V0O0
p2422
sVRemarkName
p2423
V\u5f20\u9707
p2424
sVIsOwner
p2425
I0
sVSex
p2426
I1
sVStarFriend
p2427
I0
sVHideInputBarFlag
p2428
I0
sVChatRoomId
p2429
I0
sVEncryChatRoomId
p2430
g56
sVAttrStatus
p2431
I136123
sVStatues
p2432
I0
stp2433
Rp2434
I1
bag34
(g38
g39
(dp2435
VUserName
p2436
V@10d88937aef96d958aedec00546387b4c3862aae3edb5d8d070ff23e879ca9aa
p2437
sVCity
p2438
g56
sVSnsFlag
p2439
I49
sVDisplayName
p2440
g56
sVUniFriend
p2441
I0
sVMemberCount
p2442
I0
sVOwnerUin
p2443
I0
sVMemberList
p2444
g52
sVAlias
p2445
Vnn09210113
p2446
sVPYQuanPin
p2447
Vheniyiqi
p2448
sVSignature
p2449
V\u9633\u5149\u4e0b\u50cf\u4e2a\u5b69\u5b50\uff0c\u98ce\u96e8\u91cc\u50cf\u4e2a\u5927\u4eba\u2026\u2026<span class="emoji emoji1f493"></span>
p2450
sVRemarkPYInitial
p2451
VNN
p2452
sVContactFlag
p2453
I1
sVUin
p2454
I0
sVNickName
p2455
V\u4f55\u4f60\u4e00\u8d77
p2456
sVAppAccountFlag
p2457
I0
sVVerifyFlag
p2458
I0
sVRemarkPYQuanPin
p2459
Vningning
p2460
sVHeadImgUrl
p2461
V/cgi-bin/mmwebwx-bin/webwxgeticon?seq=660420984&username=@10d88937aef96d958aedec00546387b4c3862aae3edb5d8d070ff23e879ca9aa&skey=@crypt_870a16cf_207aee7f546ee349effd29338bf7cbd7
p2462
sVKeyWord
p2463
g56
sVProvince
p2464
VParis
p2465
sVPYInitial
p2466
VHNYQ
p2467
sVRemarkName
p2468
V\u5b81\u5b81
p2469
sVIsOwner
p2470
I0
sVSex
p2471
I2
sVStarFriend
p2472
I0
sVHideInputBarFlag
p2473
I0
sVChatRoomId
p2474
I0
sVEncryChatRoomId
p2475
g56
sVAttrStatus
p2476
I231333
sVStatues
p2477
I0
stp2478
Rp2479
I1
bag34
(g38
g39
(dp2480
VUserName
p2481
V@236ad926dd9fae07184f495b474bd26e911f3af49372c75edd4083450f8d4e4c
p2482
sVCity
p2483
V\u5927\u8fde
p2484
sVSnsFlag
p2485
I17
sVDisplayName
p2486
g56
sVUniFriend
p2487
I0
sVMemberCount
p2488
I0
sVOwnerUin
p2489
I0
sVMemberList
p2490
g52
sVAlias
p2491
Vshang13644255779
p2492
sVPYQuanPin
p2493
Vhudiezhongjiufeibuguocanghai
p2494
sVSignature
p2495
V\u4e0d\u518d\u7b49\u5f85\u68a6\u91cc\u82b1\u5f00....
p2496
sVRemarkPYInitial
p2497
VSDX
p2498
sVContactFlag
p2499
I1
sVUin
p2500
I0
sVNickName
p2501
V\u8774\u8776\u7ec8\u7a76\u98de\u4e0d\u8fc7\u6ca7\u6d77
p2502
sVAppAccountFlag
p2503
I0
sVVerifyFlag
p2504
I0
sVRemarkPYQuanPin
p2505
Vshangdongxue
p2506
sVHeadImgUrl
p2507
V/cgi-bin/mmwebwx-bin/webwxgeticon?seq=660427797&username=@236ad926dd9fae07184f495b474bd26e911f3af49372c75edd4083450f8d4e4c&skey=@crypt_870a16cf_207aee7f546ee349effd29338bf7cbd7
p2508
sVKeyWord
p2509
g56
sVProvince
p2510
V\u8fbd\u5b81
p2511
sVPYInitial
p2512
VHDZJFBGCH
p2513
sVRemarkName
p2514
V\u5c1a\u51ac\u96ea
p2515
sVIsOwner
p2516
I0
sVSex
p2517
I2
sVStarFriend
p2518
I0
sVHideInputBarFlag
p2519
I0
sVChatRoomId
p2520
I0
sVEncryChatRoomId
p2521
g56
sVAttrStatus
p2522
I104743
sVStatues
p2523
I0
stp2524
Rp2525
I1
bag34
(g38
g39
(dp2526
VUserName
p2527
V@9692b1ac6f189d5939d7c3261215b295
p2528
sVCity
p2529
V\u5927\u8fde
p2530
sVSnsFlag
p2531
I17
sVDisplayName
p2532
g56
sVUniFriend
p2533
I0
sVMemberCount
p2534
I0
sVOwnerUin
p2535
I0
sVMemberList
p2536
g52
sVAlias
p2537
Vjiji15524625282fly
p2538
sVPYQuanPin
p2539
Vjiji
p2540
sVSignature
p2541
V\u52aa\u529b\u5230\u65e0\u80fd\u4e3a\u529b\uff0c\u62fc\u640f\u5230\u611f\u52a8\u81ea\u5df1\uff01
p2542
sVRemarkPYInitial
p2543
VSZ
p2544
sVContactFlag
p2545
I5
sVUin
p2546
I0
sVNickName
p2547
V\u5409      \u5409
p2548
sVAppAccountFlag
p2549
I0
sVVerifyFlag
p2550
I0
sVRemarkPYQuanPin
p2551
Vsunzhe
p2552
sVHeadImgUrl
p2553
V/cgi-bin/mmwebwx-bin/webwxgeticon?seq=660428972&username=@9692b1ac6f189d5939d7c3261215b295&skey=@crypt_870a16cf_207aee7f546ee349effd29338bf7cbd7
p2554
sVKeyWord
p2555
Verj
p2556
sVProvince
p2557
V\u8fbd\u5b81
p2558
sVPYInitial
p2559
VJJ
p2560
sVRemarkName
p2561
V\u5b59\u5586
p2562
sVIsOwner
p2563
I0
sVSex
p2564
I2
sVStarFriend
p2565
I0
sVHideInputBarFlag
p2566
I0
sVChatRoomId
p2567
I0
sVEncryChatRoomId
p2568
g56
sVAttrStatus
p2569
I71207
sVStatues
p2570
I0
stp2571
Rp2572
I1
bag34
(g38
g39
(dp2573
VUserName
p2574
V@b355e5a75cfe74c65ae7101b28f5f4b8
p2575
sVCity
p2576
V\u54c8\u5c14\u6ee8
p2577
sVSnsFlag
p2578
I17
sVDisplayName
p2579
g56
sVUniFriend
p2580
I0
sVMemberCount
p2581
I0
sVOwnerUin
p2582
I0
sVMemberList
p2583
g52
sVAlias
p2584
g56
sVPYQuanPin
p2585
Vguilairengshishaonian
p2586
sVSignature
p2587
V\u613f\u4f60\u8d70\u51fa\u534a\u751f\uff0c\u5f52\u6765\u4ecd\u662f\u5c11\u5e74\u3002
p2588
sVRemarkPYInitial
p2589
VFTL
p2590
sVContactFlag
p2591
I65537
sVUin
p2592
I0
sVNickName
p2593
V\u5f52\u6765\u4ecd\u662f\u5c11\u5e74
p2594
sVAppAccountFlag
p2595
I0
sVVerifyFlag
p2596
I0
sVRemarkPYQuanPin
p2597
Vfantielin
p2598
sVHeadImgUrl
p2599
V/cgi-bin/mmwebwx-bin/webwxgeticon?seq=660429148&username=@b355e5a75cfe74c65ae7101b28f5f4b8&skey=@crypt_870a16cf_207aee7f546ee349effd29338bf7cbd7
p2600
sVKeyWord
p2601
VWol
p2602
sVProvince
p2603
V\u9ed1\u9f99\u6c5f
p2604
sVPYInitial
p2605
VGLRSSN
p2606
sVRemarkName
p2607
V\u8303\u94c1\u6797
p2608
sVIsOwner
p2609
I0
sVSex
p2610
I1
sVStarFriend
p2611
I0
sVHideInputBarFlag
p2612
I0
sVChatRoomId
p2613
I0
sVEncryChatRoomId
p2614
g56
sVAttrStatus
p2615
I33652839
sVStatues
p2616
I0
stp2617
Rp2618
I1
bag34
(g38
g39
(dp2619
VUserName
p2620
V@9d0cdd6d369e23a7bfad7fc82e88a47745337118f01e8096e9223275fb96c6e8
p2621
sVCity
p2622
V\u6c88\u9633
p2623
sVSnsFlag
p2624
I17
sVDisplayName
p2625
g56
sVUniFriend
p2626
I0
sVMemberCount
p2627
I0
sVOwnerUin
p2628
I0
sVMemberList
p2629
g52
sVAlias
p2630
VAyan2156unique
p2631
sVPYQuanPin
p2632
Vyantofengjing
p2633
sVSignature
p2634
V\u6211\u60f3\u8981\u7684\u4e0d\u662f\u559c\u6b22\uff0c\u800c\u662f\u504f\u7231\U0001f61b
p2635
sVRemarkPYInitial
p2636
VAY
p2637
sVContactFlag
p2638
I1
sVUin
p2639
I0
sVNickName
p2640
V\u598d to \u98ce\u666f
p2641
sVAppAccountFlag
p2642
I0
sVVerifyFlag
p2643
I0
sVRemarkPYQuanPin
p2644
Vaiyan
p2645
sVHeadImgUrl
p2646
V/cgi-bin/mmwebwx-bin/webwxgeticon?seq=660417585&username=@9d0cdd6d369e23a7bfad7fc82e88a47745337118f01e8096e9223275fb96c6e8&skey=@crypt_870a16cf_207aee7f546ee349effd29338bf7cbd7
p2647
sVKeyWord
p2648
g56
sVProvince
p2649
V\u8fbd\u5b81
p2650
sVPYInitial
p2651
VYTOFJ
p2652
sVRemarkName
p2653
V\u827e\u598d
p2654
sVIsOwner
p2655
I0
sVSex
p2656
I2
sVStarFriend
p2657
I0
sVHideInputBarFlag
p2658
I0
sVChatRoomId
p2659
I0
sVEncryChatRoomId
p2660
g56
sVAttrStatus
p2661
I111077
sVStatues
p2662
I0
stp2663
Rp2664
I1
bag34
(g38
g39
(dp2665
VUserName
p2666
V@b20ba75187825888371944a6a90ccebb587543edd487de3fc45b2a8ca25c1428
p2667
sVCity
p2668
g56
sVSnsFlag
p2669
I17
sVDisplayName
p2670
g56
sVUniFriend
p2671
I0
sVMemberCount
p2672
I0
sVOwnerUin
p2673
I0
sVMemberList
p2674
g52
sVAlias
p2675
Vdml1799195075
p2676
sVPYQuanPin
p2677
Vshuizemulan
p2678
sVSignature
p2679
V\u4e00\u82b1\u4e00\u4e16\u754c\u4e00\u53f6\u4e00\u83e9\u63d0
p2680
sVRemarkPYInitial
p2681
VLS
p2682
sVContactFlag
p2683
I65537
sVUin
p2684
I0
sVNickName
p2685
V\u6c34\u6cfd\u6728\u5170
p2686
sVAppAccountFlag
p2687
I0
sVVerifyFlag
p2688
I0
sVRemarkPYQuanPin
p2689
Vlaoshen
p2690
sVHeadImgUrl
p2691
V/cgi-bin/mmwebwx-bin/webwxgeticon?seq=660428317&username=@b20ba75187825888371944a6a90ccebb587543edd487de3fc45b2a8ca25c1428&skey=@crypt_870a16cf_207aee7f546ee349effd29338bf7cbd7
p2692
sVKeyWord
p2693
g56
sVProvince
p2694
VParis
p2695
sVPYInitial
p2696
VSZML
p2697
sVRemarkName
p2698
V\u8001\u5a76
p2699
sVIsOwner
p2700
I0
sVSex
p2701
I2
sVStarFriend
p2702
I0
sVHideInputBarFlag
p2703
I0
sVChatRoomId
p2704
I0
sVEncryChatRoomId
p2705
g56
sVAttrStatus
p2706
I6717
sVStatues
p2707
I0
stp2708
Rp2709
I1
bag34
(g38
g39
(dp2710
VUserName
p2711
V@0747e47fe235dbe326b84e38cf85f77ef8bc891916d4d1fd11c715d7794aa29b
p2712
sVCity
p2713
V\u6c88\u9633
p2714
sVSnsFlag
p2715
I17
sVDisplayName
p2716
g56
sVUniFriend
p2717
I0
sVMemberCount
p2718
I0
sVOwnerUin
p2719
I0
sVMemberList
p2720
g52
sVAlias
p2721
Vshidizai23
p2722
sVPYQuanPin
p2723
Vshidizai
p2724
sVSignature
p2725
V\u4e0d\u52aa\u529b \u672a\u6765\u6c38\u8fdc\u90fd\u53ea\u662f\u4e00\u4e2a\u68a6
p2726
sVRemarkPYInitial
p2727
VWHN
p2728
sVContactFlag
p2729
I1
sVUin
p2730
I0
sVNickName
p2731
V\u53f2\u8fea\u4ed4
p2732
sVAppAccountFlag
p2733
I0
sVVerifyFlag
p2734
I0
sVRemarkPYQuanPin
p2735
Vwanghaonan
p2736
sVHeadImgUrl
p2737
V/cgi-bin/mmwebwx-bin/webwxgeticon?seq=660412955&username=@0747e47fe235dbe326b84e38cf85f77ef8bc891916d4d1fd11c715d7794aa29b&skey=@crypt_870a16cf_207aee7f546ee349effd29338bf7cbd7
p2738
sVKeyWord
p2739
g56
sVProvince
p2740
V\u8fbd\u5b81
p2741
sVPYInitial
p2742
VSDZ
p2743
sVRemarkName
p2744
V\u738b\u660a\u6960
p2745
sVIsOwner
p2746
I0
sVSex
p2747
I2
sVStarFriend
p2748
I0
sVHideInputBarFlag
p2749
I0
sVChatRoomId
p2750
I0
sVEncryChatRoomId
p2751
g56
sVAttrStatus
p2752
I233575
sVStatues
p2753
I0
stp2754
Rp2755
I1
bag34
(g38
g39
(dp2756
VUserName
p2757
V@57dbfa7cd7a00b14de21368454817b58
p2758
sVCity
p2759
V\u5927\u8fde
p2760
sVSnsFlag
p2761
I17
sVDisplayName
p2762
g56
sVUniFriend
p2763
I0
sVMemberCount
p2764
I0
sVOwnerUin
p2765
I0
sVMemberList
p2766
g52
sVAlias
p2767
g56
sVPYQuanPin
p2768
Vdapeng
p2769
sVSignature
p2770
V\u4f73\u4eba\u5982\u7389\uff0c\u516c\u5b50\u65e0\u53cc
p2771
sVRemarkPYInitial
p2772
VQSP
p2773
sVContactFlag
p2774
I5
sVUin
p2775
I0
sVNickName
p2776
V\u5927\u9e4f
p2777
sVAppAccountFlag
p2778
I0
sVVerifyFlag
p2779
I0
sVRemarkPYQuanPin
p2780
Vqushupeng
p2781
sVHeadImgUrl
p2782
V/cgi-bin/mmwebwx-bin/webwxgeticon?seq=660425585&username=@57dbfa7cd7a00b14de21368454817b58&skey=@crypt_870a16cf_207aee7f546ee349effd29338bf7cbd7
p2783
sVKeyWord
p2784
Vqsp
p2785
sVProvince
p2786
V\u8fbd\u5b81
p2787
sVPYInitial
p2788
VDP
p2789
sVRemarkName
p2790
V\u66f2\u4e66\u9e4f
p2791
sVIsOwner
p2792
I0
sVSex
p2793
I1
sVStarFriend
p2794
I0
sVHideInputBarFlag
p2795
I0
sVChatRoomId
p2796
I0
sVEncryChatRoomId
p2797
g56
sVAttrStatus
p2798
I233975
sVStatues
p2799
I0
stp2800
Rp2801
I1
bag34
(g38
g39
(dp2802
VUserName
p2803
V@d013ca892dc65d8378d2dde28c69bbd943fc0fdfb61180909b0ed57faccd2e4e
p2804
sVCity
p2805
V\u5927\u8fde
p2806
sVSnsFlag
p2807
I1
sVDisplayName
p2808
g56
sVUniFriend
p2809
I0
sVMemberCount
p2810
I0
sVOwnerUin
p2811
I0
sVMemberList
p2812
g52
sVAlias
p2813
Vlb_long0123
p2814
sVPYQuanPin
p2815
Vmuampzi
p2816
sVSignature
p2817
V\u505a\u4e2a\u4f4e\u8c03\u7684\u5b69\u5b50\u53ef\u597d\uff1f
p2818
sVRemarkPYInitial
p2819
VLGB
p2820
sVContactFlag
p2821
I65537
sVUin
p2822
I0
sVNickName
p2823
V\u6728&amp;\u5b50
p2824
sVAppAccountFlag
p2825
I0
sVVerifyFlag
p2826
I0
sVRemarkPYQuanPin
p2827
Vliguobin
p2828
sVHeadImgUrl
p2829
V/cgi-bin/mmwebwx-bin/webwxgeticon?seq=660430113&username=@d013ca892dc65d8378d2dde28c69bbd943fc0fdfb61180909b0ed57faccd2e4e&skey=@crypt_870a16cf_207aee7f546ee349effd29338bf7cbd7
p2830
sVKeyWord
p2831
g56
sVProvince
p2832
V\u8fbd\u5b81
p2833
sVPYInitial
p2834
VMAMPZ
p2835
sVRemarkName
p2836
V\u674e\u56fd\u658c
p2837
sVIsOwner
p2838
I0
sVSex
p2839
I2
sVStarFriend
p2840
I0
sVHideInputBarFlag
p2841
I0
sVChatRoomId
p2842
I0
sVEncryChatRoomId
p2843
g56
sVAttrStatus
p2844
I102693
sVStatues
p2845
I0
stp2846
Rp2847
I1
batp2848
Rp2849
I1
bsS'chatroomList'
p2850
g34
(g35
g36
(lp2851
g34
(citchat.storage.templates
Chatroom
p2852
g39
(dp2853
VUserName
p2854
V@@f0576b58a8d4f7276bbceaf298c24aa293f7fc2040e6bb3c3dd43fca7ec0be5a
p2855
sVCity
p2856
g56
sVDisplayName
p2857
g56
sVUniFriend
p2858
I0
sS'Self'
p2859
g34
(g38
g39
(dp2860
g41
g31
sg43
g46
sg45
g46
sg47
I0
sg48
I0
sg49
g34
(g35
g36
(lp2861
tp2862
Rp2863
I1
bsg53
g56
sg55
g56
sg57
I1835068021
sg58
I0
sg59
I0
sg60
g46
sg62
g46
sg63
g56
sg64
g56
sg66
I0
sg68
I0
sg69
I1
sg70
g46
sg71
I0
sg72
I17
sg73
I0
sg74
I1
sg75
g46
sg77
V\u5982\u679c\u6211\u60f3\u4f60\uff0c\u5c31\u7ffb\u4e24\u5ea7\u5c71\uff0c\u8d70\u4e94\u91cc\u8def\uff0c\u53bb\u7275\u4f60\u7684\u624b
p2864
sg79
I0
sg80
VDAREDEVIL
p2865
sg82
g56
sg83
V/cgi-bin/mmwebwx-bin/webwxgeticon?seq=1254809585&username=@2dd3b60e092c0df0796ba95aab68f9d5dfbc99674eada7539f602ffb10f14a9c&skey=@crypt_870a16cf_207aee7f546ee349effd29338bf7cbd7
p2866
sg85
I1
sg86
I0
sg87
I0
stp2867
Rp2868
I1
bsVMemberList
p2869
g34
(g35
g36
(lp2870
tp2871
Rp2872
I1
bsVPYQuanPin
p2873
Vjibanlalala
p2874
sVRemarkPYInitial
p2875
g56
sVSex
p2876
I0
sVAppAccountFlag
p2877
I0
sVVerifyFlag
p2878
I0
sVProvince
p2879
g56
sVKeyWord
p2880
g56
sVRemarkName
p2881
g56
sVPYInitial
p2882
VJBLLL
p2883
sVIsOwner
p2884
I0
sVChatRoomId
p2885
I0
sVHideInputBarFlag
p2886
I0
sVEncryChatRoomId
p2887
g56
sVAttrStatus
p2888
I0
sVSnsFlag
p2889
I0
sVMemberCount
p2890
I0
sVOwnerUin
p2891
I0
sVAlias
p2892
g56
sS'IsAdmin'
p2893
NsVSignature
p2894
g56
sVContactFlag
p2895
I1
sVNickName
p2896
V\u7f81\u7eca~\u005c(\u2267\u25bd\u2266)/~\u5566\u5566\u5566
p2897
sVRemarkPYQuanPin
p2898
g56
sVHeadImgUrl
p2899
V/cgi-bin/mmwebwx-bin/webwxgetheadimg?seq=639320757&username=@@f0576b58a8d4f7276bbceaf298c24aa293f7fc2040e6bb3c3dd43fca7ec0be5a&skey=@crypt_870a16cf_207aee7f546ee349effd29338bf7cbd7
p2900
sVUin
p2901
I0
sVStarFriend
p2902
I0
sVStatues
p2903
I0
stp2904
Rp2905
I1
bag34
(g2852
g39
(dp2906
VUserName
p2907
V@@e435a8f5c497d57eebb18b580725a7f231af80be005bdf3d55d3e68b4dd92456
p2908
sVCity
p2909
g56
sVDisplayName
p2910
g56
sVUniFriend
p2911
I0
sg2859
g34
(g38
g39
(dp2912
g41
g31
sg43
g46
sg45
g46
sg47
I0
sg48
I0
sg49
g34
(g35
g36
(lp2913
tp2914
Rp2915
I1
bsg53
g56
sg55
g56
sg57
I1835068021
sg58
I0
sg59
I0
sg60
g46
sg62
g46
sg63
g56
sg64
g56
sg66
I0
sg68
I0
sg69
I1
sg70
g46
sg71
I0
sg72
I17
sg73
I0
sg74
I1
sg75
g46
sg77
g2864
sg79
I0
sg80
g2865
sg82
g56
sg83
g2866
sg85
I1
sg86
I0
sg87
I0
stp2916
Rp2917
I1
bsVMemberList
p2918
g34
(g35
g36
(lp2919
tp2920
Rp2921
I1
bsVPYQuanPin
p2922
Vdashifoyoueryuan98
p2923
sVRemarkPYInitial
p2924
g56
sVSex
p2925
I0
sVAppAccountFlag
p2926
I0
sVVerifyFlag
p2927
I0
sVProvince
p2928
g56
sVKeyWord
p2929
g56
sVRemarkName
p2930
g56
sVPYInitial
p2931
VDSFYEY98
p2932
sVIsOwner
p2933
I0
sVChatRoomId
p2934
I0
sVHideInputBarFlag
p2935
I0
sVEncryChatRoomId
p2936
g56
sVAttrStatus
p2937
I0
sVSnsFlag
p2938
I0
sVMemberCount
p2939
I0
sVOwnerUin
p2940
I0
sVAlias
p2941
g56
sg2893
NsVSignature
p2942
g56
sVContactFlag
p2943
I1
sVNickName
p2944
V\u5927\u77f3\u4f5b\u5e7c\u513f\u56ed(98)
p2945
sVRemarkPYQuanPin
p2946
g56
sVHeadImgUrl
p2947
V/cgi-bin/mmwebwx-bin/webwxgetheadimg?seq=648809581&username=@@e435a8f5c497d57eebb18b580725a7f231af80be005bdf3d55d3e68b4dd92456&skey=@crypt_870a16cf_207aee7f546ee349effd29338bf7cbd7
p2948
sVUin
p2949
I0
sVStarFriend
p2950
I0
sVStatues
p2951
I0
stp2952
Rp2953
I1
bag34
(g2852
g39
(dp2954
VUserName
p2955
V@@62cdffb21548643e63abdb9133bd24ed3f89183cf4d4fe6f6b0a37ee85644e3d
p2956
sVCity
p2957
g56
sVDisplayName
p2958
g56
sVUniFriend
p2959
I0
sg2859
g34
(g38
g39
(dp2960
g41
g31
sg43
g46
sg45
g46
sg47
I0
sg48
I0
sg49
g34
(g35
g36
(lp2961
tp2962
Rp2963
I1
bsg53
g56
sg55
g56
sg57
I1835068021
sg58
I0
sg59
I0
sg60
g46
sg62
g46
sg63
g56
sg64
g56
sg66
I0
sg68
I0
sg69
I1
sg70
g46
sg71
I0
sg72
I17
sg73
I0
sg74
I1
sg75
g46
sg77
g2864
sg79
I0
sg80
g2865
sg82
g56
sg83
g2866
sg85
I1
sg86
I0
sg87
I0
stp2964
Rp2965
I1
bsVMemberList
p2966
g34
(g35
g36
(lp2967
tp2968
Rp2969
I1
bsVPYQuanPin
p2970
Vgongxinhehuadongshujubeijingtongshiqun
p2971
sVRemarkPYInitial
p2972
g56
sVSex
p2973
I0
sVAppAccountFlag
p2974
I0
sVVerifyFlag
p2975
I0
sVProvince
p2976
g56
sVKeyWord
p2977
g56
sVRemarkName
p2978
g56
sVPYInitial
p2979
VGXHHDSJBJTSQ
p2980
sVIsOwner
p2981
I0
sVChatRoomId
p2982
I0
sVHideInputBarFlag
p2983
I0
sVEncryChatRoomId
p2984
g56
sVAttrStatus
p2985
I0
sVSnsFlag
p2986
I0
sVMemberCount
p2987
I0
sVOwnerUin
p2988
I0
sVAlias
p2989
g56
sg2893
NsVSignature
p2990
g56
sVContactFlag
p2991
I1
sVNickName
p2992
V\u516c\u4fe1\u548c\u534e\u4e1c\u6570\u636e\u5317\u4eac\u540c\u4e8b\u7fa4
p2993
sVRemarkPYQuanPin
p2994
g56
sVHeadImgUrl
p2995
V/cgi-bin/mmwebwx-bin/webwxgetheadimg?seq=648848866&username=@@62cdffb21548643e63abdb9133bd24ed3f89183cf4d4fe6f6b0a37ee85644e3d&skey=@crypt_870a16cf_207aee7f546ee349effd29338bf7cbd7
p2996
sVUin
p2997
I0
sVStarFriend
p2998
I0
sVStatues
p2999
I0
stp3000
Rp3001
I1
bag34
(g2852
g39
(dp3002
VUserName
p3003
V@@d687e389d18ae92b63b0d1d6fc46f632e2e0a9a4666e9b851932486d31dd5b8f
p3004
sVCity
p3005
g56
sVDisplayName
p3006
g56
sVUniFriend
p3007
I0
sg2859
g34
(g38
g39
(dp3008
g41
g31
sg43
g46
sg45
g46
sg47
I0
sg48
I0
sg49
g34
(g35
g36
(lp3009
tp3010
Rp3011
I1
bsg53
g56
sg55
g56
sg57
I1835068021
sg58
I0
sg59
I0
sg60
g46
sg62
g46
sg63
g56
sg64
g56
sg66
I0
sg68
I0
sg69
I1
sg70
g46
sg71
I0
sg72
I17
sg73
I0
sg74
I1
sg75
g46
sg77
g2864
sg79
I0
sg80
g2865
sg82
g56
sg83
g2866
sg85
I1
sg86
I0
sg87
I0
stp3012
Rp3013
I1
bsVMemberList
p3014
g34
(g35
g36
(lp3015
tp3016
Rp3017
I1
bsVPYQuanPin
p3018
Vshifoyierdui
p3019
sVRemarkPYInitial
p3020
g56
sVSex
p3021
I0
sVAppAccountFlag
p3022
I0
sVVerifyFlag
p3023
I0
sVProvince
p3024
g56
sVKeyWord
p3025
g56
sVRemarkName
p3026
g56
sVPYInitial
p3027
VSFYED
p3028
sVIsOwner
p3029
I0
sVChatRoomId
p3030
I0
sVHideInputBarFlag
p3031
I0
sVEncryChatRoomId
p3032
g56
sVAttrStatus
p3033
I0
sVSnsFlag
p3034
I0
sVMemberCount
p3035
I0
sVOwnerUin
p3036
I0
sVAlias
p3037
g56
sg2893
NsVSignature
p3038
g56
sVContactFlag
p3039
I1
sVNickName
p3040
V\u77f3\u4f5b\u4e00\u4e8c\u961f
p3041
sVRemarkPYQuanPin
p3042
g56
sVHeadImgUrl
p3043
V/cgi-bin/mmwebwx-bin/webwxgetheadimg?seq=648809583&username=@@d687e389d18ae92b63b0d1d6fc46f632e2e0a9a4666e9b851932486d31dd5b8f&skey=@crypt_870a16cf_207aee7f546ee349effd29338bf7cbd7
p3044
sVUin
p3045
I0
sVStarFriend
p3046
I0
sVStatues
p3047
I0
stp3048
Rp3049
I1
bag34
(g2852
g39
(dp3050
VUserName
p3051
V@@95bec8a90ad4305f23ade6201b38be75036d766574af3645ef7b735c4d0afddd
p3052
sVCity
p3053
g56
sVDisplayName
p3054
g56
sVUniFriend
p3055
I0
sg2859
g34
(g38
g39
(dp3056
g41
g31
sg43
g46
sg45
g46
sg47
I0
sg48
I0
sg49
g34
(g35
g36
(lp3057
tp3058
Rp3059
I1
bsg53
g56
sg55
g56
sg57
I1835068021
sg58
I0
sg59
I0
sg60
g46
sg62
g46
sg63
g56
sg64
g56
sg66
I0
sg68
I0
sg69
I1
sg70
g46
sg71
I0
sg72
I17
sg73
I0
sg74
I1
sg75
g46
sg77
g2864
sg79
I0
sg80
g2865
sg82
g56
sg83
g2866
sg85
I1
sg86
I0
sg87
I0
stp3060
Rp3061
I1
bsVMemberList
p3062
g34
(g35
g36
(lp3063
tp3064
Rp3065
I1
bsVPYQuanPin
p3066
Vqingqian12womendegushi
p3067
sVRemarkPYInitial
p3068
g56
sVSex
p3069
I0
sVAppAccountFlag
p3070
I0
sVVerifyFlag
p3071
I0
sVProvince
p3072
g56
sVKeyWord
p3073
g56
sVRemarkName
p3074
g56
sVPYInitial
p3075
VQQ12WMDGS
p3076
sVIsOwner
p3077
I0
sVChatRoomId
p3078
I0
sVHideInputBarFlag
p3079
I0
sVEncryChatRoomId
p3080
g56
sVAttrStatus
p3081
I0
sVSnsFlag
p3082
I0
sVMemberCount
p3083
I0
sVOwnerUin
p3084
I0
sVAlias
p3085
g56
sg2893
NsVSignature
p3086
g56
sVContactFlag
p3087
I1
sVNickName
p3088
V\u60c5\u727512\u6211\u4eec\u7684\u6545\u4e8b
p3089
sVRemarkPYQuanPin
p3090
g56
sVHeadImgUrl
p3091
V/cgi-bin/mmwebwx-bin/webwxgetheadimg?seq=648840742&username=@@95bec8a90ad4305f23ade6201b38be75036d766574af3645ef7b735c4d0afddd&skey=@crypt_870a16cf_207aee7f546ee349effd29338bf7cbd7
p3092
sVUin
p3093
I0
sVStarFriend
p3094
I0
sVStatues
p3095
I0
stp3096
Rp3097
I1
bag34
(g2852
g39
(dp3098
VUserName
p3099
V@@d436fb567fd76ad2b00343626452e69609cedceaf08b269dfceb3fb8588e3cfd
p3100
sVCity
p3101
g56
sVDisplayName
p3102
g56
sVUniFriend
p3103
I0
sg2859
g34
(g38
g39
(dp3104
g41
g31
sg43
g46
sg45
g46
sg47
I0
sg48
I0
sg49
g34
(g35
g36
(lp3105
tp3106
Rp3107
I1
bsg53
g56
sg55
g56
sg57
I1835068021
sg58
I0
sg59
I0
sg60
g46
sg62
g46
sg63
g56
sg64
g56
sg66
I0
sg68
I0
sg69
I1
sg70
g46
sg71
I0
sg72
I17
sg73
I0
sg74
I1
sg75
g46
sg77
g2864
sg79
I0
sg80
g2865
sg82
g56
sg83
g2866
sg85
I1
sg86
I0
sg87
I0
stp3108
Rp3109
I1
bsVMemberList
p3110
g34
(g35
g36
(lp3111
tp3112
Rp3113
I1
bsVPYQuanPin
p3114
Vbaobaoqun
p3115
sVRemarkPYInitial
p3116
g56
sVSex
p3117
I0
sVAppAccountFlag
p3118
I0
sVVerifyFlag
p3119
I0
sVProvince
p3120
g56
sVKeyWord
p3121
g56
sVRemarkName
p3122
g56
sVPYInitial
p3123
VBBQ
p3124
sVIsOwner
p3125
I0
sVChatRoomId
p3126
I0
sVHideInputBarFlag
p3127
I0
sVEncryChatRoomId
p3128
g56
sVAttrStatus
p3129
I0
sVSnsFlag
p3130
I0
sVMemberCount
p3131
I0
sVOwnerUin
p3132
I0
sVAlias
p3133
g56
sg2893
NsVSignature
p3134
g56
sVContactFlag
p3135
I1
sVNickName
p3136
V\u5b9d\u5b9d\u7fa4
p3137
sVRemarkPYQuanPin
p3138
g56
sVHeadImgUrl
p3139
V/cgi-bin/mmwebwx-bin/webwxgetheadimg?seq=660421865&username=@@d436fb567fd76ad2b00343626452e69609cedceaf08b269dfceb3fb8588e3cfd&skey=@crypt_870a16cf_207aee7f546ee349effd29338bf7cbd7
p3140
sVUin
p3141
I0
sVStarFriend
p3142
I0
sVStatues
p3143
I0
stp3144
Rp3145
I1
bag34
(g2852
g39
(dp3146
VUserName
p3147
V@@93ed248ef9fec3e47e77005ce2f501e0ab45d321714beb5b7f4afab79b595426
p3148
sVCity
p3149
g56
sVDisplayName
p3150
g56
sVUniFriend
p3151
I0
sg2859
g34
(g38
g39
(dp3152
g41
g31
sg43
g46
sg45
g46
sg47
I0
sg48
I0
sg49
g34
(g35
g36
(lp3153
tp3154
Rp3155
I1
bsg53
g56
sg55
g56
sg57
I1835068021
sg58
I0
sg59
I0
sg60
g46
sg62
g46
sg63
g56
sg64
g56
sg66
I0
sg68
I0
sg69
I1
sg70
g46
sg71
I0
sg72
I17
sg73
I0
sg74
I1
sg75
g46
sg77
g2864
sg79
I0
sg80
g2865
sg82
g56
sg83
g2866
sg85
I1
sg86
I0
sg87
I0
stp3156
Rp3157
I1
bsVMemberList
p3158
g34
(g35
g36
(lp3159
tp3160
Rp3161
I1
bsVPYQuanPin
p3162
V?zaijiannikanfeifei?
p3163
sVRemarkPYInitial
p3164
g56
sVSex
p3165
I0
sVAppAccountFlag
p3166
I0
sVVerifyFlag
p3167
I0
sVProvince
p3168
g56
sVKeyWord
p3169
g56
sVRemarkName
p3170
g56
sVPYInitial
p3171
V?ZJNKFF?
p3172
sVIsOwner
p3173
I0
sVChatRoomId
p3174
I0
sVHideInputBarFlag
p3175
I0
sVEncryChatRoomId
p3176
g56
sVAttrStatus
p3177
I0
sVSnsFlag
p3178
I0
sVMemberCount
p3179
I0
sVOwnerUin
p3180
I0
sVAlias
p3181
g56
sg2893
NsVSignature
p3182
g56
sVContactFlag
p3183
I1
sVNickName
p3184
V\ua9c1\u518d\u89c1\uff0c\u4f60\u770b\uff0c\u72d2\u72d2\ua9c2
p3185
sVRemarkPYQuanPin
p3186
g56
sVHeadImgUrl
p3187
V/cgi-bin/mmwebwx-bin/webwxgetheadimg?seq=660420327&username=@@93ed248ef9fec3e47e77005ce2f501e0ab45d321714beb5b7f4afab79b595426&skey=@crypt_870a16cf_207aee7f546ee349effd29338bf7cbd7
p3188
sVUin
p3189
I0
sVStarFriend
p3190
I0
sVStatues
p3191
I0
stp3192
Rp3193
I1
bag34
(g2852
g39
(dp3194
VUserName
p3195
V@@4ff8a29e88ca536c7f3a8c386d92e589a974f45477dcb2217abfb1a2db0ff193
p3196
sVCity
p3197
g56
sVDisplayName
p3198
g56
sVUniFriend
p3199
I0
sg2859
g34
(g38
g39
(dp3200
g41
g31
sg43
g46
sg45
g46
sg47
I0
sg48
I0
sg49
g34
(g35
g36
(lp3201
tp3202
Rp3203
I1
bsg53
g56
sg55
g56
sg57
I1835068021
sg58
I0
sg59
I0
sg60
g46
sg62
g46
sg63
g56
sg64
g56
sg66
I0
sg68
I0
sg69
I1
sg70
g46
sg71
I0
sg72
I17
sg73
I0
sg74
I1
sg75
g46
sg77
g2864
sg79
I0
sg80
g2865
sg82
g56
sg83
g2866
sg85
I1
sg86
I0
sg87
I0
stp3204
Rp3205
I1
bsVMemberList
p3206
g34
(g35
g36
(lp3207
tp3208
Rp3209
I1
bsVPYQuanPin
p3210
Vspanclassemojiemoji1f3e1spanwearefamuleispanclassemojiemoji1f4b0span
p3211
sVRemarkPYInitial
p3212
g56
sVSex
p3213
I0
sVAppAccountFlag
p3214
I0
sVVerifyFlag
p3215
I0
sVProvince
p3216
g56
sVKeyWord
p3217
g56
sVRemarkName
p3218
g56
sVPYInitial
p3219
VSPANCLASSEMOJIEMOJI1F3E1SPANWEAREFMLSPANCLASSEMOJIEMOJI1F4B0SPAN
p3220
sVIsOwner
p3221
I0
sVChatRoomId
p3222
I0
sVHideInputBarFlag
p3223
I0
sVEncryChatRoomId
p3224
g56
sVAttrStatus
p3225
I0
sVSnsFlag
p3226
I0
sVMemberCount
p3227
I0
sVOwnerUin
p3228
I0
sVAlias
p3229
g56
sg2893
NsVSignature
p3230
g56
sVContactFlag
p3231
I1
sVNickName
p3232
V\U0001f3e1we are \u4f10\u6728\u7d2f\U0001f4b0
p3233
sVRemarkPYQuanPin
p3234
g56
sVHeadImgUrl
p3235
V/cgi-bin/mmwebwx-bin/webwxgetheadimg?seq=660427174&username=@@4ff8a29e88ca536c7f3a8c386d92e589a974f45477dcb2217abfb1a2db0ff193&skey=@crypt_870a16cf_207aee7f546ee349effd29338bf7cbd7
p3236
sVUin
p3237
I0
sVStarFriend
p3238
I0
sVStatues
p3239
I0
stp3240
Rp3241
I1
bag34
(g2852
g39
(dp3242
VUserName
p3243
V@@4d7ab4fe696fbd8e4682b9e6ce8933b735fb2e138c19e19ae4f163bfbd39d140
p3244
sVCity
p3245
g56
sVDisplayName
p3246
g56
sVUniFriend
p3247
I0
sg2859
g34
(g38
g39
(dp3248
g41
g31
sg43
g46
sg45
g46
sg47
I0
sg48
I0
sg49
g34
(g35
g36
(lp3249
tp3250
Rp3251
I1
bsg53
g56
sg55
g56
sg57
I1835068021
sg58
I0
sg59
I0
sg60
g46
sg62
g46
sg63
g56
sg64
g56
sg66
I0
sg68
I0
sg69
I1
sg70
g46
sg71
I0
sg72
I17
sg73
I0
sg74
I1
sg75
g46
sg77
g2864
sg79
I0
sg80
g2865
sg82
g56
sg83
g2866
sg85
I1
sg86
I0
sg87
I0
stp3252
Rp3253
I1
bsVMemberList
p3254
g34
(g35
g36
(lp3255
tp3256
Rp3257
I1
bsVPYQuanPin
p3258
Vqinyouqun
p3259
sVRemarkPYInitial
p3260
g56
sVSex
p3261
I0
sVAppAccountFlag
p3262
I0
sVVerifyFlag
p3263
I0
sVProvince
p3264
g56
sVKeyWord
p3265
g56
sVRemarkName
p3266
g56
sVPYInitial
p3267
VQYQ
p3268
sVIsOwner
p3269
I0
sVChatRoomId
p3270
I0
sVHideInputBarFlag
p3271
I0
sVEncryChatRoomId
p3272
g56
sVAttrStatus
p3273
I0
sVSnsFlag
p3274
I0
sVMemberCount
p3275
I0
sVOwnerUin
p3276
I0
sVAlias
p3277
g56
sg2893
NsVSignature
p3278
g56
sVContactFlag
p3279
I1
sVNickName
p3280
V\u4eb2\u53cb\u7fa4
p3281
sVRemarkPYQuanPin
p3282
g56
sVHeadImgUrl
p3283
V/cgi-bin/mmwebwx-bin/webwxgetheadimg?seq=660423255&username=@@4d7ab4fe696fbd8e4682b9e6ce8933b735fb2e138c19e19ae4f163bfbd39d140&skey=@crypt_870a16cf_207aee7f546ee349effd29338bf7cbd7
p3284
sVUin
p3285
I0
sVStarFriend
p3286
I0
sVStatues
p3287
I0
stp3288
Rp3289
I1
bag34
(g2852
g39
(dp3290
VUserName
p3291
V@@4bce7c3d3e38de655ad9c97c6af810899ee608922f1411933ce401804fd37cae
p3292
sVCity
p3293
g56
sVDisplayName
p3294
g56
sVUniFriend
p3295
I0
sg2859
g34
(g38
g39
(dp3296
g41
g31
sg43
g46
sg45
g46
sg47
I0
sg48
I0
sg49
g34
(g35
g36
(lp3297
tp3298
Rp3299
I1
bsg53
g56
sg55
g56
sg57
I1835068021
sg58
I0
sg59
I0
sg60
g46
sg62
g46
sg63
g56
sg64
g56
sg66
I0
sg68
I0
sg69
I1
sg70
g46
sg71
I0
sg72
I17
sg73
I0
sg74
I1
sg75
g46
sg77
g2864
sg79
I0
sg80
g2865
sg82
g56
sg83
g2866
sg85
I1
sg86
I0
sg87
I0
stp3300
Rp3301
I1
bsVMemberList
p3302
g34
(g35
g36
(lp3303
tp3304
Rp3305
I1
bsVPYQuanPin
p3306
VteamMiracle
p3307
sVRemarkPYInitial
p3308
g56
sVSex
p3309
I0
sVAppAccountFlag
p3310
I0
sVVerifyFlag
p3311
I0
sVProvince
p3312
g56
sVKeyWord
p3313
g56
sVRemarkName
p3314
g56
sVPYInitial
p3315
VTEAMMIRACLE
p3316
sVIsOwner
p3317
I0
sVChatRoomId
p3318
I0
sVHideInputBarFlag
p3319
I0
sVEncryChatRoomId
p3320
g56
sVAttrStatus
p3321
I0
sVSnsFlag
p3322
I0
sVMemberCount
p3323
I0
sVOwnerUin
p3324
I0
sVAlias
p3325
g56
sg2893
NsVSignature
p3326
g56
sVContactFlag
p3327
I1
sVNickName
p3328
Vteam Miracle
p3329
sVRemarkPYQuanPin
p3330
g56
sVHeadImgUrl
p3331
V/cgi-bin/mmwebwx-bin/webwxgetheadimg?seq=660428943&username=@@4bce7c3d3e38de655ad9c97c6af810899ee608922f1411933ce401804fd37cae&skey=@crypt_870a16cf_207aee7f546ee349effd29338bf7cbd7
p3332
sVUin
p3333
I0
sVStarFriend
p3334
I0
sVStatues
p3335
I0
stp3336
Rp3337
I1
batp3338
Rp3339
I1
bsS'nickName'
p3340
g2865
sS'mpList'
p3341
g34
(g35
g36
(lp3342
g34
(citchat.storage.templates
MassivePlatform
p3343
g39
(dp3344
VUserName
p3345
V@e59cd175432906ba6b6ac38eac57aa5e
p3346
sVCity
p3347
V\u671d\u9633
p3348
sVSnsFlag
p3349
I0
sVDisplayName
p3350
g56
sVUniFriend
p3351
I0
sVMemberCount
p3352
I0
sVOwnerUin
p3353
I0
sVMemberList
p3354
g52
sVAlias
p3355
VChinadaily_Mobile
p3356
sVPYQuanPin
p3357
Vzhongguoribaowangshuangyuxinwen
p3358
sVSignature
p3359
V\u60f3\u5b66\u63a5\u5730\u6c14\u7684\u5b9e\u7528\u82f1\u8bed\u8868\u8fbe\uff1f\u60f3\u770b\u6700\u65b0\u73af\u7403\u70ed\u70b9\u8d44\u8baf\uff1f\u60f3\u4e86\u89e3\u82f1\u7f8e\u56fd\u5bb6\u7684\u6587\u5316\u751f\u6d3b\uff1f\u6765\u627e\u53cc\u8bed\u541b\u5427\uff01\u6bcf\u5468\u4e03\u5929\uff0c\u6211\u4eec\u4e3a\u60a8\u7684\u82f1\u8bed\u4fdd\u9c9c\uff01
p3360
sVRemarkPYInitial
p3361
g56
sVContactFlag
p3362
I3
sVUin
p3363
I0
sVNickName
p3364
V\u4e2d\u56fd\u65e5\u62a5\u7f51\u53cc\u8bed\u65b0\u95fb
p3365
sVAppAccountFlag
p3366
I0
sVVerifyFlag
p3367
I24
sVRemarkPYQuanPin
p3368
g56
sVHeadImgUrl
p3369
V/cgi-bin/mmwebwx-bin/webwxgeticon?seq=636997382&username=@e59cd175432906ba6b6ac38eac57aa5e&skey=@crypt_870a16cf_207aee7f546ee349effd29338bf7cbd7
p3370
sVKeyWord
p3371
Vgh_
p3372
sVProvince
p3373
V\u5317\u4eac
p3374
sVPYInitial
p3375
VZGRBWSYXW
p3376
sVRemarkName
p3377
g56
sVIsOwner
p3378
I0
sVSex
p3379
I0
sVStarFriend
p3380
I0
sVHideInputBarFlag
p3381
I0
sVChatRoomId
p3382
I0
sVEncryChatRoomId
p3383
g56
sVAttrStatus
p3384
I0
sVStatues
p3385
I0
stp3386
Rp3387
I1
bag34
(g3343
g39
(dp3388
VUserName
p3389
V@4ea9857aefe7113e2770d5fa748ce25e9e08f178f9f2b03598baf4d566bc9bfb
p3390
sVCity
p3391
V\u671d\u9633
p3392
sVSnsFlag
p3393
I0
sVDisplayName
p3394
g56
sVUniFriend
p3395
I0
sVMemberCount
p3396
I0
sVOwnerUin
p3397
I0
sVMemberList
p3398
g52
sVAlias
p3399
VGuokr42
p3400
sVPYQuanPin
p3401
Vguokewang
p3402
sVSignature
p3403
V\u679c\u58f3\u7f51\uff08Guokr.com\uff09\u662f\u5f00\u653e\u3001\u591a\u5143\u7684\u6cdb\u79d1\u6280\u5174\u8da3\u793e\u533a\u3002
p3404
sVRemarkPYInitial
p3405
g56
sVContactFlag
p3406
I3
sVUin
p3407
I0
sVNickName
p3408
V\u679c\u58f3\u7f51
p3409
sVAppAccountFlag
p3410
I0
sVVerifyFlag
p3411
I24
sVRemarkPYQuanPin
p3412
g56
sVHeadImgUrl
p3413
V/cgi-bin/mmwebwx-bin/webwxgeticon?seq=620904417&username=@4ea9857aefe7113e2770d5fa748ce25e9e08f178f9f2b03598baf4d566bc9bfb&skey=@crypt_870a16cf_207aee7f546ee349effd29338bf7cbd7
p3414
sVKeyWord
p3415
g56
sVProvince
p3416
V\u5317\u4eac
p3417
sVPYInitial
p3418
VGKW
p3419
sVRemarkName
p3420
g56
sVIsOwner
p3421
I0
sVSex
p3422
I0
sVStarFriend
p3423
I0
sVHideInputBarFlag
p3424
I0
sVChatRoomId
p3425
I0
sVEncryChatRoomId
p3426
g56
sVAttrStatus
p3427
I0
sVStatues
p3428
I0
stp3429
Rp3430
I1
bag34
(g3343
g39
(dp3431
VUserName
p3432
V@02bc48aa7b558f5cc29099a548b10305
p3433
sVCity
p3434
g56
sVSnsFlag
p3435
I0
sVDisplayName
p3436
g56
sVUniFriend
p3437
I0
sVMemberCount
p3438
I0
sVOwnerUin
p3439
I0
sVMemberList
p3440
g52
sVAlias
p3441
Vhowtozheng
p3442
sVPYQuanPin
p3443
Vzazheng
p3444
sVSignature
p3445
V\u8111\u6d1e\u6307\u5357\uff0c\u4eba\u751f\u6307\u5317\u3002
p3446
sVRemarkPYInitial
p3447
g56
sVContactFlag
p3448
I3
sVUin
p3449
I0
sVNickName
p3450
V\u548b\u6574
p3451
sVAppAccountFlag
p3452
I0
sVVerifyFlag
p3453
I24
sVRemarkPYQuanPin
p3454
g56
sVHeadImgUrl
p3455
V/cgi-bin/mmwebwx-bin/webwxgeticon?seq=628401439&username=@02bc48aa7b558f5cc29099a548b10305&skey=@crypt_870a16cf_207aee7f546ee349effd29338bf7cbd7
p3456
sVKeyWord
p3457
Vgh_
p3458
sVProvince
p3459
V\u5317\u4eac
p3460
sVPYInitial
p3461
VZZ
p3462
sVRemarkName
p3463
g56
sVIsOwner
p3464
I0
sVSex
p3465
I0
sVStarFriend
p3466
I0
sVHideInputBarFlag
p3467
I0
sVChatRoomId
p3468
I0
sVEncryChatRoomId
p3469
g56
sVAttrStatus
p3470
I0
sVStatues
p3471
I0
stp3472
Rp3473
I1
bag34
(g3343
g39
(dp3474
VUserName
p3475
V@dd7afaac9d1e36934e9067756463dd4f
p3476
sVCity
p3477
V\u671d\u9633
p3478
sVSnsFlag
p3479
I0
sVDisplayName
p3480
g56
sVUniFriend
p3481
I0
sVMemberCount
p3482
I0
sVOwnerUin
p3483
I0
sVMemberList
p3484
g52
sVAlias
p3485
Vgjrwls
p3486
sVPYQuanPin
p3487
Vguojiarenwenlishi
p3488
sVSignature
p3489
V\u4eba\u6c11\u65e5\u62a5\u793e\u4e3b\u7ba1\u4e3b\u529e\uff0c\u539f\u540d\u300a\u6587\u53f2\u53c2\u8003\u300b\uff0c\u201c\u771f\u76f8\u3001\u8da3\u5473\u3001\u826f\u77e5\u201d\uff0c\u4e3a\u5b66\u672f\u754c\u642d\u5efa\u8bdd\u8bed\u5e73\u53f0\uff0c\u4e3a\u65b0\u9510\u8005\u63d0\u4f9b\u601d\u60f3\u9635\u5730\uff0c\u4e3a\u6587\u53f2\u7231\u597d\u8005\u8425\u9020\u7cbe\u795e\u5bb6\u56ed\u3002
p3490
sVRemarkPYInitial
p3491
g56
sVContactFlag
p3492
I3
sVUin
p3493
I0
sVNickName
p3494
V\u56fd\u5bb6\u4eba\u6587\u5386\u53f2
p3495
sVAppAccountFlag
p3496
I0
sVVerifyFlag
p3497
I24
sVRemarkPYQuanPin
p3498
g56
sVHeadImgUrl
p3499
V/cgi-bin/mmwebwx-bin/webwxgeticon?seq=628401427&username=@dd7afaac9d1e36934e9067756463dd4f&skey=@crypt_870a16cf_207aee7f546ee349effd29338bf7cbd7
p3500
sVKeyWord
p3501
Vgh_
p3502
sVProvince
p3503
V\u5317\u4eac
p3504
sVPYInitial
p3505
VGJRWLS
p3506
sVRemarkName
p3507
g56
sVIsOwner
p3508
I0
sVSex
p3509
I0
sVStarFriend
p3510
I0
sVHideInputBarFlag
p3511
I0
sVChatRoomId
p3512
I0
sVEncryChatRoomId
p3513
g56
sVAttrStatus
p3514
I0
sVStatues
p3515
I0
stp3516
Rp3517
I1
bag34
(g3343
g39
(dp3518
VUserName
p3519
V@a583357246c71952f25df2e2563984b63021fe817bb0dc7b4f1eb984f0e4f23f
p3520
sVCity
p3521
g56
sVSnsFlag
p3522
I0
sVDisplayName
p3523
g56
sVUniFriend
p3524
I0
sVMemberCount
p3525
I0
sVOwnerUin
p3526
I0
sVMemberList
p3527
g52
sVAlias
p3528
Vlengiii
p3529
sVPYQuanPin
p3530
Vlengxiaohuajingshua
p3531
sVSignature
p3532
V\u641e\u7b11\u5927\u5947\u8469\uff0c\u5410\u69fd\u8001\u4e13\u5bb6\uff0c\u8ba4\u771f\u8bb2\u7b11\u8bdd\uff0c\u51b7\u54e5\u5e05\u6389\u6e23\uff01\u5fae\u535a\u4e0a\u7684\u641e\u7b11\u5927\u5496 @\u51b7\u7b11\u8bdd\u7cbe\u9009 \u5c31\u662f\u6211\uff0c\u522b\u65e0\u4e8c\u5bb6\uff01
p3533
sVRemarkPYInitial
p3534
g56
sVContactFlag
p3535
I3
sVUin
p3536
I0
sVNickName
p3537
V\u51b7\u7b11\u8bdd\u7cbe\u9009
p3538
sVAppAccountFlag
p3539
I0
sVVerifyFlag
p3540
I24
sVRemarkPYQuanPin
p3541
g56
sVHeadImgUrl
p3542
V/cgi-bin/mmwebwx-bin/webwxgeticon?seq=930052&username=@a583357246c71952f25df2e2563984b63021fe817bb0dc7b4f1eb984f0e4f23f&skey=@crypt_870a16cf_207aee7f546ee349effd29338bf7cbd7
p3543
sVKeyWord
p3544
g56
sVProvince
p3545
V\u5317\u4eac
p3546
sVPYInitial
p3547
VLXHJS
p3548
sVRemarkName
p3549
g56
sVIsOwner
p3550
I0
sVSex
p3551
I0
sVStarFriend
p3552
I0
sVHideInputBarFlag
p3553
I0
sVChatRoomId
p3554
I0
sVEncryChatRoomId
p3555
g56
sVAttrStatus
p3556
I98307
sVStatues
p3557
I0
stp3558
Rp3559
I1
bag34
(g3343
g39
(dp3560
VUserName
p3561
V@2ab4f9324818e798bb31da00614e6dce
p3562
sVCity
p3563
V\u5e7f\u5dde
p3564
sVSnsFlag
p3565
I0
sVDisplayName
p3566
g56
sVUniFriend
p3567
I0
sVMemberCount
p3568
I0
sVOwnerUin
p3569
I0
sVMemberList
p3570
g52
sVAlias
p3571
Vcityzine
p3572
sVPYQuanPin
p3573
VCITYZINE
p3574
sVSignature
p3575
V\u300a\u57ce\u5e02\u753b\u62a5\u300b\u5b98\u65b9\u8ba2\u9605\u53f7\uff0c\u5176\u4ed6\u90fd\u662f\u5047\u7684\u3002\u6211\u4eec\u628a\u8109\u57ce\u5e02\u9752\u5e74\u7684\u65b0\u9c9c\u5fd7\u8da3\uff0c\u5206\u4eab\u8df3\u8d77\u6765\u5c31\u591f\u5f97\u7740\u7684\u751f\u6d3b\u3002
p3576
sVRemarkPYInitial
p3577
g56
sVContactFlag
p3578
I3
sVUin
p3579
I0
sVNickName
p3580
VCITYZINE
p3581
sVAppAccountFlag
p3582
I0
sVVerifyFlag
p3583
I24
sVRemarkPYQuanPin
p3584
g56
sVHeadImgUrl
p3585
V/cgi-bin/mmwebwx-bin/webwxgeticon?seq=633322332&username=@2ab4f9324818e798bb31da00614e6dce&skey=@crypt_870a16cf_207aee7f546ee349effd29338bf7cbd7
p3586
sVKeyWord
p3587
Vgh_
p3588
sVProvince
p3589
V\u5e7f\u4e1c
p3590
sVPYInitial
p3591
VCITYZINE
p3592
sVRemarkName
p3593
g56
sVIsOwner
p3594
I0
sVSex
p3595
I0
sVStarFriend
p3596
I0
sVHideInputBarFlag
p3597
I0
sVChatRoomId
p3598
I0
sVEncryChatRoomId
p3599
g56
sVAttrStatus
p3600
I0
sVStatues
p3601
I0
stp3602
Rp3603
I1
bag34
(g3343
g39
(dp3604
VUserName
p3605
V@6d9c3c710a9c4868b3b76d1f39e7dd7f
p3606
sVCity
p3607
V\u897f\u57ce
p3608
sVSnsFlag
p3609
I0
sVDisplayName
p3610
g56
sVUniFriend
p3611
I0
sVMemberCount
p3612
I0
sVOwnerUin
p3613
I0
sVMemberList
p3614
g52
sVAlias
p3615
Vckxxwx
p3616
sVPYQuanPin
p3617
Vcankaoxiaoxi
p3618
sVSignature
p3619
V\u7eb5\u89c8\u5916\u56fd\u5a92\u4f53\u6bcf\u65e5\u62a5\u9053\u7cbe\u9009
p3620
sVRemarkPYInitial
p3621
g56
sVContactFlag
p3622
I3
sVUin
p3623
I0
sVNickName
p3624
V\u53c2\u8003\u6d88\u606f
p3625
sVAppAccountFlag
p3626
I0
sVVerifyFlag
p3627
I24
sVRemarkPYQuanPin
p3628
g56
sVHeadImgUrl
p3629
V/cgi-bin/mmwebwx-bin/webwxgeticon?seq=635750147&username=@6d9c3c710a9c4868b3b76d1f39e7dd7f&skey=@crypt_870a16cf_207aee7f546ee349effd29338bf7cbd7
p3630
sVKeyWord
p3631
Vgh_
p3632
sVProvince
p3633
V\u5317\u4eac
p3634
sVPYInitial
p3635
VCKXX
p3636
sVRemarkName
p3637
g56
sVIsOwner
p3638
I0
sVSex
p3639
I0
sVStarFriend
p3640
I0
sVHideInputBarFlag
p3641
I0
sVChatRoomId
p3642
I0
sVEncryChatRoomId
p3643
g56
sVAttrStatus
p3644
I0
sVStatues
p3645
I0
stp3646
Rp3647
I1
bag34
(g3343
g39
(dp3648
VUserName
p3649
V@7e7ec3afdaca3cd728f07e6776921c97
p3650
sVCity
p3651
V\u4e5d\u9f99\u57ce\u533a
p3652
sVSnsFlag
p3653
I0
sVDisplayName
p3654
g56
sVUniFriend
p3655
I0
sVMemberCount
p3656
I0
sVOwnerUin
p3657
I0
sVMemberList
p3658
g52
sVAlias
p3659
Vkanccc
p3660
sVPYQuanPin
p3661
Vjingcaidianying
p3662
sVSignature
p3663
V\u6c47\u96c6\u6700\u65b0\u7535\u5f71\u8d44\u8baf\u3001\u63a8\u8350\u5168\u7403\u597d\u7535\u5f71\u3001\u70ed\u95e8\u77ed\u7247\u3001\u5f71\u89c6\u539f\u58f0\u7b49\u3002\u6bcf\u665a9\u70b9\u523010\u70b9\u5de6\u53f3\u63a8\u9001\u597d\u5185\u5bb9\uff0c\u5f71\u5b50\u548c\u4f60\u4e0d\u89c1\u4e0d\u6563\u3002
p3664
sVRemarkPYInitial
p3665
g56
sVContactFlag
p3666
I3
sVUin
p3667
I0
sVNickName
p3668
V\u7cbe\u5f69\u7535\u5f71
p3669
sVAppAccountFlag
p3670
I0
sVVerifyFlag
p3671
I8
sVRemarkPYQuanPin
p3672
g56
sVHeadImgUrl
p3673
V/cgi-bin/mmwebwx-bin/webwxgeticon?seq=930897&username=@7e7ec3afdaca3cd728f07e6776921c97&skey=@crypt_870a16cf_207aee7f546ee349effd29338bf7cbd7
p3674
sVKeyWord
p3675
Vgh_
p3676
sVProvince
p3677
V\u9999\u6e2f
p3678
sVPYInitial
p3679
VJCDY
p3680
sVRemarkName
p3681
g56
sVIsOwner
p3682
I0
sVSex
p3683
I0
sVStarFriend
p3684
I0
sVHideInputBarFlag
p3685
I0
sVChatRoomId
p3686
I0
sVEncryChatRoomId
p3687
g56
sVAttrStatus
p3688
I0
sVStatues
p3689
I0
stp3690
Rp3691
I1
bag34
(g3343
g39
(dp3692
VUserName
p3693
V@e3228d67aec036855ac9dfb1a9c06ed2
p3694
sVCity
p3695
V\u53f0\u5317\u5e02
p3696
sVSnsFlag
p3697
I0
sVDisplayName
p3698
g56
sVUniFriend
p3699
I0
sVMemberCount
p3700
I0
sVOwnerUin
p3701
I0
sVMemberList
p3702
g52
sVAlias
p3703
Viikanshu
p3704
sVPYQuanPin
p3705
Vkanshuyoudao
p3706
sVSignature
p3707
V\u6bcf\u665a9:30\uff0c\u966a\u4f60\u628a\u751f\u6d3b\u8fc7\u6210\u8bd7\u3002
p3708
sVRemarkPYInitial
p3709
g56
sVContactFlag
p3710
I3
sVUin
p3711
I0
sVNickName
p3712
V\u770b\u4e66\u6709\u9053
p3713
sVAppAccountFlag
p3714
I0
sVVerifyFlag
p3715
I8
sVRemarkPYQuanPin
p3716
g56
sVHeadImgUrl
p3717
V/cgi-bin/mmwebwx-bin/webwxgeticon?seq=620902294&username=@e3228d67aec036855ac9dfb1a9c06ed2&skey=@crypt_870a16cf_207aee7f546ee349effd29338bf7cbd7
p3718
sVKeyWord
p3719
Vgh_
p3720
sVProvince
p3721
V\u53f0\u6e7e
p3722
sVPYInitial
p3723
VKSYD
p3724
sVRemarkName
p3725
g56
sVIsOwner
p3726
I0
sVSex
p3727
I0
sVStarFriend
p3728
I0
sVHideInputBarFlag
p3729
I0
sVChatRoomId
p3730
I0
sVEncryChatRoomId
p3731
g56
sVAttrStatus
p3732
I0
sVStatues
p3733
I0
stp3734
Rp3735
I1
bag34
(g3343
g39
(dp3736
VUserName
p3737
V@b02df889711a625a388f2b29ace9cc6c
p3738
sVCity
p3739
V\u6df1\u5733
p3740
sVSnsFlag
p3741
I0
sVDisplayName
p3742
g56
sVUniFriend
p3743
I0
sVMemberCount
p3744
I0
sVOwnerUin
p3745
I0
sVMemberList
p3746
g52
sVAlias
p3747
Vcft_fahongbao
p3748
sVPYQuanPin
p3749
Vweixinhongbao
p3750
sVSignature
p3751
V\u5fae\u4fe1\u7ea2\u5305\u5b98\u65b9\u5e73\u53f0\uff0c\u4e3a\u4f60\u63d0\u4f9b\u5feb\u6377\u5b89\u5168\u597d\u73a9\u7684\u53d1\u7ea2\u5305\u670d\u52a1
p3752
sVRemarkPYInitial
p3753
g56
sVContactFlag
p3754
I1
sVUin
p3755
I0
sVNickName
p3756
V\u5fae\u4fe1\u7ea2\u5305
p3757
sVAppAccountFlag
p3758
I0
sVVerifyFlag
p3759
I24
sVRemarkPYQuanPin
p3760
g56
sVHeadImgUrl
p3761
V/cgi-bin/mmwebwx-bin/webwxgeticon?seq=621932586&username=@b02df889711a625a388f2b29ace9cc6c&skey=@crypt_870a16cf_207aee7f546ee349effd29338bf7cbd7
p3762
sVKeyWord
p3763
Vgh_
p3764
sVProvince
p3765
V\u5e7f\u4e1c
p3766
sVPYInitial
p3767
VWXHB
p3768
sVRemarkName
p3769
g56
sVIsOwner
p3770
I0
sVSex
p3771
I0
sVStarFriend
p3772
I0
sVHideInputBarFlag
p3773
I0
sVChatRoomId
p3774
I0
sVEncryChatRoomId
p3775
g56
sVAttrStatus
p3776
I0
sVStatues
p3777
I0
stp3778
Rp3779
I1
bag34
(g3343
g39
(dp3780
VUserName
p3781
V@3f163e9b7c31b65906389af5f93b5278
p3782
sVCity
p3783
V\u671d\u9633
p3784
sVSnsFlag
p3785
I0
sVDisplayName
p3786
g56
sVUniFriend
p3787
I0
sVMemberCount
p3788
I0
sVOwnerUin
p3789
I0
sVMemberList
p3790
g52
sVAlias
p3791
Vidxgh2013
p3792
sVPYQuanPin
p3793
Vdaxianggonghui
p3794
sVSignature
p3795
V\u7cbe\u795e\u9e26\u7247\u3002
p3796
sVRemarkPYInitial
p3797
g56
sVContactFlag
p3798
I3
sVUin
p3799
I0
sVNickName
p3800
V\u5927\u8c61\u516c\u4f1a
p3801
sVAppAccountFlag
p3802
I0
sVVerifyFlag
p3803
I8
sVRemarkPYQuanPin
p3804
g56
sVHeadImgUrl
p3805
V/cgi-bin/mmwebwx-bin/webwxgeticon?seq=628400149&username=@3f163e9b7c31b65906389af5f93b5278&skey=@crypt_870a16cf_207aee7f546ee349effd29338bf7cbd7
p3806
sVKeyWord
p3807
Vgh_
p3808
sVProvince
p3809
V\u5317\u4eac
p3810
sVPYInitial
p3811
VDXGH
p3812
sVRemarkName
p3813
g56
sVIsOwner
p3814
I0
sVSex
p3815
I0
sVStarFriend
p3816
I0
sVHideInputBarFlag
p3817
I0
sVChatRoomId
p3818
I0
sVEncryChatRoomId
p3819
g56
sVAttrStatus
p3820
I0
sVStatues
p3821
I0
stp3822
Rp3823
I1
bag34
(g3343
g39
(dp3824
VUserName
p3825
V@78146dd9417c741f1ff63e6ccaa593f5ee5d2a53679856e6971099859142dae0
p3826
sVCity
p3827
V\u671d\u9633
p3828
sVSnsFlag
p3829
I0
sVDisplayName
p3830
g56
sVUniFriend
p3831
I0
sVMemberCount
p3832
I0
sVOwnerUin
p3833
I0
sVMemberList
p3834
g52
sVAlias
p3835
Vyiduiread
p3836
sVPYQuanPin
p3837
Vyidou
p3838
sVSignature
p3839
V\u65e5\u5e38\u751f\u6d3b\u4e2d\u7684\u767e\u79d1\u3001\u6587\u827a\u80cc\u540e\u7684\u5386\u53f2\uff0c\u70ed\u70b9\u6df1\u5904\u7684\u51b7\u77e5\u8bc6\u3002\u7528\u8f7b\u5e7d\u9ed8\u3001\u6709\u60c5\u8da3\u7684\u65b9\u5f0f\u4e00\u8d77\u6da8\u59ff\u52bf\u3001\u6b63\u4e09\u89c2\u3002
p3840
sVRemarkPYInitial
p3841
g56
sVContactFlag
p3842
I3
sVUin
p3843
I0
sVNickName
p3844
V\u58f9\u8bfb
p3845
sVAppAccountFlag
p3846
I0
sVVerifyFlag
p3847
I24
sVRemarkPYQuanPin
p3848
g56
sVHeadImgUrl
p3849
V/cgi-bin/mmwebwx-bin/webwxgeticon?seq=628400152&username=@78146dd9417c741f1ff63e6ccaa593f5ee5d2a53679856e6971099859142dae0&skey=@crypt_870a16cf_207aee7f546ee349effd29338bf7cbd7
p3850
sVKeyWord
p3851
g56
sVProvince
p3852
V\u5317\u4eac
p3853
sVPYInitial
p3854
VYD
p3855
sVRemarkName
p3856
g56
sVIsOwner
p3857
I0
sVSex
p3858
I0
sVStarFriend
p3859
I0
sVHideInputBarFlag
p3860
I0
sVChatRoomId
p3861
I0
sVEncryChatRoomId
p3862
g56
sVAttrStatus
p3863
I0
sVStatues
p3864
I0
stp3865
Rp3866
I1
bag34
(g3343
g39
(dp3867
VUserName
p3868
V@4854316c983749b836bf6b1d303a1cd6
p3869
sVCity
p3870
V\u671d\u9633
p3871
sVSnsFlag
p3872
I0
sVDisplayName
p3873
g56
sVUniFriend
p3874
I0
sVMemberCount
p3875
I0
sVOwnerUin
p3876
I0
sVMemberList
p3877
g52
sVAlias
p3878
Vfilm-douban
p3879
sVPYQuanPin
p3880
Vdoubandianying
p3881
sVSignature
p3882
V\u53d1\u73b0\u597d\u7535\u5f71\uff0c\u5206\u4eab\u770b\u7535\u5f71\u7684\u4e50\u8da3\u3002
p3883
sVRemarkPYInitial
p3884
g56
sVContactFlag
p3885
I3
sVUin
p3886
I0
sVNickName
p3887
V\u8c46\u74e3\u7535\u5f71
p3888
sVAppAccountFlag
p3889
I0
sVVerifyFlag
p3890
I24
sVRemarkPYQuanPin
p3891
g56
sVHeadImgUrl
p3892
V/cgi-bin/mmwebwx-bin/webwxgeticon?seq=628401422&username=@4854316c983749b836bf6b1d303a1cd6&skey=@crypt_870a16cf_207aee7f546ee349effd29338bf7cbd7
p3893
sVKeyWord
p3894
Vgh_
p3895
sVProvince
p3896
V\u5317\u4eac
p3897
sVPYInitial
p3898
VDBDY
p3899
sVRemarkName
p3900
g56
sVIsOwner
p3901
I0
sVSex
p3902
I0
sVStarFriend
p3903
I0
sVHideInputBarFlag
p3904
I0
sVChatRoomId
p3905
I0
sVEncryChatRoomId
p3906
g56
sVAttrStatus
p3907
I0
sVStatues
p3908
I0
stp3909
Rp3910
I1
bag34
(g3343
g39
(dp3911
VUserName
p3912
V@6f710a5eafe13a41d1cba7c0d4842547
p3913
sVCity
p3914
V\u4e1c\u57ce
p3915
sVSnsFlag
p3916
I0
sVDisplayName
p3917
g56
sVUniFriend
p3918
I0
sVMemberCount
p3919
I0
sVOwnerUin
p3920
I0
sVMemberList
p3921
g52
sVAlias
p3922
Vibookreview
p3923
sVPYQuanPin
p3924
Vxinjingbaoshupingzhoukan
p3925
sVSignature
p3926
V\u65b0\u4eac\u62a5\u4e66\u8bc4\u5468\u520a2003\u5e74\u521b\u520a\uff0c\u6bcf\u5468\u516d\u51fa\u7248\u53d1\u884c\uff0c\u53e3\u53f7\u662f\u201c\u9605\u8bfb\u9700\u8981\u4e3b\u5f20\u201d\u3002\u4e66\u8bc4\u5468\u520a\u6c14\u8d28\u662f\u4e25\u8083\u800c\u6709\u8da3\uff0c\u4e3b\u8981\u8bc4\u4ef7\u56fd\u5185\u5916\u51fa\u7248\u7684\u5927\u4f17\u7c7b\u4f18\u79c0\u56fe\u4e66\u3002
p3927
sVRemarkPYInitial
p3928
g56
sVContactFlag
p3929
I3
sVUin
p3930
I0
sVNickName
p3931
V\u65b0\u4eac\u62a5\u4e66\u8bc4\u5468\u520a
p3932
sVAppAccountFlag
p3933
I0
sVVerifyFlag
p3934
I24
sVRemarkPYQuanPin
p3935
g56
sVHeadImgUrl
p3936
V/cgi-bin/mmwebwx-bin/webwxgeticon?seq=632140146&username=@6f710a5eafe13a41d1cba7c0d4842547&skey=@crypt_870a16cf_207aee7f546ee349effd29338bf7cbd7
p3937
sVKeyWord
p3938
Vgh_
p3939
sVProvince
p3940
V\u5317\u4eac
p3941
sVPYInitial
p3942
VXJBSPZK
p3943
sVRemarkName
p3944
g56
sVIsOwner
p3945
I0
sVSex
p3946
I0
sVStarFriend
p3947
I0
sVHideInputBarFlag
p3948
I0
sVChatRoomId
p3949
I0
sVEncryChatRoomId
p3950
g56
sVAttrStatus
p3951
I0
sVStatues
p3952
I0
stp3953
Rp3954
I1
bag34
(g3343
g39
(dp3955
VUserName
p3956
V@bb0263cf31fc0194edd1495019c90b53
p3957
sVCity
p3958
V\u671d\u9633
p3959
sVSnsFlag
p3960
I0
sVDisplayName
p3961
g56
sVUniFriend
p3962
I0
sVMemberCount
p3963
I0
sVOwnerUin
p3964
I0
sVMemberList
p3965
g52
sVAlias
p3966
VGQZHIZU
p3967
sVPYQuanPin
p3968
VGQshiyanshi
p3969
sVSignature
p3970
V\u6709\u578b\u6709\u6b3e\uff0c\u667a\u8da3\u4e0d\u51e1
p3971
sVRemarkPYInitial
p3972
g56
sVContactFlag
p3973
I3
sVUin
p3974
I0
sVNickName
p3975
VGQ\u5b9e\u9a8c\u5ba4
p3976
sVAppAccountFlag
p3977
I0
sVVerifyFlag
p3978
I24
sVRemarkPYQuanPin
p3979
g56
sVHeadImgUrl
p3980
V/cgi-bin/mmwebwx-bin/webwxgeticon?seq=632610432&username=@bb0263cf31fc0194edd1495019c90b53&skey=@crypt_870a16cf_207aee7f546ee349effd29338bf7cbd7
p3981
sVKeyWord
p3982
Vgh_
p3983
sVProvince
p3984
V\u5317\u4eac
p3985
sVPYInitial
p3986
VGQSYS
p3987
sVRemarkName
p3988
g56
sVIsOwner
p3989
I0
sVSex
p3990
I0
sVStarFriend
p3991
I0
sVHideInputBarFlag
p3992
I0
sVChatRoomId
p3993
I0
sVEncryChatRoomId
p3994
g56
sVAttrStatus
p3995
I0
sVStatues
p3996
I0
stp3997
Rp3998
I1
bag34
(g3343
g39
(dp3999
VUserName
p4000
V@f1d7c39441a370dd6540514c86d6ab96
p4001
sVCity
p4002
V\u897f\u57ce
p4003
sVSnsFlag
p4004
I0
sVDisplayName
p4005
g56
sVUniFriend
p4006
I0
sVMemberCount
p4007
I0
sVOwnerUin
p4008
I0
sVMemberList
p4009
g52
sVAlias
p4010
Vunreadsky
p4011
sVPYQuanPin
p4012
Vweidou
p4013
sVSignature
p4014
V\u672a\u8bfb\u4e4b\u4e66\uff0c\u672a\u7ecf\u4e4b\u65c5\u2026\u2026   \u4ece\u672a\u8bfb\uff0c\u5230\u5df2\u8bfb\uff0c\u966a\u4f60\u5ea6\u8fc7\u788e\u7247\u65f6\u5149\u4e2d\u6700\u7f8e\u7684\u4e00\u6bb5\u65c5\u7a0b\u3002
p4015
sVRemarkPYInitial
p4016
g56
sVContactFlag
p4017
I3
sVUin
p4018
I0
sVNickName
p4019
V\u672a\u8bfb
p4020
sVAppAccountFlag
p4021
I0
sVVerifyFlag
p4022
I24
sVRemarkPYQuanPin
p4023
g56
sVHeadImgUrl
p4024
V/cgi-bin/mmwebwx-bin/webwxgeticon?seq=631320946&username=@f1d7c39441a370dd6540514c86d6ab96&skey=@crypt_870a16cf_207aee7f546ee349effd29338bf7cbd7
p4025
sVKeyWord
p4026
Vgh_
p4027
sVProvince
p4028
V\u5317\u4eac
p4029
sVPYInitial
p4030
VWD
p4031
sVRemarkName
p4032
g56
sVIsOwner
p4033
I0
sVSex
p4034
I0
sVStarFriend
p4035
I0
sVHideInputBarFlag
p4036
I0
sVChatRoomId
p4037
I0
sVEncryChatRoomId
p4038
g56
sVAttrStatus
p4039
I0
sVStatues
p4040
I0
stp4041
Rp4042
I1
bag34
(g3343
g39
(dp4043
VUserName
p4044
V@246d13509fafe1561e8806762eafd236
p4045
sVCity
p4046
V\u671d\u9633
p4047
sVSnsFlag
p4048
I0
sVDisplayName
p4049
g56
sVUniFriend
p4050
I0
sVMemberCount
p4051
I0
sVOwnerUin
p4052
I0
sVMemberList
p4053
g52
sVAlias
p4054
Vefa2016
p4055
sVPYQuanPin
p4056
VBadGuy
p4057
sVSignature
p4058
V\u751f\u6d3b\u8981\u6027\u611f\uff0c\u7075\u9b42\u8981\u9a9a\u6c14
p4059
sVRemarkPYInitial
p4060
g56
sVContactFlag
p4061
I3
sVUin
p4062
I0
sVNickName
p4063
VBad Guy
p4064
sVAppAccountFlag
p4065
I0
sVVerifyFlag
p4066
I8
sVRemarkPYQuanPin
p4067
g56
sVHeadImgUrl
p4068
V/cgi-bin/mmwebwx-bin/webwxgeticon?seq=632610730&username=@246d13509fafe1561e8806762eafd236&skey=@crypt_870a16cf_207aee7f546ee349effd29338bf7cbd7
p4069
sVKeyWord
p4070
Vgh_
p4071
sVProvince
p4072
V\u5317\u4eac
p4073
sVPYInitial
p4074
VBADGUY
p4075
sVRemarkName
p4076
g56
sVIsOwner
p4077
I0
sVSex
p4078
I0
sVStarFriend
p4079
I0
sVHideInputBarFlag
p4080
I0
sVChatRoomId
p4081
I0
sVEncryChatRoomId
p4082
g56
sVAttrStatus
p4083
I0
sVStatues
p4084
I0
stp4085
Rp4086
I1
bag34
(g3343
g39
(dp4087
VUserName
p4088
V@655a369b39f4cdcb5fa9b693df713a9b
p4089
sVCity
p4090
V\u4e1c\u57ce
p4091
sVSnsFlag
p4092
I0
sVDisplayName
p4093
g56
sVUniFriend
p4094
I0
sVMemberCount
p4095
I0
sVOwnerUin
p4096
I0
sVMemberList
p4097
g52
sVAlias
p4098
Vzqbcyol
p4099
sVPYQuanPin
p4100
Vzhongguoqingnianbao
p4101
sVSignature
p4102
V\u5386\u53f2\u7684\u4e00\u4efd\u5e95\u7a3f\u3002
p4103
sVRemarkPYInitial
p4104
g56
sVContactFlag
p4105
I3
sVUin
p4106
I0
sVNickName
p4107
V\u4e2d\u56fd\u9752\u5e74\u62a5
p4108
sVAppAccountFlag
p4109
I0
sVVerifyFlag
p4110
I24
sVRemarkPYQuanPin
p4111
g56
sVHeadImgUrl
p4112
V/cgi-bin/mmwebwx-bin/webwxgeticon?seq=632610916&username=@655a369b39f4cdcb5fa9b693df713a9b&skey=@crypt_870a16cf_207aee7f546ee349effd29338bf7cbd7
p4113
sVKeyWord
p4114
Vgh_
p4115
sVProvince
p4116
V\u5317\u4eac
p4117
sVPYInitial
p4118
VZGQNB
p4119
sVRemarkName
p4120
g56
sVIsOwner
p4121
I0
sVSex
p4122
I0
sVStarFriend
p4123
I0
sVHideInputBarFlag
p4124
I0
sVChatRoomId
p4125
I0
sVEncryChatRoomId
p4126
g56
sVAttrStatus
p4127
I0
sVStatues
p4128
I0
stp4129
Rp4130
I1
bag34
(g3343
g39
(dp4131
VUserName
p4132
V@5d264976a3612f3f0f73eee41e97f940
p4133
sVCity
p4134
V\u671d\u9633
p4135
sVSnsFlag
p4136
I0
sVDisplayName
p4137
g56
sVUniFriend
p4138
I0
sVMemberCount
p4139
I0
sVOwnerUin
p4140
I0
sVMemberList
p4141
g52
sVAlias
p4142
VyuemaF
p4143
sVPYQuanPin
p4144
Vwanfa
p4145
sVSignature
p4146
V\u4e1c\u5347\u7684\u65ed\u65e5\u8f7b\u62c2\u5c4b\u9876\uff0c\u900d\u9065\u81ea\u5728\u7684\u585e\u7eb3\u6cb3\u6307\u70b9\u7740\u65b9\u5411\uff0c\u8fd9\u91cc\u662f\u6cd5\u5170\u897f\u3002\u5df4\u9ece\u7684\u5fe7\u90c1\uff0c\u91cc\u6602\u7684\u53e4\u6734\uff0c\u9a6c\u8d5b\u7684\u60b8\u52a8\u2026\u2026\u201c\u73a9\u6cd5\u201d\u4e0e\u4f60\u5171\u4eab\u8fd9\u573a\u6d41\u52a8\u7684\u76db\u5bb4\u3002
p4147
sVRemarkPYInitial
p4148
g56
sVContactFlag
p4149
I3
sVUin
p4150
I0
sVNickName
p4151
V\u73a9\u6cd5
p4152
sVAppAccountFlag
p4153
I0
sVVerifyFlag
p4154
I8
sVRemarkPYQuanPin
p4155
g56
sVHeadImgUrl
p4156
V/cgi-bin/mmwebwx-bin/webwxgeticon?seq=632610739&username=@5d264976a3612f3f0f73eee41e97f940&skey=@crypt_870a16cf_207aee7f546ee349effd29338bf7cbd7
p4157
sVKeyWord
p4158
Vgh_
p4159
sVProvince
p4160
V\u5317\u4eac
p4161
sVPYInitial
p4162
VWF
p4163
sVRemarkName
p4164
g56
sVIsOwner
p4165
I0
sVSex
p4166
I0
sVStarFriend
p4167
I0
sVHideInputBarFlag
p4168
I0
sVChatRoomId
p4169
I0
sVEncryChatRoomId
p4170
g56
sVAttrStatus
p4171
I0
sVStatues
p4172
I0
stp4173
Rp4174
I1
bag34
(g3343
g39
(dp4175
VUserName
p4176
V@3ebb07336724670341aae1cc63e5be8c
p4177
sVCity
p4178
V\u6df1\u5733
p4179
sVSnsFlag
p4180
I0
sVDisplayName
p4181
g56
sVUniFriend
p4182
I0
sVMemberCount
p4183
I0
sVOwnerUin
p4184
I0
sVMemberList
p4185
g52
sVAlias
p4186
Vbuzhidushu
p4187
sVPYQuanPin
p4188
Vbuzhidoushu
p4189
sVSignature
p4190
V\u4e0d\u6b62\u8bfb\u4e66\uff0c\u8bfb\u4e66\u4e0d\u6b62\u3002\u55ef\u54fc\u3002
p4191
sVRemarkPYInitial
p4192
g56
sVContactFlag
p4193
I3
sVUin
p4194
I0
sVNickName
p4195
V\u4e0d\u6b62\u8bfb\u4e66
p4196
sVAppAccountFlag
p4197
I0
sVVerifyFlag
p4198
I8
sVRemarkPYQuanPin
p4199
g56
sVHeadImgUrl
p4200
V/cgi-bin/mmwebwx-bin/webwxgeticon?seq=629041612&username=@3ebb07336724670341aae1cc63e5be8c&skey=@crypt_870a16cf_207aee7f546ee349effd29338bf7cbd7
p4201
sVKeyWord
p4202
Vgh_
p4203
sVProvince
p4204
V\u5e7f\u4e1c
p4205
sVPYInitial
p4206
VBZDS
p4207
sVRemarkName
p4208
g56
sVIsOwner
p4209
I0
sVSex
p4210
I0
sVStarFriend
p4211
I0
sVHideInputBarFlag
p4212
I0
sVChatRoomId
p4213
I0
sVEncryChatRoomId
p4214
g56
sVAttrStatus
p4215
I0
sVStatues
p4216
I0
stp4217
Rp4218
I1
bag34
(g3343
g39
(dp4219
VUserName
p4220
V@8bb4447ed684d5267b76242cf341136f
p4221
sVCity
p4222
V\u957f\u5b81
p4223
sVSnsFlag
p4224
I0
sVDisplayName
p4225
g56
sVUniFriend
p4226
I0
sVMemberCount
p4227
I0
sVOwnerUin
p4228
I0
sVMemberList
p4229
g52
sVAlias
p4230
Vshortcool
p4231
sVPYQuanPin
p4232
Vduankushipin
p4233
sVSignature
p4234
V\u53d1\u73b0\u3001\u5206\u4eab\u3001\u751f\u4ea7\u53c8\u77ed\u53c8\u9177\u7684\u89c6\u9891
p4235
sVRemarkPYInitial
p4236
g56
sVContactFlag
p4237
I3
sVUin
p4238
I0
sVNickName
p4239
V\u77ed\u88e4\u89c6\u9891
p4240
sVAppAccountFlag
p4241
I0
sVVerifyFlag
p4242
I24
sVRemarkPYQuanPin
p4243
g56
sVHeadImgUrl
p4244
V/cgi-bin/mmwebwx-bin/webwxgeticon?seq=628400155&username=@8bb4447ed684d5267b76242cf341136f&skey=@crypt_870a16cf_207aee7f546ee349effd29338bf7cbd7
p4245
sVKeyWord
p4246
Vgh_
p4247
sVProvince
p4248
V\u4e0a\u6d77
p4249
sVPYInitial
p4250
VDKSP
p4251
sVRemarkName
p4252
g56
sVIsOwner
p4253
I0
sVSex
p4254
I0
sVStarFriend
p4255
I0
sVHideInputBarFlag
p4256
I0
sVChatRoomId
p4257
I0
sVEncryChatRoomId
p4258
g56
sVAttrStatus
p4259
I0
sVStatues
p4260
I0
stp4261
Rp4262
I1
bag34
(g3343
g39
(dp4263
VUserName
p4264
V@c42c81efe7a5fb416393f145d087c3c5
p4265
sVCity
p4266
V\u4e1c\u57ce
p4267
sVSnsFlag
p4268
I0
sVDisplayName
p4269
g56
sVUniFriend
p4270
I0
sVMemberCount
p4271
I0
sVOwnerUin
p4272
I0
sVMemberList
p4273
g52
sVAlias
p4274
Vcaihuochefff
p4275
sVPYQuanPin
p4276
Vcaihuoche
p4277
sVSignature
p4278
Vlooking ahead to the day you die .
p4279
sVRemarkPYInitial
p4280
g56
sVContactFlag
p4281
I3
sVUin
p4282
I0
sVNickName
p4283
V\u731c\u706b\u8f66
p4284
sVAppAccountFlag
p4285
I0
sVVerifyFlag
p4286
I8
sVRemarkPYQuanPin
p4287
g56
sVHeadImgUrl
p4288
V/cgi-bin/mmwebwx-bin/webwxgeticon?seq=633322225&username=@c42c81efe7a5fb416393f145d087c3c5&skey=@crypt_870a16cf_207aee7f546ee349effd29338bf7cbd7
p4289
sVKeyWord
p4290
Vgh_
p4291
sVProvince
p4292
V\u5317\u4eac
p4293
sVPYInitial
p4294
VCHC
p4295
sVRemarkName
p4296
g56
sVIsOwner
p4297
I0
sVSex
p4298
I0
sVStarFriend
p4299
I0
sVHideInputBarFlag
p4300
I0
sVChatRoomId
p4301
I0
sVEncryChatRoomId
p4302
g56
sVAttrStatus
p4303
I0
sVStatues
p4304
I0
stp4305
Rp4306
I1
bag34
(g3343
g39
(dp4307
VUserName
p4308
V@5b51d9f5a44368370a58d62f6196bb7ffbc25eebf91966944b660c67b0022f81
p4309
sVCity
p4310
V\u671d\u9633
p4311
sVSnsFlag
p4312
I0
sVDisplayName
p4313
g56
sVUniFriend
p4314
I0
sVMemberCount
p4315
I0
sVOwnerUin
p4316
I0
sVMemberList
p4317
g52
sVAlias
p4318
VNationalGeographicCN
p4319
sVPYQuanPin
p4320
Vguojiadelizhongwenwang
p4321
sVSignature
p4322
V\u7cbe\u7f8e\u624b\u673a\u58c1\u7eb8\u4e0b\u8f7d\uff0c\u8bf7\u76f4\u63a5\u56de\u590d\u201c\u5899\u7eb8\u201d\uff1b\u7f8e\u56fe\u6b23\u8d4f\uff0c\u8bf7\u76f4\u63a5\u56de\u590d\u201c\u7f8e\u56fe\u6b23\u8d4f\u201d\uff1b\u6742\u5fd7\u8ba2\u9605\uff0c\u8bf7\u76f4\u63a5\u56de\u590d\u201c\u8ba2\u9605\u201d;iPhone\u7248\u4e0b\u8f7d\uff0c\u8bf7\u56de\u590d\u201ciPhone"
p4323
sVRemarkPYInitial
p4324
g56
sVContactFlag
p4325
I3
sVUin
p4326
I0
sVNickName
p4327
V\u56fd\u5bb6\u5730\u7406\u4e2d\u6587\u7f51
p4328
sVAppAccountFlag
p4329
I0
sVVerifyFlag
p4330
I24
sVRemarkPYQuanPin
p4331
g56
sVHeadImgUrl
p4332
V/cgi-bin/mmwebwx-bin/webwxgeticon?seq=633320365&username=@5b51d9f5a44368370a58d62f6196bb7ffbc25eebf91966944b660c67b0022f81&skey=@crypt_870a16cf_207aee7f546ee349effd29338bf7cbd7
p4333
sVKeyWord
p4334
g56
sVProvince
p4335
V\u5317\u4eac
p4336
sVPYInitial
p4337
VGJDLZWW
p4338
sVRemarkName
p4339
g56
sVIsOwner
p4340
I0
sVSex
p4341
I0
sVStarFriend
p4342
I0
sVHideInputBarFlag
p4343
I0
sVChatRoomId
p4344
I0
sVEncryChatRoomId
p4345
g56
sVAttrStatus
p4346
I98459
sVStatues
p4347
I0
stp4348
Rp4349
I1
bag34
(g3343
g39
(dp4350
VUserName
p4351
V@1d748774fb6d9e5d8df074db5ceb059e
p4352
sVCity
p4353
V\u671d\u9633
p4354
sVSnsFlag
p4355
I0
sVDisplayName
p4356
g56
sVUniFriend
p4357
I0
sVMemberCount
p4358
I0
sVOwnerUin
p4359
I0
sVMemberList
p4360
g52
sVAlias
p4361
VCrusherTV
p4362
sVPYQuanPin
p4363
VWhat
p4364
sVSignature
p4365
V\u4e00\u672c\u4e0d\u6b63\u7ecf\u7684\u5468\u66f4\u539f\u521b\u7f8e\u5267\u6742\u5fd7
p4366
sVRemarkPYInitial
p4367
g56
sVContactFlag
p4368
I3
sVUin
p4369
I0
sVNickName
p4370
VWhat
p4371
sVAppAccountFlag
p4372
I0
sVVerifyFlag
p4373
I8
sVRemarkPYQuanPin
p4374
g56
sVHeadImgUrl
p4375
V/cgi-bin/mmwebwx-bin/webwxgeticon?seq=633325369&username=@1d748774fb6d9e5d8df074db5ceb059e&skey=@crypt_870a16cf_207aee7f546ee349effd29338bf7cbd7
p4376
sVKeyWord
p4377
Vgh_
p4378
sVProvince
p4379
V\u5317\u4eac
p4380
sVPYInitial
p4381
VWHAT
p4382
sVRemarkName
p4383
g56
sVIsOwner
p4384
I0
sVSex
p4385
I0
sVStarFriend
p4386
I0
sVHideInputBarFlag
p4387
I0
sVChatRoomId
p4388
I0
sVEncryChatRoomId
p4389
g56
sVAttrStatus
p4390
I0
sVStatues
p4391
I0
stp4392
Rp4393
I1
bag34
(g3343
g39
(dp4394
VUserName
p4395
V@9f88416b2d4909f616cf714a0d86ea7b
p4396
sVCity
p4397
V\u83cf\u6cfd
p4398
sVSnsFlag
p4399
I0
sVDisplayName
p4400
g56
sVUniFriend
p4401
I0
sVMemberCount
p4402
I0
sVOwnerUin
p4403
I0
sVMemberList
p4404
g52
sVAlias
p4405
Vtegao54
p4406
sVPYQuanPin
p4407
Vqingniantegao
p4408
sVSignature
p4409
V\u641e\u7537\u641e\u5973\uff0c\u4e0d\u5982\u641e\u4e2a\u6545\u4e8b\u3002
p4410
sVRemarkPYInitial
p4411
g56
sVContactFlag
p4412
I3
sVUin
p4413
I0
sVNickName
p4414
V\u9752\u5e74\u7279\u7a3f
p4415
sVAppAccountFlag
p4416
I0
sVVerifyFlag
p4417
I8
sVRemarkPYQuanPin
p4418
g56
sVHeadImgUrl
p4419
V/cgi-bin/mmwebwx-bin/webwxgeticon?seq=635751325&username=@9f88416b2d4909f616cf714a0d86ea7b&skey=@crypt_870a16cf_207aee7f546ee349effd29338bf7cbd7
p4420
sVKeyWord
p4421
Vgh_
p4422
sVProvince
p4423
V\u5c71\u4e1c
p4424
sVPYInitial
p4425
VQNTG
p4426
sVRemarkName
p4427
g56
sVIsOwner
p4428
I0
sVSex
p4429
I0
sVStarFriend
p4430
I0
sVHideInputBarFlag
p4431
I0
sVChatRoomId
p4432
I0
sVEncryChatRoomId
p4433
g56
sVAttrStatus
p4434
I0
sVStatues
p4435
I0
stp4436
Rp4437
I1
bag34
(g3343
g39
(dp4438
VUserName
p4439
V@342ecb34fff02cf924ffe20c14b0c044
p4440
sVCity
p4441
V\u671d\u9633
p4442
sVSnsFlag
p4443
I0
sVDisplayName
p4444
g56
sVUniFriend
p4445
I0
sVMemberCount
p4446
I0
sVOwnerUin
p4447
I0
sVMemberList
p4448
g52
sVAlias
p4449
VFood_Lab
p4450
sVPYQuanPin
p4451
Vchihuoyanjiusuo
p4452
sVSignature
p4453
V\u5403\u8d27\u7814\u7a76\u6240\uff0c\u679c\u58f3\u7f51\u521b\u529e\u7684\u7f8e\u98df\u5e10\u53f7\uff0c\u7528\u79d1\u5b66\u89e3\u7b54\u4e00\u5207\u5173\u4e8e\u5403\u7684\u7591\u95ee\u3002\u80fd\u5403\u5417\uff1f\u597d\u5403\u5417\uff1f\u600e\u4e48\u5403\uff1f\u65d7\u4e0b\u865a\u5ea6\u4e16\u754c\u5b9e\u9a8c\u5ba4\uff0c\u6bcf\u5929\u7531\u4e00\u5927\u6ce2\u751f\u7269\u5b66\u5bb6\u3001\u98df\u54c1\u79d1\u5b66\u4e0e\u5de5\u7a0b\u4e13\u5bb6\u4e3a\u6700\u6311\u5254\u7684\u5403\u8d27\u7814\u53d1\u53ca\u63d0\u4f9b\u7701\u5fc3\u597d\u8d27\u3002
p4454
sVRemarkPYInitial
p4455
g56
sVContactFlag
p4456
I3
sVUin
p4457
I0
sVNickName
p4458
V\u5403\u8d27\u7814\u7a76\u6240
p4459
sVAppAccountFlag
p4460
I0
sVVerifyFlag
p4461
I24
sVRemarkPYQuanPin
p4462
g56
sVHeadImgUrl
p4463
V/cgi-bin/mmwebwx-bin/webwxgeticon?seq=635752065&username=@342ecb34fff02cf924ffe20c14b0c044&skey=@crypt_870a16cf_207aee7f546ee349effd29338bf7cbd7
p4464
sVKeyWord
p4465
Vgh_
p4466
sVProvince
p4467
V\u5317\u4eac
p4468
sVPYInitial
p4469
VCHYJS
p4470
sVRemarkName
p4471
g56
sVIsOwner
p4472
I0
sVSex
p4473
I0
sVStarFriend
p4474
I0
sVHideInputBarFlag
p4475
I0
sVChatRoomId
p4476
I0
sVEncryChatRoomId
p4477
g56
sVAttrStatus
p4478
I0
sVStatues
p4479
I0
stp4480
Rp4481
I1
bag34
(g3343
g39
(dp4482
VUserName
p4483
V@49bf67595d5bdd3fab734241be3bd154d9d17be7d72df1f093949428302b2664
p4484
sVCity
p4485
V\u671d\u9633
p4486
sVSnsFlag
p4487
I0
sVDisplayName
p4488
g56
sVUniFriend
p4489
I0
sVMemberCount
p4490
I0
sVOwnerUin
p4491
I0
sVMemberList
p4492
g52
sVAlias
p4493
Vrenwumag1980
p4494
sVPYQuanPin
p4495
Vrenwu
p4496
sVSignature
p4497
V\u6700\u597d\u7684\u4e2d\u6587\u4eba\u7269\u62a5\u9053
p4498
sVRemarkPYInitial
p4499
g56
sVContactFlag
p4500
I3
sVUin
p4501
I0
sVNickName
p4502
V\u4eba\u7269
p4503
sVAppAccountFlag
p4504
I0
sVVerifyFlag
p4505
I8
sVRemarkPYQuanPin
p4506
g56
sVHeadImgUrl
p4507
V/cgi-bin/mmwebwx-bin/webwxgeticon?seq=633320041&username=@49bf67595d5bdd3fab734241be3bd154d9d17be7d72df1f093949428302b2664&skey=@crypt_870a16cf_207aee7f546ee349effd29338bf7cbd7
p4508
sVKeyWord
p4509
g56
sVProvince
p4510
V\u5317\u4eac
p4511
sVPYInitial
p4512
VRW
p4513
sVRemarkName
p4514
g56
sVIsOwner
p4515
I0
sVSex
p4516
I0
sVStarFriend
p4517
I0
sVHideInputBarFlag
p4518
I0
sVChatRoomId
p4519
I0
sVEncryChatRoomId
p4520
g56
sVAttrStatus
p4521
I7
sVStatues
p4522
I0
stp4523
Rp4524
I1
bag34
(g3343
g39
(dp4525
VUserName
p4526
V@6922836d00ee844bce75f30ff3203bc8
p4527
sVCity
p4528
V\u671d\u9633
p4529
sVSnsFlag
p4530
I0
sVDisplayName
p4531
g56
sVUniFriend
p4532
I0
sVMemberCount
p4533
I0
sVOwnerUin
p4534
I0
sVMemberList
p4535
g52
sVAlias
p4536
Vshaofeidu
p4537
sVPYQuanPin
p4538
Vdushaofei
p4539
sVSignature
p4540
V\u4e00\u952e\u5173\u6ce8\u8001\u4e2d\u533b\uff0c\u4e00\u9488\u6839\u6cbb\u76f4\u7537\u764c\u3002
p4541
sVRemarkPYInitial
p4542
g56
sVContactFlag
p4543
I3
sVUin
p4544
I0
sVNickName
p4545
V\u675c\u7ecd\u6590
p4546
sVAppAccountFlag
p4547
I0
sVVerifyFlag
p4548
I8
sVRemarkPYQuanPin
p4549
g56
sVHeadImgUrl
p4550
V/cgi-bin/mmwebwx-bin/webwxgeticon?seq=635751124&username=@6922836d00ee844bce75f30ff3203bc8&skey=@crypt_870a16cf_207aee7f546ee349effd29338bf7cbd7
p4551
sVKeyWord
p4552
Vgh_
p4553
sVProvince
p4554
V\u5317\u4eac
p4555
sVPYInitial
p4556
VDSF
p4557
sVRemarkName
p4558
g56
sVIsOwner
p4559
I0
sVSex
p4560
I0
sVStarFriend
p4561
I0
sVHideInputBarFlag
p4562
I0
sVChatRoomId
p4563
I0
sVEncryChatRoomId
p4564
g56
sVAttrStatus
p4565
I0
sVStatues
p4566
I0
stp4567
Rp4568
I1
bag34
(g3343
g39
(dp4569
VUserName
p4570
V@3e4c918f622eb3fe06f1486af6f94eab
p4571
sVCity
p4572
V\u671d\u9633
p4573
sVSnsFlag
p4574
I0
sVDisplayName
p4575
g56
sVUniFriend
p4576
I0
sVMemberCount
p4577
I0
sVOwnerUin
p4578
I0
sVMemberList
p4579
g52
sVAlias
p4580
Vguokrpac
p4581
sVPYQuanPin
p4582
Vwuchongrili
p4583
sVSignature
p4584
V\u5154\u72f2\u3001\u9f99\u732b\u3001\u51e0\u7ef4\u9e1f\uff0c\u603b\u6709\u4e00\u6b3e\u6bdb\u7403\u6253\u52a8\u4f60\uff1b\u94c3\u5170\u3001\u6854\u6897\u3001\u56db\u7167\u82b1\uff0c\u690d\u7269\u4eec\u4e5f\u53ef\u4ee5\u840c\u840c\u54d2\uff5e \u8ddf\u7740\u65e5\u5386\u5a18\uff0c\u6bcf\u5929\u8ba4\u8bc6\u4e00\u4e2a\u7269\u79cd\uff0c\u8ba9\u4f60\u7684\u4e16\u754c\uff0c\u6bcf\u5929\u53d8\u5f97\u66f4\u840c\u4e00\u4e9b\uff01
p4585
sVRemarkPYInitial
p4586
g56
sVContactFlag
p4587
I3
sVUin
p4588
I0
sVNickName
p4589
V\u7269\u79cd\u65e5\u5386
p4590
sVAppAccountFlag
p4591
I0
sVVerifyFlag
p4592
I24
sVRemarkPYQuanPin
p4593
g56
sVHeadImgUrl
p4594
V/cgi-bin/mmwebwx-bin/webwxgeticon?seq=636998299&username=@3e4c918f622eb3fe06f1486af6f94eab&skey=@crypt_870a16cf_207aee7f546ee349effd29338bf7cbd7
p4595
sVKeyWord
p4596
Vgh_
p4597
sVProvince
p4598
V\u5317\u4eac
p4599
sVPYInitial
p4600
VWCRL
p4601
sVRemarkName
p4602
g56
sVIsOwner
p4603
I0
sVSex
p4604
I0
sVStarFriend
p4605
I0
sVHideInputBarFlag
p4606
I0
sVChatRoomId
p4607
I0
sVEncryChatRoomId
p4608
g56
sVAttrStatus
p4609
I0
sVStatues
p4610
I0
stp4611
Rp4612
I1
bag34
(g3343
g39
(dp4613
VUserName
p4614
V@ef1ae2e9804af67ca5cb37bb9feaf5da
p4615
sVCity
p4616
V\u5e7f\u5dde
p4617
sVSnsFlag
p4618
I0
sVDisplayName
p4619
g56
sVUniFriend
p4620
I0
sVMemberCount
p4621
I0
sVOwnerUin
p4622
I0
sVMemberList
p4623
g52
sVAlias
p4624
VnewWhatYouNeed
p4625
sVPYQuanPin
p4626
VwoyaoWhatYouNeed
p4627
sVSignature
p4628
V\u4e00\u4e2a\u5e74\u8f7b\u4eba\u7684\u805a\u96c6\u5730\u3002
p4629
sVRemarkPYInitial
p4630
g56
sVContactFlag
p4631
I3
sVUin
p4632
I0
sVNickName
p4633
V\u6211\u8981WhatYouNeed
p4634
sVAppAccountFlag
p4635
I0
sVVerifyFlag
p4636
I24
sVRemarkPYQuanPin
p4637
g56
sVHeadImgUrl
p4638
V/cgi-bin/mmwebwx-bin/webwxgeticon?seq=643040159&username=@ef1ae2e9804af67ca5cb37bb9feaf5da&skey=@crypt_870a16cf_207aee7f546ee349effd29338bf7cbd7
p4639
sVKeyWord
p4640
Vgh_
p4641
sVProvince
p4642
V\u5e7f\u4e1c
p4643
sVPYInitial
p4644
VWYWHATYOUNEED
p4645
sVRemarkName
p4646
g56
sVIsOwner
p4647
I0
sVSex
p4648
I0
sVStarFriend
p4649
I0
sVHideInputBarFlag
p4650
I0
sVChatRoomId
p4651
I0
sVEncryChatRoomId
p4652
g56
sVAttrStatus
p4653
I0
sVStatues
p4654
I0
stp4655
Rp4656
I1
bag34
(g3343
g39
(dp4657
VUserName
p4658
V@32ad49f0f9fe4e394985ed8a8bc81943
p4659
sVCity
p4660
V\u671d\u9633
p4661
sVSnsFlag
p4662
I0
sVDisplayName
p4663
g56
sVUniFriend
p4664
I0
sVMemberCount
p4665
I0
sVOwnerUin
p4666
I0
sVMemberList
p4667
g52
sVAlias
p4668
VAskGuokr
p4669
sVPYQuanPin
p4670
Vguokewenda
p4671
sVSignature
p4672
V\u679c\u58f3\u95ee\u7b54\u662f\u679c\u58f3\u7f51\u65d7\u4e0b\u95ee\u7b54\u793e\u533a\uff0c\u5728\u8fd9\u91cc\u4f60\u53ef\u4ee5\u5728\u8fd9\u91cc\u5411\u5404\u9886\u57df\u8fbe\u4eba\u63d0\u95ee\uff0c\u5206\u4eab\u77e5\u8bc6\uff0c\u7528\u79d1\u6280\u89c6\u89d2\u8bfb\u61c2\u751f\u6d3b\u7684\u6bcf\u4e2a\u7ec6\u8282\u3002
p4673
sVRemarkPYInitial
p4674
g56
sVContactFlag
p4675
I3
sVUin
p4676
I0
sVNickName
p4677
V\u679c\u58f3\u95ee\u7b54
p4678
sVAppAccountFlag
p4679
I0
sVVerifyFlag
p4680
I24
sVRemarkPYQuanPin
p4681
g56
sVHeadImgUrl
p4682
V/cgi-bin/mmwebwx-bin/webwxgeticon?seq=620904420&username=@32ad49f0f9fe4e394985ed8a8bc81943&skey=@crypt_870a16cf_207aee7f546ee349effd29338bf7cbd7
p4683
sVKeyWord
p4684
Vgh_
p4685
sVProvince
p4686
V\u5317\u4eac
p4687
sVPYInitial
p4688
VGKWD
p4689
sVRemarkName
p4690
g56
sVIsOwner
p4691
I0
sVSex
p4692
I0
sVStarFriend
p4693
I0
sVHideInputBarFlag
p4694
I0
sVChatRoomId
p4695
I0
sVEncryChatRoomId
p4696
g56
sVAttrStatus
p4697
I0
sVStatues
p4698
I0
stp4699
Rp4700
I1
bag34
(g3343
g39
(dp4701
VUserName
p4702
V@5db10d6e9f01a8e741c355b9c89e4c86
p4703
sVCity
p4704
V\u666e\u9640
p4705
sVSnsFlag
p4706
I0
sVDisplayName
p4707
g56
sVUniFriend
p4708
I0
sVMemberCount
p4709
I0
sVOwnerUin
p4710
I0
sVMemberList
p4711
g52
sVAlias
p4712
Vshudanlaile
p4713
sVPYQuanPin
p4714
Vshushanlaile
p4715
sVSignature
p4716
V\u5982\u679c\u4f60\u4e0d\u77e5\u9053\u8bfb\u4ec0\u4e48\u4e66\uff0c\u5173\u6ce8\u4e66\u5355\u72d7\u5c31\u5bf9\u4e86\u3002\u4e66\u5355\u72d7\u5c06\u63a5\u7ba1\u4f60\u4e0b\u534a\u751f\u7684\u5168\u90e8\u9605\u8bfb\u8ba1\u5212\u3002\u4e66\u5355\u72d7\u6bcf\u5929\u4e3a400\u4e07\u7c89\u4e1d\u63a8\u8350\u4e66\u5355\u72d7\u724c\u4e66\u5355\uff0c\u770b\u8fc7\u4f60\u5c31\u4f1a\u7231\u4e0a\u6211\u3002
p4717
sVRemarkPYInitial
p4718
g56
sVContactFlag
p4719
I3
sVUin
p4720
I0
sVNickName
p4721
V\u4e66\u5355\u6765\u4e86
p4722
sVAppAccountFlag
p4723
I0
sVVerifyFlag
p4724
I24
sVRemarkPYQuanPin
p4725
g56
sVHeadImgUrl
p4726
V/cgi-bin/mmwebwx-bin/webwxgeticon?seq=645190089&username=@5db10d6e9f01a8e741c355b9c89e4c86&skey=@crypt_870a16cf_207aee7f546ee349effd29338bf7cbd7
p4727
sVKeyWord
p4728
Vgh_
p4729
sVProvince
p4730
V\u4e0a\u6d77
p4731
sVPYInitial
p4732
VSSLL
p4733
sVRemarkName
p4734
g56
sVIsOwner
p4735
I0
sVSex
p4736
I0
sVStarFriend
p4737
I0
sVHideInputBarFlag
p4738
I0
sVChatRoomId
p4739
I0
sVEncryChatRoomId
p4740
g56
sVAttrStatus
p4741
I0
sVStatues
p4742
I0
stp4743
Rp4744
I1
bag34
(g3343
g39
(dp4745
VUserName
p4746
V@76df9a2c9593589f774b6676825b510b
p4747
sVCity
p4748
V\u5170\u5dde\u5e02
p4749
sVSnsFlag
p4750
I0
sVDisplayName
p4751
g56
sVUniFriend
p4752
I0
sVMemberCount
p4753
I0
sVOwnerUin
p4754
I0
sVMemberList
p4755
g52
sVAlias
p4756
Vduzheweixin
p4757
sVPYQuanPin
p4758
Vdouzhe
p4759
sVSignature
p4760
V\u300a\u8bfb\u8005\u300b\u6742\u5fd7\u5b98\u65b9\u8ba2\u9605\u53f7\u3002 \u4e2d\u56fd\u4eba\u7684\u5fc3\u7075\u8bfb\u672c\uff0c\u5168\u5bb6\u4eba\u7684\u7cbe\u795e\u7ebd\u5e26\u3002
p4761
sVRemarkPYInitial
p4762
g56
sVContactFlag
p4763
I3
sVUin
p4764
I0
sVNickName
p4765
V\u8bfb\u8005
p4766
sVAppAccountFlag
p4767
I0
sVVerifyFlag
p4768
I24
sVRemarkPYQuanPin
p4769
g56
sVHeadImgUrl
p4770
V/cgi-bin/mmwebwx-bin/webwxgeticon?seq=647454135&username=@76df9a2c9593589f774b6676825b510b&skey=@crypt_870a16cf_207aee7f546ee349effd29338bf7cbd7
p4771
sVKeyWord
p4772
Vgh_
p4773
sVProvince
p4774
V\u7518\u8083
p4775
sVPYInitial
p4776
VDZ
p4777
sVRemarkName
p4778
g56
sVIsOwner
p4779
I0
sVSex
p4780
I0
sVStarFriend
p4781
I0
sVHideInputBarFlag
p4782
I0
sVChatRoomId
p4783
I0
sVEncryChatRoomId
p4784
g56
sVAttrStatus
p4785
I0
sVStatues
p4786
I0
stp4787
Rp4788
I1
bag34
(g3343
g39
(dp4789
VUserName
p4790
V@2c8ddb5fb0486c61fbfcf5948cb1c148
p4791
sVCity
p4792
VSan Francisco
p4793
sVSnsFlag
p4794
I0
sVDisplayName
p4795
g56
sVUniFriend
p4796
I0
sVMemberCount
p4797
I0
sVOwnerUin
p4798
I0
sVMemberList
p4799
g52
sVAlias
p4800
VYouTubeSP
p4801
sVPYQuanPin
p4802
VYTBjingcaishipin
p4803
sVSignature
p4804
V\u5fae\u535a@YouTube\u7cbe\u5f69\u89c6\u9891<span class="emoji emoji1f4fa"></span>\u6bcf\u65e5\u7ffb\u8bd1\u3001\u5206\u4eab\u56fd\u5916\u5404\u79cd\u65b0\u9c9c\u597d\u73a9\u7684\u89c6\u9891
p4805
sVRemarkPYInitial
p4806
g56
sVContactFlag
p4807
I3
sVUin
p4808
I0
sVNickName
p4809
VYTB\u7cbe\u5f69\u89c6\u9891
p4810
sVAppAccountFlag
p4811
I0
sVVerifyFlag
p4812
I24
sVRemarkPYQuanPin
p4813
g56
sVHeadImgUrl
p4814
V/cgi-bin/mmwebwx-bin/webwxgeticon?seq=648772684&username=@2c8ddb5fb0486c61fbfcf5948cb1c148&skey=@crypt_870a16cf_207aee7f546ee349effd29338bf7cbd7
p4815
sVKeyWord
p4816
Vgh_
p4817
sVProvince
p4818
VCalifornia
p4819
sVPYInitial
p4820
VYTBJCSP
p4821
sVRemarkName
p4822
g56
sVIsOwner
p4823
I0
sVSex
p4824
I0
sVStarFriend
p4825
I0
sVHideInputBarFlag
p4826
I0
sVChatRoomId
p4827
I0
sVEncryChatRoomId
p4828
g56
sVAttrStatus
p4829
I0
sVStatues
p4830
I0
stp4831
Rp4832
I1
bag34
(g3343
g39
(dp4833
VUserName
p4834
V@b2a59ba0b964f0745a36a0e81ee5f746
p4835
sVCity
p4836
V\u6d77\u6dc0
p4837
sVSnsFlag
p4838
I0
sVDisplayName
p4839
g56
sVUniFriend
p4840
I0
sVMemberCount
p4841
I0
sVOwnerUin
p4842
I0
sVMemberList
p4843
g52
sVAlias
p4844
Vtaolumusic
p4845
sVPYQuanPin
p4846
Vtaoluyinyue
p4847
sVSignature
p4848
V\u5343\u6dd8\u4e07\u6f09\u867d\u8f9b\u82e6\uff0c\u5439\u5c3d\u72c2\u6c99\u59cb\u5230\u91d1\u3002\u6dd8\u6f09\u97f3\u4e50\uff0c\u7504\u9009\u91d1\u66f2\u3002\u6211\u4eec\u4e0d\u63d0\u4f9b\u7f51\u7edc\u795e\u66f2\uff0c\u53ea\u5206\u4eab\u7ecf\u5178\u97f3\u4e50\u3002
p4849
sVRemarkPYInitial
p4850
g56
sVContactFlag
p4851
I3
sVUin
p4852
I0
sVNickName
p4853
V\u6dd8\u6f09\u97f3\u4e50
p4854
sVAppAccountFlag
p4855
I0
sVVerifyFlag
p4856
I24
sVRemarkPYQuanPin
p4857
g56
sVHeadImgUrl
p4858
V/cgi-bin/mmwebwx-bin/webwxgeticon?seq=648785957&username=@b2a59ba0b964f0745a36a0e81ee5f746&skey=@crypt_870a16cf_207aee7f546ee349effd29338bf7cbd7
p4859
sVKeyWord
p4860
Vgh_
p4861
sVProvince
p4862
V\u5317\u4eac
p4863
sVPYInitial
p4864
VTLYY
p4865
sVRemarkName
p4866
g56
sVIsOwner
p4867
I0
sVSex
p4868
I0
sVStarFriend
p4869
I0
sVHideInputBarFlag
p4870
I0
sVChatRoomId
p4871
I0
sVEncryChatRoomId
p4872
g56
sVAttrStatus
p4873
I0
sVStatues
p4874
I0
stp4875
Rp4876
I1
bag34
(g3343
g39
(dp4877
VUserName
p4878
V@37844a2106d88c10148425b1f796980c
p4879
sVCity
p4880
V\u666e\u9640
p4881
sVSnsFlag
p4882
I0
sVDisplayName
p4883
g56
sVUniFriend
p4884
I0
sVMemberCount
p4885
I0
sVOwnerUin
p4886
I0
sVMemberList
p4887
g52
sVAlias
p4888
Vyingdanlaile
p4889
sVPYQuanPin
p4890
Vyingshanlaile
p4891
sVSignature
p4892
V\u5982\u679c\u4f60\u4e0d\u77e5\u9053\u770b\u4ec0\u4e48\u7535\u5f71\uff0c\u5173\u6ce8\u6211\u5c31\u5bf9\u4e86\u3002\u5230\u4e86\u8fd9\u91cc\uff0c\u4f60\u7684\u4f59\u751f\u5c06\u544a\u522b\u201c\u70c2\u7247\u201d\u4e24\u4e2a\u5b57\u3002\u5f71\u5355\u732b\u8fd9\u8f88\u5b50\u9664\u4e86\u5403\u996d\u7761\u89c9\u5c31\u662f\u770b\u7535\u5f71\uff0c\u5728\u88ab\u70c2\u7247\u7838\u6655\u540e\u53d1\u8a93\u8981\u628a\u770b\u8fc7\u7684\u597d\u7247\u4e00\u4e00\u6311\u51fa\u6765\uff0c\u63a8\u8350\u7ed9\u4f60\u3002\u54e6\u5bf9\u4e86\uff0c\u626b\u6d77\u62a5\u4e0b\u9762\u7684\u4e8c\u7ef4\u7801\u8fd8\u80fd\u76f4\u63a5\u89c2\u770b\u3002\u6ca1\u5176\u4ed6\u95ee\u9898\u6211\u5148\u770b\u7247\u53bb\u4e86\uff0c\u6bd4\u5fc3
p4893
sVRemarkPYInitial
p4894
g56
sVContactFlag
p4895
I3
sVUin
p4896
I0
sVNickName
p4897
V\u5f71\u5355\u6765\u4e86
p4898
sVAppAccountFlag
p4899
I0
sVVerifyFlag
p4900
I24
sVRemarkPYQuanPin
p4901
g56
sVHeadImgUrl
p4902
V/cgi-bin/mmwebwx-bin/webwxgeticon?seq=648793683&username=@37844a2106d88c10148425b1f796980c&skey=@crypt_870a16cf_207aee7f546ee349effd29338bf7cbd7
p4903
sVKeyWord
p4904
Vgh_
p4905
sVProvince
p4906
V\u4e0a\u6d77
p4907
sVPYInitial
p4908
VYSLL
p4909
sVRemarkName
p4910
g56
sVIsOwner
p4911
I0
sVSex
p4912
I0
sVStarFriend
p4913
I0
sVHideInputBarFlag
p4914
I0
sVChatRoomId
p4915
I0
sVEncryChatRoomId
p4916
g56
sVAttrStatus
p4917
I0
sVStatues
p4918
I0
stp4919
Rp4920
I1
bag34
(g3343
g39
(dp4921
VUserName
p4922
V@2b6ad8a85b3ead1b9991c56b5e13cf26
p4923
sVCity
p4924
V\u671d\u9633
p4925
sVSnsFlag
p4926
I0
sVDisplayName
p4927
g56
sVUniFriend
p4928
I0
sVMemberCount
p4929
I0
sVOwnerUin
p4930
I0
sVMemberList
p4931
g52
sVAlias
p4932
Vguokrpa
p4933
sVPYQuanPin
p4934
Vpaianjingqi
p4935
sVSignature
p4936
V\u679c\u58f3\u7f51\u8c0b\u6740\u73b0\u573a\u6cd5\u533b\u5c0f\u7ec4\u5b98\u65b9\u5fae\u4fe1\u3002
p4937
sVRemarkPYInitial
p4938
g56
sVContactFlag
p4939
I3
sVUin
p4940
I0
sVNickName
p4941
V\u62cd\u6848\u60ca\u5947
p4942
sVAppAccountFlag
p4943
I0
sVVerifyFlag
p4944
I24
sVRemarkPYQuanPin
p4945
g56
sVHeadImgUrl
p4946
V/cgi-bin/mmwebwx-bin/webwxgeticon?seq=648803075&username=@2b6ad8a85b3ead1b9991c56b5e13cf26&skey=@crypt_870a16cf_207aee7f546ee349effd29338bf7cbd7
p4947
sVKeyWord
p4948
Vgh_
p4949
sVProvince
p4950
V\u5317\u4eac
p4951
sVPYInitial
p4952
VPAJQ
p4953
sVRemarkName
p4954
g56
sVIsOwner
p4955
I0
sVSex
p4956
I0
sVStarFriend
p4957
I0
sVHideInputBarFlag
p4958
I0
sVChatRoomId
p4959
I0
sVEncryChatRoomId
p4960
g56
sVAttrStatus
p4961
I0
sVStatues
p4962
I0
stp4963
Rp4964
I1
bag34
(g3343
g39
(dp4965
VUserName
p4966
V@1ff05291f8c411bd2bd37a7de1ab1a4b
p4967
sVCity
p4968
V\u53a6\u95e8
p4969
sVSnsFlag
p4970
I0
sVDisplayName
p4971
g56
sVUniFriend
p4972
I0
sVMemberCount
p4973
I0
sVOwnerUin
p4974
I0
sVMemberList
p4975
g52
sVAlias
p4976
Vrunoob
p4977
sVPYQuanPin
p4978
Vcaidiaojiaocheng
p4979
sVSignature
p4980
V\u5b66\u7684\u4e0d\u4ec5\u662f\u6280\u672f\uff0c\u66f4\u662f\u68a6\u60f3\uff01
p4981
sVRemarkPYInitial
p4982
g56
sVContactFlag
p4983
I3
sVUin
p4984
I0
sVNickName
p4985
V\u83dc\u9e1f\u6559\u7a0b
p4986
sVAppAccountFlag
p4987
I0
sVVerifyFlag
p4988
I8
sVRemarkPYQuanPin
p4989
g56
sVHeadImgUrl
p4990
V/cgi-bin/mmwebwx-bin/webwxgeticon?seq=648821210&username=@1ff05291f8c411bd2bd37a7de1ab1a4b&skey=@crypt_870a16cf_207aee7f546ee349effd29338bf7cbd7
p4991
sVKeyWord
p4992
Vgh_
p4993
sVProvince
p4994
V\u798f\u5efa
p4995
sVPYInitial
p4996
VCDJC
p4997
sVRemarkName
p4998
g56
sVIsOwner
p4999
I0
sVSex
p5000
I0
sVStarFriend
p5001
I0
sVHideInputBarFlag
p5002
I0
sVChatRoomId
p5003
I0
sVEncryChatRoomId
p5004
g56
sVAttrStatus
p5005
I0
sVStatues
p5006
I0
stp5007
Rp5008
I1
bag34
(g3343
g39
(dp5009
VUserName
p5010
V@5d2b4393a8e84f87dfabb376270071d1
p5011
sVCity
p5012
V\u671d\u9633
p5013
sVSnsFlag
p5014
I0
sVDisplayName
p5015
g56
sVUniFriend
p5016
I0
sVMemberCount
p5017
I0
sVOwnerUin
p5018
I0
sVMemberList
p5019
g52
sVAlias
p5020
Veeeeefa
p5021
sVPYQuanPin
p5022
Verhaochuang
p5023
sVSignature
p5024
V\u81ea\u4ece\u5f97\u4e86\u7cbe\u795e\u75c5\u540e\uff0c\u6bcf\u5929\u8fc7\u7684\u597d\u5f00\u5fc3\u5440
p5025
sVRemarkPYInitial
p5026
g56
sVContactFlag
p5027
I3
sVUin
p5028
I0
sVNickName
p5029
V\u4e8c\u53f7\u5e8a
p5030
sVAppAccountFlag
p5031
I0
sVVerifyFlag
p5032
I8
sVRemarkPYQuanPin
p5033
g56
sVHeadImgUrl
p5034
V/cgi-bin/mmwebwx-bin/webwxgeticon?seq=635751924&username=@5d2b4393a8e84f87dfabb376270071d1&skey=@crypt_870a16cf_207aee7f546ee349effd29338bf7cbd7
p5035
sVKeyWord
p5036
Vgh_
p5037
sVProvince
p5038
V\u5317\u4eac
p5039
sVPYInitial
p5040
VEHC
p5041
sVRemarkName
p5042
g56
sVIsOwner
p5043
I0
sVSex
p5044
I0
sVStarFriend
p5045
I0
sVHideInputBarFlag
p5046
I0
sVChatRoomId
p5047
I0
sVEncryChatRoomId
p5048
g56
sVAttrStatus
p5049
I0
sVStatues
p5050
I0
stp5051
Rp5052
I1
bag34
(g3343
g39
(dp5053
VUserName
p5054
V@5568daa639401e964df49a15cbcef9e6
p5055
sVCity
p5056
V\u82cf\u5dde
p5057
sVSnsFlag
p5058
I0
sVDisplayName
p5059
g56
sVUniFriend
p5060
I0
sVMemberCount
p5061
I0
sVOwnerUin
p5062
I0
sVMemberList
p5063
g52
sVAlias
p5064
Vyujiazhinan
p5065
sVPYQuanPin
p5066
Vquanqiujianshenzhina
p5067
sVSignature
p5068
V\u4e3a\u5065\u8eab\u7231\u597d\u8005\u63d0\u4f9b\u6700\u4e13\u4e1a\u7684\u52a8\u4f5c\u6307\u5bfc\u3001\u6700\u5168\u7684\u7f8e\u4f53\u5065\u8eab\u8d44\u8baf\uff01\u6709\u8da3\u3001\u6709\u7528\u3001\u6709\u5e72\u8d27\uff01\u589e\u808c\u51cf\u8102\u3001\u8da3\u5473\u8d44\u8baf\uff0c\u5065\u8eab\u8def\u4e0a\uff0c\u4f60\u6211\u540c\u884c\uff01
p5069
sVRemarkPYInitial
p5070
g56
sVContactFlag
p5071
I3
sVUin
p5072
I0
sVNickName
p5073
V\u5168\u7403\u5065\u8eab\u6307\u5357
p5074
sVAppAccountFlag
p5075
I0
sVVerifyFlag
p5076
I24
sVRemarkPYQuanPin
p5077
g56
sVHeadImgUrl
p5078
V/cgi-bin/mmwebwx-bin/webwxgeticon?seq=648836204&username=@5568daa639401e964df49a15cbcef9e6&skey=@crypt_870a16cf_207aee7f546ee349effd29338bf7cbd7
p5079
sVKeyWord
p5080
Vgh_
p5081
sVProvince
p5082
V\u6c5f\u82cf
p5083
sVPYInitial
p5084
VQQJSZN
p5085
sVRemarkName
p5086
g56
sVIsOwner
p5087
I0
sVSex
p5088
I0
sVStarFriend
p5089
I0
sVHideInputBarFlag
p5090
I0
sVChatRoomId
p5091
I0
sVEncryChatRoomId
p5092
g56
sVAttrStatus
p5093
I0
sVStatues
p5094
I0
stp5095
Rp5096
I1
bag34
(g3343
g39
(dp5097
VUserName
p5098
V@fc92e9e59a06f7eab24f3f20acddff88
p5099
sVCity
p5100
V\u5e7f\u5dde
p5101
sVSnsFlag
p5102
I0
sVDisplayName
p5103
g56
sVUniFriend
p5104
I0
sVMemberCount
p5105
I0
sVOwnerUin
p5106
I0
sVMemberList
p5107
g52
sVAlias
p5108
Vikingdong
p5109
sVPYQuanPin
p5110
VKdong
p5111
sVSignature
p5112
V\u4e00\u4e2a\u6709\u8da3\u7684\u6f2b\u753b\u516c\u4f17\u53f7
p5113
sVRemarkPYInitial
p5114
g56
sVContactFlag
p5115
I3
sVUin
p5116
I0
sVNickName
p5117
VK\u8463
p5118
sVAppAccountFlag
p5119
I0
sVVerifyFlag
p5120
I24
sVRemarkPYQuanPin
p5121
g56
sVHeadImgUrl
p5122
V/cgi-bin/mmwebwx-bin/webwxgeticon?seq=648849125&username=@fc92e9e59a06f7eab24f3f20acddff88&skey=@crypt_870a16cf_207aee7f546ee349effd29338bf7cbd7
p5123
sVKeyWord
p5124
Vgh_
p5125
sVProvince
p5126
V\u5e7f\u4e1c
p5127
sVPYInitial
p5128
VKD
p5129
sVRemarkName
p5130
g56
sVIsOwner
p5131
I0
sVSex
p5132
I0
sVStarFriend
p5133
I0
sVHideInputBarFlag
p5134
I0
sVChatRoomId
p5135
I0
sVEncryChatRoomId
p5136
g56
sVAttrStatus
p5137
I0
sVStatues
p5138
I0
stp5139
Rp5140
I1
bag34
(g3343
g39
(dp5141
VUserName
p5142
V@55fdac0481ddabd2f351729e305960bb
p5143
sVCity
p5144
V\u671d\u9633
p5145
sVSnsFlag
p5146
I0
sVDisplayName
p5147
g56
sVUniFriend
p5148
I0
sVMemberCount
p5149
I0
sVOwnerUin
p5150
I0
sVMemberList
p5151
g52
sVAlias
p5152
VSciencePorn
p5153
sVPYQuanPin
p5154
Vkuxuankexue
p5155
sVSignature
p5156
V\u4ecb\u7ecd\u5404\u79cd\u201c\u5367\u69fd\u597d\u68d2\u201d\u7684\u79d1\u5b66\u5c0f\u77e5\u8bc6\u548c\u79d1\u5b66\u8da3\u56fe
p5157
sVRemarkPYInitial
p5158
g56
sVContactFlag
p5159
I3
sVUin
p5160
I0
sVNickName
p5161
V\u9177\u70ab\u79d1\u5b66
p5162
sVAppAccountFlag
p5163
I0
sVVerifyFlag
p5164
I8
sVRemarkPYQuanPin
p5165
g56
sVHeadImgUrl
p5166
V/cgi-bin/mmwebwx-bin/webwxgeticon?seq=660400491&username=@55fdac0481ddabd2f351729e305960bb&skey=@crypt_870a16cf_207aee7f546ee349effd29338bf7cbd7
p5167
sVKeyWord
p5168
Vgh_
p5169
sVProvince
p5170
V\u5317\u4eac
p5171
sVPYInitial
p5172
VKXKX
p5173
sVRemarkName
p5174
g56
sVIsOwner
p5175
I0
sVSex
p5176
I0
sVStarFriend
p5177
I0
sVHideInputBarFlag
p5178
I0
sVChatRoomId
p5179
I0
sVEncryChatRoomId
p5180
g56
sVAttrStatus
p5181
I0
sVStatues
p5182
I0
stp5183
Rp5184
I1
bag34
(g3343
g39
(dp5185
VUserName
p5186
V@70325e5880ce6b72c106b841345dfa2d
p5187
sVCity
p5188
V\u901a\u5dde
p5189
sVSnsFlag
p5190
I0
sVDisplayName
p5191
g56
sVUniFriend
p5192
I0
sVMemberCount
p5193
I0
sVOwnerUin
p5194
I0
sVMemberList
p5195
g52
sVAlias
p5196
Vhaoqi238
p5197
sVPYQuanPin
p5198
Vhaoqiboshi
p5199
sVSignature
p5200
V\u535a\u58eb\u4e00\u5206\u949f\uff0c\u59ff\u52bf\u6da8\u4e0d\u505c\uff01
p5201
sVRemarkPYInitial
p5202
g56
sVContactFlag
p5203
I3
sVUin
p5204
I0
sVNickName
p5205
V\u597d\u5947\u535a\u58eb
p5206
sVAppAccountFlag
p5207
I0
sVVerifyFlag
p5208
I24
sVRemarkPYQuanPin
p5209
g56
sVHeadImgUrl
p5210
V/cgi-bin/mmwebwx-bin/webwxgeticon?seq=660401409&username=@70325e5880ce6b72c106b841345dfa2d&skey=@crypt_870a16cf_207aee7f546ee349effd29338bf7cbd7
p5211
sVKeyWord
p5212
Vgh_
p5213
sVProvince
p5214
V\u5317\u4eac
p5215
sVPYInitial
p5216
VHQBS
p5217
sVRemarkName
p5218
g56
sVIsOwner
p5219
I0
sVSex
p5220
I0
sVStarFriend
p5221
I0
sVHideInputBarFlag
p5222
I0
sVChatRoomId
p5223
I0
sVEncryChatRoomId
p5224
g56
sVAttrStatus
p5225
I0
sVStatues
p5226
I0
stp5227
Rp5228
I1
bag34
(g3343
g39
(dp5229
VUserName
p5230
V@ce5877f968ebcea4c8a94fc800e6e345
p5231
sVCity
p5232
V\u671d\u9633
p5233
sVSnsFlag
p5234
I0
sVDisplayName
p5235
g56
sVUniFriend
p5236
I0
sVMemberCount
p5237
I0
sVOwnerUin
p5238
I0
sVMemberList
p5239
g52
sVAlias
p5240
Vqingnianzhiyangji
p5241
sVPYQuanPin
p5242
Vqingnianzhiyangji
p5243
sVSignature
p5244
V\u51e4\u51f0\u7f51\u9752\u5e74\u9891\u9053\uff0c\u8fd9\u53ef\u80fd\u662f\u6700\u6709\u9752\u5e74\u4eba\u5473\u9053\u7684\u793e\u7fa4\u3002
p5245
sVRemarkPYInitial
p5246
g56
sVContactFlag
p5247
I3
sVUin
p5248
I0
sVNickName
p5249
V\u9752\u5e74\u5236\u6c27\u673a
p5250
sVAppAccountFlag
p5251
I0
sVVerifyFlag
p5252
I8
sVRemarkPYQuanPin
p5253
g56
sVHeadImgUrl
p5254
V/cgi-bin/mmwebwx-bin/webwxgeticon?seq=660419699&username=@ce5877f968ebcea4c8a94fc800e6e345&skey=@crypt_870a16cf_207aee7f546ee349effd29338bf7cbd7
p5255
sVKeyWord
p5256
Vgh_
p5257
sVProvince
p5258
V\u5317\u4eac
p5259
sVPYInitial
p5260
VQNZYJ
p5261
sVRemarkName
p5262
g56
sVIsOwner
p5263
I0
sVSex
p5264
I0
sVStarFriend
p5265
I0
sVHideInputBarFlag
p5266
I0
sVChatRoomId
p5267
I0
sVEncryChatRoomId
p5268
g56
sVAttrStatus
p5269
I0
sVStatues
p5270
I0
stp5271
Rp5272
I1
bag34
(g3343
g39
(dp5273
VUserName
p5274
V@858da4ea69c401b37924303a34219ef7
p5275
sVCity
p5276
g56
sVSnsFlag
p5277
I0
sVDisplayName
p5278
g56
sVUniFriend
p5279
I0
sVMemberCount
p5280
I0
sVOwnerUin
p5281
I0
sVMemberList
p5282
g52
sVAlias
p5283
Vwxzhifu
p5284
sVPYQuanPin
p5285
Vweixinzhifu
p5286
sVSignature
p5287
V\u5e2e\u52a9\u89e3\u51b3\u5fae\u4fe1\u652f\u4ed8\u4e2d\u9047\u5230\u7684\u56f0\u96be\uff0c\u6536\u96c6\u5173\u4e8e\u5fae\u4fe1\u652f\u4ed8\u7684\u5efa\u8bae\u53cd\u9988\u3002
p5288
sVRemarkPYInitial
p5289
g56
sVContactFlag
p5290
I1
sVUin
p5291
I0
sVNickName
p5292
V\u5fae\u4fe1\u652f\u4ed8
p5293
sVAppAccountFlag
p5294
I0
sVVerifyFlag
p5295
I24
sVRemarkPYQuanPin
p5296
g56
sVHeadImgUrl
p5297
V/cgi-bin/mmwebwx-bin/webwxgeticon?seq=620621434&username=@858da4ea69c401b37924303a34219ef7&skey=@crypt_870a16cf_207aee7f546ee349effd29338bf7cbd7
p5298
sVKeyWord
p5299
Vgh_
p5300
sVProvince
p5301
V\u5e7f\u4e1c
p5302
sVPYInitial
p5303
VWXZF
p5304
sVRemarkName
p5305
g56
sVIsOwner
p5306
I0
sVSex
p5307
I0
sVStarFriend
p5308
I0
sVHideInputBarFlag
p5309
I0
sVChatRoomId
p5310
I0
sVEncryChatRoomId
p5311
g56
sVAttrStatus
p5312
I0
sVStatues
p5313
I0
stp5314
Rp5315
I1
bag34
(g3343
g39
(dp5316
VUserName
p5317
V@f1f6ec68aa1950ed0af99f4a9dd653f2
p5318
sVCity
p5319
g56
sVSnsFlag
p5320
I0
sVDisplayName
p5321
g56
sVUniFriend
p5322
I0
sVMemberCount
p5323
I0
sVOwnerUin
p5324
I0
sVMemberList
p5325
g52
sVAlias
p5326
Vliuhuitime
p5327
sVPYQuanPin
p5328
Vxinchuzuliuhui
p5329
sVSignature
p5330
V\u4f60\u597d\uff0c\u6211\u662f\u516d\u56de\u3002\u8fd9\u91cc\u6709\u5f88\u591a\u51fa\u79df\u6545\u4e8b\u3002\u4ece2012\u5e74\u5f00\u59cb\u51fa\u79df\uff0c\u5f53\u65f6\u6211\u5728\u6742\u5fd7\u793e\u5de5\u4f5c\u505a\u8bb0\u8005\u30022015\u5e745\u6708\u5e95\u5f00\u59cb\u72ec\u7acb\u51fa\u79df\u3002\u82e5\u5931\u8054\uff0c\u65b0\u6d6a\u5fae\u535a@\u516d\u56de
p5331
sVRemarkPYInitial
p5332
g56
sVContactFlag
p5333
I3
sVUin
p5334
I0
sVNickName
p5335
V\u65b0\u51fa\u79df\u516d\u56de
p5336
sVAppAccountFlag
p5337
I0
sVVerifyFlag
p5338
I8
sVRemarkPYQuanPin
p5339
g56
sVHeadImgUrl
p5340
V/cgi-bin/mmwebwx-bin/webwxgeticon?seq=660421389&username=@f1f6ec68aa1950ed0af99f4a9dd653f2&skey=@crypt_870a16cf_207aee7f546ee349effd29338bf7cbd7
p5341
sVKeyWord
p5342
Vgh_
p5343
sVProvince
p5344
V\u4e0a\u6d77
p5345
sVPYInitial
p5346
VXCZLH
p5347
sVRemarkName
p5348
g56
sVIsOwner
p5349
I0
sVSex
p5350
I0
sVStarFriend
p5351
I0
sVHideInputBarFlag
p5352
I0
sVChatRoomId
p5353
I0
sVEncryChatRoomId
p5354
g56
sVAttrStatus
p5355
I0
sVStatues
p5356
I0
stp5357
Rp5358
I1
bag34
(g3343
g39
(dp5359
VUserName
p5360
V@5b1f6179dbd16a627f91acdbe2502f3d
p5361
sVCity
p5362
V\u4e30\u53f0
p5363
sVSnsFlag
p5364
I0
sVDisplayName
p5365
g56
sVUniFriend
p5366
I0
sVMemberCount
p5367
I0
sVOwnerUin
p5368
I0
sVMemberList
p5369
g52
sVAlias
p5370
Vrootpie
p5371
sVPYQuanPin
p5372
Vshaonianyingshipa
p5373
sVSignature
p5374
V\u6b27\u7f8e\u7535\u89c6\u3001\u7535\u5f71\u8d44\u8baf\u66f4\u65b0
p5375
sVRemarkPYInitial
p5376
g56
sVContactFlag
p5377
I3
sVUin
p5378
I0
sVNickName
p5379
V\u5c11\u5e74\u5f71\u89c6\u6d3e
p5380
sVAppAccountFlag
p5381
I0
sVVerifyFlag
p5382
I8
sVRemarkPYQuanPin
p5383
g56
sVHeadImgUrl
p5384
V/cgi-bin/mmwebwx-bin/webwxgeticon?seq=660422584&username=@5b1f6179dbd16a627f91acdbe2502f3d&skey=@crypt_870a16cf_207aee7f546ee349effd29338bf7cbd7
p5385
sVKeyWord
p5386
Vgh_
p5387
sVProvince
p5388
V\u5317\u4eac
p5389
sVPYInitial
p5390
VSNYSP
p5391
sVRemarkName
p5392
g56
sVIsOwner
p5393
I0
sVSex
p5394
I0
sVStarFriend
p5395
I0
sVHideInputBarFlag
p5396
I0
sVChatRoomId
p5397
I0
sVEncryChatRoomId
p5398
g56
sVAttrStatus
p5399
I0
sVStatues
p5400
I0
stp5401
Rp5402
I1
bag34
(g3343
g39
(dp5403
VUserName
p5404
V@b911e153dd85493e16df402cf853b5c8
p5405
sVCity
p5406
V\u671d\u9633
p5407
sVSnsFlag
p5408
I0
sVDisplayName
p5409
g56
sVUniFriend
p5410
I0
sVMemberCount
p5411
I0
sVOwnerUin
p5412
I0
sVMemberList
p5413
g52
sVAlias
p5414
Vmydaidaixiong
p5415
sVPYQuanPin
p5416
Vdaidaixiong
p5417
sVSignature
p5418
V\u65e0\u8bba\u662f\u5b66\u5386\u6559\u80b2\u3001IT\u57f9\u8bad\uff0c\u8fd8\u662f\u8bed\u8a00\u57f9\u8bad\u3001\u827a\u672f\u7c7b\u57f9\u8bad\u3001\u804c\u4e1a\u6280\u80fd\u57f9\u8bad\u3001\u6d77\u5916\u7559\u5b66\u9879\u76ee\uff0c\u8d37\u8d37\u718a\u59cb\u7ec8\u79c9\u627f\u201c\u4e3a\u68a6\u60f3\u8005\u70b9\u4eae\u672a\u6765\u201d\u7684\u5b97\u65e8\uff0c\u6839\u636e\u6559\u80b2\u57f9\u8bad\u673a\u6784\u7684\u7279\u70b9\uff0c\u7ed3\u5408\u5b66\u751f\u7684\u5177\u4f53\u9700\u6c42\uff0c\u91cf\u8eab\u5b9a\u505a\u4e0d\u540c\u7684\u89e3\u51b3\u65b9\u6848\uff0c\u4f7f\u5b66\u751f\u53ef\u4ee5\u8f7b\u677e\u901a\u8fc7\u5206\u671f\u4ed8\u6b3e\u6765\u5b8c\u6210\u5b66\u4e1a\u3002
p5419
sVRemarkPYInitial
p5420
g56
sVContactFlag
p5421
I1
sVUin
p5422
I0
sVNickName
p5423
V\u8d37\u8d37\u718a
p5424
sVAppAccountFlag
p5425
I0
sVVerifyFlag
p5426
I24
sVRemarkPYQuanPin
p5427
g56
sVHeadImgUrl
p5428
V/cgi-bin/mmwebwx-bin/webwxgeticon?seq=645199395&username=@b911e153dd85493e16df402cf853b5c8&skey=@crypt_870a16cf_207aee7f546ee349effd29338bf7cbd7
p5429
sVKeyWord
p5430
Vgh_
p5431
sVProvince
p5432
V\u5317\u4eac
p5433
sVPYInitial
p5434
VDDX
p5435
sVRemarkName
p5436
g56
sVIsOwner
p5437
I0
sVSex
p5438
I0
sVStarFriend
p5439
I0
sVHideInputBarFlag
p5440
I0
sVChatRoomId
p5441
I0
sVEncryChatRoomId
p5442
g56
sVAttrStatus
p5443
I0
sVStatues
p5444
I0
stp5445
Rp5446
I1
bag34
(g3343
g39
(dp5447
VUserName
p5448
V@822b064e62962f2dc0184243154244cb
p5449
sVCity
p5450
V\u671d\u9633
p5451
sVSnsFlag
p5452
I0
sVDisplayName
p5453
g56
sVUniFriend
p5454
I0
sVMemberCount
p5455
I0
sVOwnerUin
p5456
I0
sVMemberList
p5457
g52
sVAlias
p5458
Vbjmgms
p5459
sVPYQuanPin
p5460
Vbeijingmigaomeiguojiyingchenggongtidian
p5461
sVSignature
p5462
V\u5f71\u9662\u5404\u79cd\u4f18\u60e0\u62b1\u56de\u5bb6\uff01
p5463
sVRemarkPYInitial
p5464
g56
sVContactFlag
p5465
I1
sVUin
p5466
I0
sVNickName
p5467
V\u5317\u4eac\u7c73\u9ad8\u6885\u56fd\u9645\u5f71\u57ce\u5de5\u4f53\u5e97
p5468
sVAppAccountFlag
p5469
I0
sVVerifyFlag
p5470
I24
sVRemarkPYQuanPin
p5471
g56
sVHeadImgUrl
p5472
V/cgi-bin/mmwebwx-bin/webwxgeticon?seq=660412427&username=@822b064e62962f2dc0184243154244cb&skey=@crypt_870a16cf_207aee7f546ee349effd29338bf7cbd7
p5473
sVKeyWord
p5474
Vgh_
p5475
sVProvince
p5476
V\u5317\u4eac
p5477
sVPYInitial
p5478
VBJMGMGJYCGTD
p5479
sVRemarkName
p5480
g56
sVIsOwner
p5481
I0
sVSex
p5482
I0
sVStarFriend
p5483
I0
sVHideInputBarFlag
p5484
I0
sVChatRoomId
p5485
I0
sVEncryChatRoomId
p5486
g56
sVAttrStatus
p5487
I0
sVStatues
p5488
I0
stp5489
Rp5490
I1
bag34
(g3343
g39
(dp5491
VUserName
p5492
V@168942edec27ea58f9255e7ad7dade28
p5493
sVCity
p5494
V\u6d77\u6dc0
p5495
sVSnsFlag
p5496
I0
sVDisplayName
p5497
g56
sVUniFriend
p5498
I0
sVMemberCount
p5499
I0
sVOwnerUin
p5500
I0
sVMemberList
p5501
g52
sVAlias
p5502
Vxiaoice-ms
p5503
sVPYQuanPin
p5504
Vxiaobing
p5505
sVSignature
p5506
V\u6211\u662f\u4eba\u5de5\u667a\u80fd\u5fae\u8f6f\u5c0f\u51b0~~
p5507
sVRemarkPYInitial
p5508
g56
sVContactFlag
p5509
I1
sVUin
p5510
I0
sVNickName
p5511
V\u5c0f\u51b0
p5512
sVAppAccountFlag
p5513
I0
sVVerifyFlag
p5514
I24
sVRemarkPYQuanPin
p5515
g56
sVHeadImgUrl
p5516
V/cgi-bin/mmwebwx-bin/webwxgeticon?seq=660423370&username=@168942edec27ea58f9255e7ad7dade28&skey=@crypt_870a16cf_207aee7f546ee349effd29338bf7cbd7
p5517
sVKeyWord
p5518
Vgh_
p5519
sVProvince
p5520
V\u5317\u4eac
p5521
sVPYInitial
p5522
VXB
p5523
sVRemarkName
p5524
g56
sVIsOwner
p5525
I0
sVSex
p5526
I0
sVStarFriend
p5527
I0
sVHideInputBarFlag
p5528
I0
sVChatRoomId
p5529
I0
sVEncryChatRoomId
p5530
g56
sVAttrStatus
p5531
I0
sVStatues
p5532
I0
stp5533
Rp5534
I1
bag34
(g3343
g39
(dp5535
VUserName
p5536
V@65363d5334b4a75e89cf2789525c4156
p5537
sVCity
p5538
V\u6d66\u4e1c\u65b0\u533a
p5539
sVSnsFlag
p5540
I0
sVDisplayName
p5541
g56
sVUniFriend
p5542
I0
sVMemberCount
p5543
I0
sVOwnerUin
p5544
I0
sVMemberList
p5545
g52
sVAlias
p5546
Vcoderstory
p5547
sVPYQuanPin
p5548
Vshenbidechengxuyuanmen
p5549
sVSignature
p5550
V\u4f5c\u4e3a\u4e00\u4e2a\u7a0b\u5e8f\u5458\u661f\u4eba\uff0c\u5728\u5730\u7403\u4e0a\u5de5\u4f5c\u751f\u6d3b\u65f6\uff0c\u4f60\u662f\u5426\u4f1a\u611f\u5230\u5b64\u72ec\u5462\uff1f \u8fd9\u91cc\u6709\u6765\u81ea\u7a0b\u5e8f\u5458\u6bcd\u661f\u7684\u4eb2\u5207\u95ee\u5019\u548c\u5730\u7403\u6f2b\u6e38\u6307\u5357\u3002\u56fd\u5185\u9996\u90e8\u4ee5\u7a0b\u5e8f\u5458\u6587\u5316\u3001\u6280\u672f\u4e3b\u9898\u3001\u9879\u76ee\u7ba1\u7406\u53ca\u4e92\u8054\u7f51\u521b\u4e1a\u7684\u4e3a\u4e3b\u9898\u6f2b\u753b\uff0c\u8bde\u751f\u4e8e09\u5e74\u3002\u4e3b\u521b\uff1a\u897f\u4e54\u3001\u970d\u70ac\u3002
p5551
sVRemarkPYInitial
p5552
g56
sVContactFlag
p5553
I3
sVUin
p5554
I0
sVNickName
p5555
V\u795e\u79d8\u7684\u7a0b\u5e8f\u5458\u4eec
p5556
sVAppAccountFlag
p5557
I0
sVVerifyFlag
p5558
I8
sVRemarkPYQuanPin
p5559
g56
sVHeadImgUrl
p5560
V/cgi-bin/mmwebwx-bin/webwxgeticon?seq=660429504&username=@65363d5334b4a75e89cf2789525c4156&skey=@crypt_870a16cf_207aee7f546ee349effd29338bf7cbd7
p5561
sVKeyWord
p5562
Vgh_
p5563
sVProvince
p5564
V\u4e0a\u6d77
p5565
sVPYInitial
p5566
VSBDCXYM
p5567
sVRemarkName
p5568
g56
sVIsOwner
p5569
I0
sVSex
p5570
I0
sVStarFriend
p5571
I0
sVHideInputBarFlag
p5572
I0
sVChatRoomId
p5573
I0
sVEncryChatRoomId
p5574
g56
sVAttrStatus
p5575
I0
sVStatues
p5576
I0
stp5577
Rp5578
I1
batp5579
Rp5580
I1
bssS'loginInfo'
p5581
(dp5582
S'SyncKey'
p5583
(dp5584
VCount
p5585
I4
sVList
p5586
(lp5587
(dp5588
VVal
p5589
I660429675
sVKey
p5590
I1
sa(dp5591
VVal
p5592
I660430383
sVKey
p5593
I2
sa(dp5594
VVal
p5595
I660430356
sVKey
p5596
I3
sa(dp5597
VVal
p5598
I1493023468
sVKey
p5599
I1000
sassS'syncUrl'
p5600
S'https://webpush.wx.qq.com/cgi-bin/mmwebwx-bin'
p5601
sS'skey'
p5602
V@crypt_870a16cf_207aee7f546ee349effd29338bf7cbd7
p5603
sS'wxuin'
p5604
V1835068021
p5605
sS'synckey'
p5606
S'1_660429675|2_660430383|3_660430356|1000_1493023468'
p5607
sS'url'
p5608
Vhttps://wx.qq.com/cgi-bin/mmwebwx-bin
p5609
sS'pass_ticket'
p5610
VkOYmmg0kuMEiGDHEeeJBUvtJy0Fg9RaXlAZIO6UT1tSY3Fr8QG55ROFYYkZKU1MC
p5611
sS'wxsid'
p5612
VGsRQXiyYAoA3/aNS
p5613
sS'User'
p5614
g34
(g38
g39
(dp5615
g41
g31
sg43
g46
sg45
g46
sg47
I0
sg49
g52
sg53
g56
sg55
g56
sg85
I1
sg58
I0
sg59
I0
sg60
g46
sg62
g46
sg63
g56
sg64
g56
sg66
I0
sg68
I0
sg69
I1
sg70
g46
sg71
I0
sg74
I1
sg72
I17
sg73
I0
sg48
I0
sg75
g46
sg77
g2864
sg79
I0
sg80
g2865
sg82
g56
sg83
g2866
sg57
I1835068021
sg86
I0
sg87
I0
stp5616
Rp5617
I1
bsS'InviteStartCount'
p5618
I40
sS'fileUrl'
p5619
S'https://file.wx.qq.com/cgi-bin/mmwebwx-bin'
p5620
sS'BaseRequest'
p5621
(dp5622
g57
g5605
sS'Skey'
p5623
g5603
sS'DeviceID'
p5624
g5611
sS'Sid'
p5625
g5613
ssS'deviceid'
p5626
S'e163909391142946'
p5627
ss.